

Microchip MPLAB XC8 Assembler V2.50 build 20240725155939 
                                                                                               Mon Jan 13 18:27:29 2025

Microchip MPLAB XC8 C Compiler v2.50 (Free license) build 20240725155939 Og1 
     1                           	processor	18F4550
     2                           	fnconf	rparam,??,?,0
     3                           	pagewidth 120
     4                           	opt	flic
     5                           	psect	idataBANK0,global,class=CODE,space=0,delta=1,noexec
     6                           	psect	smallconst,global,reloc=2,class=SMALLCONST,space=0,delta=1,noexec
     7                           	psect	cinit,global,reloc=2,class=CODE,space=0,delta=1
     8                           	psect	bssCOMRAM,global,class=COMRAM,space=1,delta=1,lowdata,noexec
     9                           	psect	bssBANK0,global,class=BANK0,space=1,delta=1,lowdata,noexec
    10                           	psect	dataBANK0,global,class=BANK0,space=1,delta=1,lowdata,noexec
    11                           	psect	cstackBANK0,global,class=BANK0,space=1,delta=1,lowdata,noexec
    12                           	psect	cstackCOMRAM,global,class=COMRAM,space=1,delta=1,lowdata,noexec
    13                           	psect	text0,global,reloc=2,class=CODE,space=0,delta=1
    14                           	psect	text1,global,reloc=2,class=CODE,space=0,delta=1
    15                           	psect	text2,global,reloc=2,class=CODE,space=0,delta=1
    16                           	psect	text3,global,reloc=2,class=CODE,space=0,delta=1,group=3
    17                           	psect	text4,global,reloc=2,class=CODE,space=0,delta=1,group=1
    18                           	psect	text5,global,reloc=2,class=CODE,space=0,delta=1,group=1
    19                           	psect	text6,global,reloc=2,class=CODE,space=0,delta=1,group=3
    20                           	psect	text7,global,reloc=2,class=CODE,space=0,delta=1,group=3
    21                           	psect	text8,global,reloc=2,class=CODE,space=0,delta=1
    22                           	psect	text9,global,reloc=2,class=CODE,space=0,delta=1
    23                           	psect	text10,global,reloc=2,class=CODE,space=0,delta=1
    24                           	psect	text11,global,reloc=2,class=CODE,space=0,delta=1
    25                           	psect	text12,global,reloc=2,class=CODE,space=0,delta=1
    26                           	psect	text13,global,reloc=2,class=CODE,space=0,delta=1
    27                           	psect	text14,global,reloc=2,class=CODE,space=0,delta=1
    28                           	psect	text15,global,reloc=2,class=CODE,space=0,delta=1,group=2
    29                           	psect	text16,global,reloc=2,class=CODE,space=0,delta=1,group=2
    30                           	psect	text17,global,reloc=2,class=CODE,space=0,delta=1,group=2
    31                           	psect	text18,global,reloc=2,class=CODE,space=0,delta=1,group=2
    32                           	psect	text19,global,reloc=2,class=CODE,space=0,delta=1,group=2
    33                           	psect	text20,global,reloc=2,class=CODE,space=0,delta=1,group=2
    34                           	psect	text21,global,reloc=2,class=CODE,space=0,delta=1
    35                           	psect	text22,global,reloc=2,class=CODE,space=0,delta=1
    36                           	psect	text23,global,reloc=2,class=CODE,space=0,delta=1
    37                           	psect	text24,global,reloc=2,class=CODE,space=0,delta=1
    38                           	psect	intcode,global,reloc=2,class=CODE,space=0,delta=1
    39                           	psect	intcode_body,global,reloc=2,class=CODE,space=0,delta=1
    40                           	psect	intsave_regs,global,class=BIGRAM,space=1,delta=1,noexec
    41                           	psect	rparam,global,class=COMRAM,space=1,delta=1,noexec
    42                           	psect	temp,global,ovrld,common,class=COMRAM,space=1,delta=1,lowdata
    43                           	psect	config,global,abs,ovrld,class=CONFIG,space=4,delta=1,noexec
    44   000000                     
    45                           ; Generated 17/10/2023 GMT
    46                           ; 
    47                           ; Copyright © 2023, Microchip Technology Inc. and its subsidiaries ("Microchip")
    48                           ; All rights reserved.
    49                           ; 
    50                           ; This software is developed by Microchip Technology Inc. and its subsidiaries ("Microch
      +                          ip").
    51                           ; 
    52                           ; Redistribution and use in source and binary forms, with or without modification, are
    53                           ; permitted provided that the following conditions are met:
    54                           ; 
    55                           ;     1. Redistributions of source code must retain the above copyright notice, this lis
      +                          t of
    56                           ;        conditions and the following disclaimer.
    57                           ; 
    58                           ;     2. Redistributions in binary form must reproduce the above copyright notice, this 
      +                          list
    59                           ;        of conditions and the following disclaimer in the documentation and/or other
    60                           ;        materials provided with the distribution. Publication is not required when
    61                           ;        this file is used in an embedded application.
    62                           ; 
    63                           ;     3. Microchip's name may not be used to endorse or promote products derived from th
      +                          is
    64                           ;        software without specific prior written permission.
    65                           ; 
    66                           ; THIS SOFTWARE IS PROVIDED BY MICROCHIP "AS IS" AND ANY EXPRESS OR IMPLIED WARRANTIES,
    67                           ; INCLUDING, BUT NOT LIMITED TO, THE IMPLIED WARRANTIES OF MERCHANTABILITY AND FITNESS F
      +                          OR
    68                           ; PURPOSE ARE DISCLAIMED.  IN NO EVENT SHALL MICROCHIP BE LIABLE FOR ANY DIRECT, INDIREC
      +                          T,
    69                           ; INCIDENTAL, SPECIAL, EXEMPLARY, OR CONSEQUENTIAL DAMAGES (INCLUDING BUT NOT LIMITED TO
    70                           ; PROCUREMENT OF SUBSTITUTE GOODS OR SERVICES; LOSS OF USE, DATA OR PROFITS; OR BUSINESS
    71                           ; INTERRUPTION) HOWSOEVER CAUSED AND ON ANY THEORY OF LIABILITY, WHETHER IN CONTRACT, ST
      +                          RICT
    72                           ; LIABILITY, OR TORT (INCLUDING NEGLIGENCE OR OTHERWISE) ARISING IN ANY WAY OUT OF THE U
      +                          SE OF
    73                           ; THIS SOFTWARE, EVEN IF ADVISED OF THE POSSIBILITY OF SUCH DAMAGE.
    74                           ; 
    75                           ; 
    76                           ; Code-generator required, PIC18F4550 Definitions
    77                           ; 
    78                           ; SFR Addresses
    79   000FE0                     bsr             equ	4064
    80   000FE9                     fsr0            equ	4073
    81   000FEA                     fsr0h           equ	4074
    82   000FE9                     fsr0l           equ	4073
    83   000FE1                     fsr1            equ	4065
    84   000FE2                     fsr1h           equ	4066
    85   000FE1                     fsr1l           equ	4065
    86   000FD9                     fsr2            equ	4057
    87   000FDA                     fsr2h           equ	4058
    88   000FD9                     fsr2l           equ	4057
    89   000FEF                     indf0           equ	4079
    90   000FE7                     indf1           equ	4071
    91   000FDF                     indf2           equ	4063
    92   000FF2                     intcon          equ	4082
    93   000000                     nvmcon          equ	0
    94   000FF9                     pcl             equ	4089
    95   000FFA                     pclath          equ	4090
    96   000FFB                     pclatu          equ	4091
    97   000FEB                     plusw0          equ	4075
    98   000FE3                     plusw1          equ	4067
    99   000FDB                     plusw2          equ	4059
   100   000FED                     postdec0        equ	4077
   101   000FE5                     postdec1        equ	4069
   102   000FDD                     postdec2        equ	4061
   103   000FEE                     postinc0        equ	4078
   104   000FE6                     postinc1        equ	4070
   105   000FDE                     postinc2        equ	4062
   106   000FEC                     preinc0         equ	4076
   107   000FE4                     preinc1         equ	4068
   108   000FDC                     preinc2         equ	4060
   109   000FF3                     prod            equ	4083
   110   000FF4                     prodh           equ	4084
   111   000FF3                     prodl           equ	4083
   112   000FD8                     status          equ	4056
   113   000FF5                     tablat          equ	4085
   114   000FF6                     tblptr          equ	4086
   115   000FF7                     tblptrh         equ	4087
   116   000FF6                     tblptrl         equ	4086
   117   000FF8                     tblptru         equ	4088
   118   000FFD                     tosl            equ	4093
   119   000FE8                     wreg            equ	4072
   120   000F62                     SPPDATA         equ	3938	;# 
   121   000F63                     SPPCFG          equ	3939	;# 
   122   000F64                     SPPEPS          equ	3940	;# 
   123   000F65                     SPPCON          equ	3941	;# 
   124   000F66                     UFRM            equ	3942	;# 
   125   000F66                     UFRML           equ	3942	;# 
   126   000F67                     UFRMH           equ	3943	;# 
   127   000F68                     UIR             equ	3944	;# 
   128   000F69                     UIE             equ	3945	;# 
   129   000F6A                     UEIR            equ	3946	;# 
   130   000F6B                     UEIE            equ	3947	;# 
   131   000F6C                     USTAT           equ	3948	;# 
   132   000F6D                     UCON            equ	3949	;# 
   133   000F6E                     UADDR           equ	3950	;# 
   134   000F6F                     UCFG            equ	3951	;# 
   135   000F70                     UEP0            equ	3952	;# 
   136   000F71                     UEP1            equ	3953	;# 
   137   000F72                     UEP2            equ	3954	;# 
   138   000F73                     UEP3            equ	3955	;# 
   139   000F74                     UEP4            equ	3956	;# 
   140   000F75                     UEP5            equ	3957	;# 
   141   000F76                     UEP6            equ	3958	;# 
   142   000F77                     UEP7            equ	3959	;# 
   143   000F78                     UEP8            equ	3960	;# 
   144   000F79                     UEP9            equ	3961	;# 
   145   000F7A                     UEP10           equ	3962	;# 
   146   000F7B                     UEP11           equ	3963	;# 
   147   000F7C                     UEP12           equ	3964	;# 
   148   000F7D                     UEP13           equ	3965	;# 
   149   000F7E                     UEP14           equ	3966	;# 
   150   000F7F                     UEP15           equ	3967	;# 
   151   000F80                     PORTA           equ	3968	;# 
   152   000F81                     PORTB           equ	3969	;# 
   153   000F82                     PORTC           equ	3970	;# 
   154   000F83                     PORTD           equ	3971	;# 
   155   000F84                     PORTE           equ	3972	;# 
   156   000F89                     LATA            equ	3977	;# 
   157   000F8A                     LATB            equ	3978	;# 
   158   000F8B                     LATC            equ	3979	;# 
   159   000F8C                     LATD            equ	3980	;# 
   160   000F8D                     LATE            equ	3981	;# 
   161   000F92                     TRISA           equ	3986	;# 
   162   000F92                     DDRA            equ	3986	;# 
   163   000F93                     TRISB           equ	3987	;# 
   164   000F93                     DDRB            equ	3987	;# 
   165   000F94                     TRISC           equ	3988	;# 
   166   000F94                     DDRC            equ	3988	;# 
   167   000F95                     TRISD           equ	3989	;# 
   168   000F95                     DDRD            equ	3989	;# 
   169   000F96                     TRISE           equ	3990	;# 
   170   000F96                     DDRE            equ	3990	;# 
   171   000F9B                     OSCTUNE         equ	3995	;# 
   172   000F9D                     PIE1            equ	3997	;# 
   173   000F9E                     PIR1            equ	3998	;# 
   174   000F9F                     IPR1            equ	3999	;# 
   175   000FA0                     PIE2            equ	4000	;# 
   176   000FA1                     PIR2            equ	4001	;# 
   177   000FA2                     IPR2            equ	4002	;# 
   178   000FA6                     EECON1          equ	4006	;# 
   179   000FA7                     EECON2          equ	4007	;# 
   180   000FA8                     EEDATA          equ	4008	;# 
   181   000FA9                     EEADR           equ	4009	;# 
   182   000FAB                     RCSTA           equ	4011	;# 
   183   000FAB                     RCSTA1          equ	4011	;# 
   184   000FAC                     TXSTA           equ	4012	;# 
   185   000FAC                     TXSTA1          equ	4012	;# 
   186   000FAD                     TXREG           equ	4013	;# 
   187   000FAD                     TXREG1          equ	4013	;# 
   188   000FAE                     RCREG           equ	4014	;# 
   189   000FAE                     RCREG1          equ	4014	;# 
   190   000FAF                     SPBRG           equ	4015	;# 
   191   000FAF                     SPBRG1          equ	4015	;# 
   192   000FB0                     SPBRGH          equ	4016	;# 
   193   000FB1                     T3CON           equ	4017	;# 
   194   000FB2                     TMR3            equ	4018	;# 
   195   000FB2                     TMR3L           equ	4018	;# 
   196   000FB3                     TMR3H           equ	4019	;# 
   197   000FB4                     CMCON           equ	4020	;# 
   198   000FB5                     CVRCON          equ	4021	;# 
   199   000FB6                     ECCP1AS         equ	4022	;# 
   200   000FB6                     CCP1AS          equ	4022	;# 
   201   000FB7                     ECCP1DEL        equ	4023	;# 
   202   000FB7                     CCP1DEL         equ	4023	;# 
   203   000FB8                     BAUDCON         equ	4024	;# 
   204   000FB8                     BAUDCTL         equ	4024	;# 
   205   000FBA                     CCP2CON         equ	4026	;# 
   206   000FBB                     CCPR2           equ	4027	;# 
   207   000FBB                     CCPR2L          equ	4027	;# 
   208   000FBC                     CCPR2H          equ	4028	;# 
   209   000FBD                     CCP1CON         equ	4029	;# 
   210   000FBD                     ECCP1CON        equ	4029	;# 
   211   000FBE                     CCPR1           equ	4030	;# 
   212   000FBE                     CCPR1L          equ	4030	;# 
   213   000FBF                     CCPR1H          equ	4031	;# 
   214   000FC0                     ADCON2          equ	4032	;# 
   215   000FC1                     ADCON1          equ	4033	;# 
   216   000FC2                     ADCON0          equ	4034	;# 
   217   000FC3                     ADRES           equ	4035	;# 
   218   000FC3                     ADRESL          equ	4035	;# 
   219   000FC4                     ADRESH          equ	4036	;# 
   220   000FC5                     SSPCON2         equ	4037	;# 
   221   000FC6                     SSPCON1         equ	4038	;# 
   222   000FC7                     SSPSTAT         equ	4039	;# 
   223   000FC8                     SSPADD          equ	4040	;# 
   224   000FC9                     SSPBUF          equ	4041	;# 
   225   000FCA                     T2CON           equ	4042	;# 
   226   000FCB                     PR2             equ	4043	;# 
   227   000FCB                     MEMCON          equ	4043	;# 
   228   000FCC                     TMR2            equ	4044	;# 
   229   000FCD                     T1CON           equ	4045	;# 
   230   000FCE                     TMR1            equ	4046	;# 
   231   000FCE                     TMR1L           equ	4046	;# 
   232   000FCF                     TMR1H           equ	4047	;# 
   233   000FD0                     RCON            equ	4048	;# 
   234   000FD1                     WDTCON          equ	4049	;# 
   235   000FD2                     HLVDCON         equ	4050	;# 
   236   000FD2                     LVDCON          equ	4050	;# 
   237   000FD3                     OSCCON          equ	4051	;# 
   238   000FD5                     T0CON           equ	4053	;# 
   239   000FD6                     TMR0            equ	4054	;# 
   240   000FD6                     TMR0L           equ	4054	;# 
   241   000FD7                     TMR0H           equ	4055	;# 
   242   000FD8                     STATUS          equ	4056	;# 
   243   000FD9                     FSR2            equ	4057	;# 
   244   000FD9                     FSR2L           equ	4057	;# 
   245   000FDA                     FSR2H           equ	4058	;# 
   246   000FDB                     PLUSW2          equ	4059	;# 
   247   000FDC                     PREINC2         equ	4060	;# 
   248   000FDD                     POSTDEC2        equ	4061	;# 
   249   000FDE                     POSTINC2        equ	4062	;# 
   250   000FDF                     INDF2           equ	4063	;# 
   251   000FE0                     BSR             equ	4064	;# 
   252   000FE1                     FSR1            equ	4065	;# 
   253   000FE1                     FSR1L           equ	4065	;# 
   254   000FE2                     FSR1H           equ	4066	;# 
   255   000FE3                     PLUSW1          equ	4067	;# 
   256   000FE4                     PREINC1         equ	4068	;# 
   257   000FE5                     POSTDEC1        equ	4069	;# 
   258   000FE6                     POSTINC1        equ	4070	;# 
   259   000FE7                     INDF1           equ	4071	;# 
   260   000FE8                     WREG            equ	4072	;# 
   261   000FE9                     FSR0            equ	4073	;# 
   262   000FE9                     FSR0L           equ	4073	;# 
   263   000FEA                     FSR0H           equ	4074	;# 
   264   000FEB                     PLUSW0          equ	4075	;# 
   265   000FEC                     PREINC0         equ	4076	;# 
   266   000FED                     POSTDEC0        equ	4077	;# 
   267   000FEE                     POSTINC0        equ	4078	;# 
   268   000FEF                     INDF0           equ	4079	;# 
   269   000FF0                     INTCON3         equ	4080	;# 
   270   000FF1                     INTCON2         equ	4081	;# 
   271   000FF2                     INTCON          equ	4082	;# 
   272   000FF3                     PROD            equ	4083	;# 
   273   000FF3                     PRODL           equ	4083	;# 
   274   000FF4                     PRODH           equ	4084	;# 
   275   000FF5                     TABLAT          equ	4085	;# 
   276   000FF6                     TBLPTR          equ	4086	;# 
   277   000FF6                     TBLPTRL         equ	4086	;# 
   278   000FF7                     TBLPTRH         equ	4087	;# 
   279   000FF8                     TBLPTRU         equ	4088	;# 
   280   000FF9                     PCLAT           equ	4089	;# 
   281   000FF9                     PC              equ	4089	;# 
   282   000FF9                     PCL             equ	4089	;# 
   283   000FFA                     PCLATH          equ	4090	;# 
   284   000FFB                     PCLATU          equ	4091	;# 
   285   000FFC                     STKPTR          equ	4092	;# 
   286   000FFD                     TOS             equ	4093	;# 
   287   000FFD                     TOSL            equ	4093	;# 
   288   000FFE                     TOSH            equ	4094	;# 
   289   000FFF                     TOSU            equ	4095	;# 
   290   000F62                     SPPDATA         equ	3938	;# 
   291   000F63                     SPPCFG          equ	3939	;# 
   292   000F64                     SPPEPS          equ	3940	;# 
   293   000F65                     SPPCON          equ	3941	;# 
   294   000F66                     UFRM            equ	3942	;# 
   295   000F66                     UFRML           equ	3942	;# 
   296   000F67                     UFRMH           equ	3943	;# 
   297   000F68                     UIR             equ	3944	;# 
   298   000F69                     UIE             equ	3945	;# 
   299   000F6A                     UEIR            equ	3946	;# 
   300   000F6B                     UEIE            equ	3947	;# 
   301   000F6C                     USTAT           equ	3948	;# 
   302   000F6D                     UCON            equ	3949	;# 
   303   000F6E                     UADDR           equ	3950	;# 
   304   000F6F                     UCFG            equ	3951	;# 
   305   000F70                     UEP0            equ	3952	;# 
   306   000F71                     UEP1            equ	3953	;# 
   307   000F72                     UEP2            equ	3954	;# 
   308   000F73                     UEP3            equ	3955	;# 
   309   000F74                     UEP4            equ	3956	;# 
   310   000F75                     UEP5            equ	3957	;# 
   311   000F76                     UEP6            equ	3958	;# 
   312   000F77                     UEP7            equ	3959	;# 
   313   000F78                     UEP8            equ	3960	;# 
   314   000F79                     UEP9            equ	3961	;# 
   315   000F7A                     UEP10           equ	3962	;# 
   316   000F7B                     UEP11           equ	3963	;# 
   317   000F7C                     UEP12           equ	3964	;# 
   318   000F7D                     UEP13           equ	3965	;# 
   319   000F7E                     UEP14           equ	3966	;# 
   320   000F7F                     UEP15           equ	3967	;# 
   321   000F80                     PORTA           equ	3968	;# 
   322   000F81                     PORTB           equ	3969	;# 
   323   000F82                     PORTC           equ	3970	;# 
   324   000F83                     PORTD           equ	3971	;# 
   325   000F84                     PORTE           equ	3972	;# 
   326   000F89                     LATA            equ	3977	;# 
   327   000F8A                     LATB            equ	3978	;# 
   328   000F8B                     LATC            equ	3979	;# 
   329   000F8C                     LATD            equ	3980	;# 
   330   000F8D                     LATE            equ	3981	;# 
   331   000F92                     TRISA           equ	3986	;# 
   332   000F92                     DDRA            equ	3986	;# 
   333   000F93                     TRISB           equ	3987	;# 
   334   000F93                     DDRB            equ	3987	;# 
   335   000F94                     TRISC           equ	3988	;# 
   336   000F94                     DDRC            equ	3988	;# 
   337   000F95                     TRISD           equ	3989	;# 
   338   000F95                     DDRD            equ	3989	;# 
   339   000F96                     TRISE           equ	3990	;# 
   340   000F96                     DDRE            equ	3990	;# 
   341   000F9B                     OSCTUNE         equ	3995	;# 
   342   000F9D                     PIE1            equ	3997	;# 
   343   000F9E                     PIR1            equ	3998	;# 
   344   000F9F                     IPR1            equ	3999	;# 
   345   000FA0                     PIE2            equ	4000	;# 
   346   000FA1                     PIR2            equ	4001	;# 
   347   000FA2                     IPR2            equ	4002	;# 
   348   000FA6                     EECON1          equ	4006	;# 
   349   000FA7                     EECON2          equ	4007	;# 
   350   000FA8                     EEDATA          equ	4008	;# 
   351   000FA9                     EEADR           equ	4009	;# 
   352   000FAB                     RCSTA           equ	4011	;# 
   353   000FAB                     RCSTA1          equ	4011	;# 
   354   000FAC                     TXSTA           equ	4012	;# 
   355   000FAC                     TXSTA1          equ	4012	;# 
   356   000FAD                     TXREG           equ	4013	;# 
   357   000FAD                     TXREG1          equ	4013	;# 
   358   000FAE                     RCREG           equ	4014	;# 
   359   000FAE                     RCREG1          equ	4014	;# 
   360   000FAF                     SPBRG           equ	4015	;# 
   361   000FAF                     SPBRG1          equ	4015	;# 
   362   000FB0                     SPBRGH          equ	4016	;# 
   363   000FB1                     T3CON           equ	4017	;# 
   364   000FB2                     TMR3            equ	4018	;# 
   365   000FB2                     TMR3L           equ	4018	;# 
   366   000FB3                     TMR3H           equ	4019	;# 
   367   000FB4                     CMCON           equ	4020	;# 
   368   000FB5                     CVRCON          equ	4021	;# 
   369   000FB6                     ECCP1AS         equ	4022	;# 
   370   000FB6                     CCP1AS          equ	4022	;# 
   371   000FB7                     ECCP1DEL        equ	4023	;# 
   372   000FB7                     CCP1DEL         equ	4023	;# 
   373   000FB8                     BAUDCON         equ	4024	;# 
   374   000FB8                     BAUDCTL         equ	4024	;# 
   375   000FBA                     CCP2CON         equ	4026	;# 
   376   000FBB                     CCPR2           equ	4027	;# 
   377   000FBB                     CCPR2L          equ	4027	;# 
   378   000FBC                     CCPR2H          equ	4028	;# 
   379   000FBD                     CCP1CON         equ	4029	;# 
   380   000FBD                     ECCP1CON        equ	4029	;# 
   381   000FBE                     CCPR1           equ	4030	;# 
   382   000FBE                     CCPR1L          equ	4030	;# 
   383   000FBF                     CCPR1H          equ	4031	;# 
   384   000FC0                     ADCON2          equ	4032	;# 
   385   000FC1                     ADCON1          equ	4033	;# 
   386   000FC2                     ADCON0          equ	4034	;# 
   387   000FC3                     ADRES           equ	4035	;# 
   388   000FC3                     ADRESL          equ	4035	;# 
   389   000FC4                     ADRESH          equ	4036	;# 
   390   000FC5                     SSPCON2         equ	4037	;# 
   391   000FC6                     SSPCON1         equ	4038	;# 
   392   000FC7                     SSPSTAT         equ	4039	;# 
   393   000FC8                     SSPADD          equ	4040	;# 
   394   000FC9                     SSPBUF          equ	4041	;# 
   395   000FCA                     T2CON           equ	4042	;# 
   396   000FCB                     PR2             equ	4043	;# 
   397   000FCB                     MEMCON          equ	4043	;# 
   398   000FCC                     TMR2            equ	4044	;# 
   399   000FCD                     T1CON           equ	4045	;# 
   400   000FCE                     TMR1            equ	4046	;# 
   401   000FCE                     TMR1L           equ	4046	;# 
   402   000FCF                     TMR1H           equ	4047	;# 
   403   000FD0                     RCON            equ	4048	;# 
   404   000FD1                     WDTCON          equ	4049	;# 
   405   000FD2                     HLVDCON         equ	4050	;# 
   406   000FD2                     LVDCON          equ	4050	;# 
   407   000FD3                     OSCCON          equ	4051	;# 
   408   000FD5                     T0CON           equ	4053	;# 
   409   000FD6                     TMR0            equ	4054	;# 
   410   000FD6                     TMR0L           equ	4054	;# 
   411   000FD7                     TMR0H           equ	4055	;# 
   412   000FD8                     STATUS          equ	4056	;# 
   413   000FD9                     FSR2            equ	4057	;# 
   414   000FD9                     FSR2L           equ	4057	;# 
   415   000FDA                     FSR2H           equ	4058	;# 
   416   000FDB                     PLUSW2          equ	4059	;# 
   417   000FDC                     PREINC2         equ	4060	;# 
   418   000FDD                     POSTDEC2        equ	4061	;# 
   419   000FDE                     POSTINC2        equ	4062	;# 
   420   000FDF                     INDF2           equ	4063	;# 
   421   000FE0                     BSR             equ	4064	;# 
   422   000FE1                     FSR1            equ	4065	;# 
   423   000FE1                     FSR1L           equ	4065	;# 
   424   000FE2                     FSR1H           equ	4066	;# 
   425   000FE3                     PLUSW1          equ	4067	;# 
   426   000FE4                     PREINC1         equ	4068	;# 
   427   000FE5                     POSTDEC1        equ	4069	;# 
   428   000FE6                     POSTINC1        equ	4070	;# 
   429   000FE7                     INDF1           equ	4071	;# 
   430   000FE8                     WREG            equ	4072	;# 
   431   000FE9                     FSR0            equ	4073	;# 
   432   000FE9                     FSR0L           equ	4073	;# 
   433   000FEA                     FSR0H           equ	4074	;# 
   434   000FEB                     PLUSW0          equ	4075	;# 
   435   000FEC                     PREINC0         equ	4076	;# 
   436   000FED                     POSTDEC0        equ	4077	;# 
   437   000FEE                     POSTINC0        equ	4078	;# 
   438   000FEF                     INDF0           equ	4079	;# 
   439   000FF0                     INTCON3         equ	4080	;# 
   440   000FF1                     INTCON2         equ	4081	;# 
   441   000FF2                     INTCON          equ	4082	;# 
   442   000FF3                     PROD            equ	4083	;# 
   443   000FF3                     PRODL           equ	4083	;# 
   444   000FF4                     PRODH           equ	4084	;# 
   445   000FF5                     TABLAT          equ	4085	;# 
   446   000FF6                     TBLPTR          equ	4086	;# 
   447   000FF6                     TBLPTRL         equ	4086	;# 
   448   000FF7                     TBLPTRH         equ	4087	;# 
   449   000FF8                     TBLPTRU         equ	4088	;# 
   450   000FF9                     PCLAT           equ	4089	;# 
   451   000FF9                     PC              equ	4089	;# 
   452   000FF9                     PCL             equ	4089	;# 
   453   000FFA                     PCLATH          equ	4090	;# 
   454   000FFB                     PCLATU          equ	4091	;# 
   455   000FFC                     STKPTR          equ	4092	;# 
   456   000FFD                     TOS             equ	4093	;# 
   457   000FFD                     TOSL            equ	4093	;# 
   458   000FFE                     TOSH            equ	4094	;# 
   459   000FFF                     TOSU            equ	4095	;# 
   460   000F62                     SPPDATA         equ	3938	;# 
   461   000F63                     SPPCFG          equ	3939	;# 
   462   000F64                     SPPEPS          equ	3940	;# 
   463   000F65                     SPPCON          equ	3941	;# 
   464   000F66                     UFRM            equ	3942	;# 
   465   000F66                     UFRML           equ	3942	;# 
   466   000F67                     UFRMH           equ	3943	;# 
   467   000F68                     UIR             equ	3944	;# 
   468   000F69                     UIE             equ	3945	;# 
   469   000F6A                     UEIR            equ	3946	;# 
   470   000F6B                     UEIE            equ	3947	;# 
   471   000F6C                     USTAT           equ	3948	;# 
   472   000F6D                     UCON            equ	3949	;# 
   473   000F6E                     UADDR           equ	3950	;# 
   474   000F6F                     UCFG            equ	3951	;# 
   475   000F70                     UEP0            equ	3952	;# 
   476   000F71                     UEP1            equ	3953	;# 
   477   000F72                     UEP2            equ	3954	;# 
   478   000F73                     UEP3            equ	3955	;# 
   479   000F74                     UEP4            equ	3956	;# 
   480   000F75                     UEP5            equ	3957	;# 
   481   000F76                     UEP6            equ	3958	;# 
   482   000F77                     UEP7            equ	3959	;# 
   483   000F78                     UEP8            equ	3960	;# 
   484   000F79                     UEP9            equ	3961	;# 
   485   000F7A                     UEP10           equ	3962	;# 
   486   000F7B                     UEP11           equ	3963	;# 
   487   000F7C                     UEP12           equ	3964	;# 
   488   000F7D                     UEP13           equ	3965	;# 
   489   000F7E                     UEP14           equ	3966	;# 
   490   000F7F                     UEP15           equ	3967	;# 
   491   000F80                     PORTA           equ	3968	;# 
   492   000F81                     PORTB           equ	3969	;# 
   493   000F82                     PORTC           equ	3970	;# 
   494   000F83                     PORTD           equ	3971	;# 
   495   000F84                     PORTE           equ	3972	;# 
   496   000F89                     LATA            equ	3977	;# 
   497   000F8A                     LATB            equ	3978	;# 
   498   000F8B                     LATC            equ	3979	;# 
   499   000F8C                     LATD            equ	3980	;# 
   500   000F8D                     LATE            equ	3981	;# 
   501   000F92                     TRISA           equ	3986	;# 
   502   000F92                     DDRA            equ	3986	;# 
   503   000F93                     TRISB           equ	3987	;# 
   504   000F93                     DDRB            equ	3987	;# 
   505   000F94                     TRISC           equ	3988	;# 
   506   000F94                     DDRC            equ	3988	;# 
   507   000F95                     TRISD           equ	3989	;# 
   508   000F95                     DDRD            equ	3989	;# 
   509   000F96                     TRISE           equ	3990	;# 
   510   000F96                     DDRE            equ	3990	;# 
   511   000F9B                     OSCTUNE         equ	3995	;# 
   512   000F9D                     PIE1            equ	3997	;# 
   513   000F9E                     PIR1            equ	3998	;# 
   514   000F9F                     IPR1            equ	3999	;# 
   515   000FA0                     PIE2            equ	4000	;# 
   516   000FA1                     PIR2            equ	4001	;# 
   517   000FA2                     IPR2            equ	4002	;# 
   518   000FA6                     EECON1          equ	4006	;# 
   519   000FA7                     EECON2          equ	4007	;# 
   520   000FA8                     EEDATA          equ	4008	;# 
   521   000FA9                     EEADR           equ	4009	;# 
   522   000FAB                     RCSTA           equ	4011	;# 
   523   000FAB                     RCSTA1          equ	4011	;# 
   524   000FAC                     TXSTA           equ	4012	;# 
   525   000FAC                     TXSTA1          equ	4012	;# 
   526   000FAD                     TXREG           equ	4013	;# 
   527   000FAD                     TXREG1          equ	4013	;# 
   528   000FAE                     RCREG           equ	4014	;# 
   529   000FAE                     RCREG1          equ	4014	;# 
   530   000FAF                     SPBRG           equ	4015	;# 
   531   000FAF                     SPBRG1          equ	4015	;# 
   532   000FB0                     SPBRGH          equ	4016	;# 
   533   000FB1                     T3CON           equ	4017	;# 
   534   000FB2                     TMR3            equ	4018	;# 
   535   000FB2                     TMR3L           equ	4018	;# 
   536   000FB3                     TMR3H           equ	4019	;# 
   537   000FB4                     CMCON           equ	4020	;# 
   538   000FB5                     CVRCON          equ	4021	;# 
   539   000FB6                     ECCP1AS         equ	4022	;# 
   540   000FB6                     CCP1AS          equ	4022	;# 
   541   000FB7                     ECCP1DEL        equ	4023	;# 
   542   000FB7                     CCP1DEL         equ	4023	;# 
   543   000FB8                     BAUDCON         equ	4024	;# 
   544   000FB8                     BAUDCTL         equ	4024	;# 
   545   000FBA                     CCP2CON         equ	4026	;# 
   546   000FBB                     CCPR2           equ	4027	;# 
   547   000FBB                     CCPR2L          equ	4027	;# 
   548   000FBC                     CCPR2H          equ	4028	;# 
   549   000FBD                     CCP1CON         equ	4029	;# 
   550   000FBD                     ECCP1CON        equ	4029	;# 
   551   000FBE                     CCPR1           equ	4030	;# 
   552   000FBE                     CCPR1L          equ	4030	;# 
   553   000FBF                     CCPR1H          equ	4031	;# 
   554   000FC0                     ADCON2          equ	4032	;# 
   555   000FC1                     ADCON1          equ	4033	;# 
   556   000FC2                     ADCON0          equ	4034	;# 
   557   000FC3                     ADRES           equ	4035	;# 
   558   000FC3                     ADRESL          equ	4035	;# 
   559   000FC4                     ADRESH          equ	4036	;# 
   560   000FC5                     SSPCON2         equ	4037	;# 
   561   000FC6                     SSPCON1         equ	4038	;# 
   562   000FC7                     SSPSTAT         equ	4039	;# 
   563   000FC8                     SSPADD          equ	4040	;# 
   564   000FC9                     SSPBUF          equ	4041	;# 
   565   000FCA                     T2CON           equ	4042	;# 
   566   000FCB                     PR2             equ	4043	;# 
   567   000FCB                     MEMCON          equ	4043	;# 
   568   000FCC                     TMR2            equ	4044	;# 
   569   000FCD                     T1CON           equ	4045	;# 
   570   000FCE                     TMR1            equ	4046	;# 
   571   000FCE                     TMR1L           equ	4046	;# 
   572   000FCF                     TMR1H           equ	4047	;# 
   573   000FD0                     RCON            equ	4048	;# 
   574   000FD1                     WDTCON          equ	4049	;# 
   575   000FD2                     HLVDCON         equ	4050	;# 
   576   000FD2                     LVDCON          equ	4050	;# 
   577   000FD3                     OSCCON          equ	4051	;# 
   578   000FD5                     T0CON           equ	4053	;# 
   579   000FD6                     TMR0            equ	4054	;# 
   580   000FD6                     TMR0L           equ	4054	;# 
   581   000FD7                     TMR0H           equ	4055	;# 
   582   000FD8                     STATUS          equ	4056	;# 
   583   000FD9                     FSR2            equ	4057	;# 
   584   000FD9                     FSR2L           equ	4057	;# 
   585   000FDA                     FSR2H           equ	4058	;# 
   586   000FDB                     PLUSW2          equ	4059	;# 
   587   000FDC                     PREINC2         equ	4060	;# 
   588   000FDD                     POSTDEC2        equ	4061	;# 
   589   000FDE                     POSTINC2        equ	4062	;# 
   590   000FDF                     INDF2           equ	4063	;# 
   591   000FE0                     BSR             equ	4064	;# 
   592   000FE1                     FSR1            equ	4065	;# 
   593   000FE1                     FSR1L           equ	4065	;# 
   594   000FE2                     FSR1H           equ	4066	;# 
   595   000FE3                     PLUSW1          equ	4067	;# 
   596   000FE4                     PREINC1         equ	4068	;# 
   597   000FE5                     POSTDEC1        equ	4069	;# 
   598   000FE6                     POSTINC1        equ	4070	;# 
   599   000FE7                     INDF1           equ	4071	;# 
   600   000FE8                     WREG            equ	4072	;# 
   601   000FE9                     FSR0            equ	4073	;# 
   602   000FE9                     FSR0L           equ	4073	;# 
   603   000FEA                     FSR0H           equ	4074	;# 
   604   000FEB                     PLUSW0          equ	4075	;# 
   605   000FEC                     PREINC0         equ	4076	;# 
   606   000FED                     POSTDEC0        equ	4077	;# 
   607   000FEE                     POSTINC0        equ	4078	;# 
   608   000FEF                     INDF0           equ	4079	;# 
   609   000FF0                     INTCON3         equ	4080	;# 
   610   000FF1                     INTCON2         equ	4081	;# 
   611   000FF2                     INTCON          equ	4082	;# 
   612   000FF3                     PROD            equ	4083	;# 
   613   000FF3                     PRODL           equ	4083	;# 
   614   000FF4                     PRODH           equ	4084	;# 
   615   000FF5                     TABLAT          equ	4085	;# 
   616   000FF6                     TBLPTR          equ	4086	;# 
   617   000FF6                     TBLPTRL         equ	4086	;# 
   618   000FF7                     TBLPTRH         equ	4087	;# 
   619   000FF8                     TBLPTRU         equ	4088	;# 
   620   000FF9                     PCLAT           equ	4089	;# 
   621   000FF9                     PC              equ	4089	;# 
   622   000FF9                     PCL             equ	4089	;# 
   623   000FFA                     PCLATH          equ	4090	;# 
   624   000FFB                     PCLATU          equ	4091	;# 
   625   000FFC                     STKPTR          equ	4092	;# 
   626   000FFD                     TOS             equ	4093	;# 
   627   000FFD                     TOSL            equ	4093	;# 
   628   000FFE                     TOSH            equ	4094	;# 
   629   000FFF                     TOSU            equ	4095	;# 
   630   000F62                     SPPDATA         equ	3938	;# 
   631   000F63                     SPPCFG          equ	3939	;# 
   632   000F64                     SPPEPS          equ	3940	;# 
   633   000F65                     SPPCON          equ	3941	;# 
   634   000F66                     UFRM            equ	3942	;# 
   635   000F66                     UFRML           equ	3942	;# 
   636   000F67                     UFRMH           equ	3943	;# 
   637   000F68                     UIR             equ	3944	;# 
   638   000F69                     UIE             equ	3945	;# 
   639   000F6A                     UEIR            equ	3946	;# 
   640   000F6B                     UEIE            equ	3947	;# 
   641   000F6C                     USTAT           equ	3948	;# 
   642   000F6D                     UCON            equ	3949	;# 
   643   000F6E                     UADDR           equ	3950	;# 
   644   000F6F                     UCFG            equ	3951	;# 
   645   000F70                     UEP0            equ	3952	;# 
   646   000F71                     UEP1            equ	3953	;# 
   647   000F72                     UEP2            equ	3954	;# 
   648   000F73                     UEP3            equ	3955	;# 
   649   000F74                     UEP4            equ	3956	;# 
   650   000F75                     UEP5            equ	3957	;# 
   651   000F76                     UEP6            equ	3958	;# 
   652   000F77                     UEP7            equ	3959	;# 
   653   000F78                     UEP8            equ	3960	;# 
   654   000F79                     UEP9            equ	3961	;# 
   655   000F7A                     UEP10           equ	3962	;# 
   656   000F7B                     UEP11           equ	3963	;# 
   657   000F7C                     UEP12           equ	3964	;# 
   658   000F7D                     UEP13           equ	3965	;# 
   659   000F7E                     UEP14           equ	3966	;# 
   660   000F7F                     UEP15           equ	3967	;# 
   661   000F80                     PORTA           equ	3968	;# 
   662   000F81                     PORTB           equ	3969	;# 
   663   000F82                     PORTC           equ	3970	;# 
   664   000F83                     PORTD           equ	3971	;# 
   665   000F84                     PORTE           equ	3972	;# 
   666   000F89                     LATA            equ	3977	;# 
   667   000F8A                     LATB            equ	3978	;# 
   668   000F8B                     LATC            equ	3979	;# 
   669   000F8C                     LATD            equ	3980	;# 
   670   000F8D                     LATE            equ	3981	;# 
   671   000F92                     TRISA           equ	3986	;# 
   672   000F92                     DDRA            equ	3986	;# 
   673   000F93                     TRISB           equ	3987	;# 
   674   000F93                     DDRB            equ	3987	;# 
   675   000F94                     TRISC           equ	3988	;# 
   676   000F94                     DDRC            equ	3988	;# 
   677   000F95                     TRISD           equ	3989	;# 
   678   000F95                     DDRD            equ	3989	;# 
   679   000F96                     TRISE           equ	3990	;# 
   680   000F96                     DDRE            equ	3990	;# 
   681   000F9B                     OSCTUNE         equ	3995	;# 
   682   000F9D                     PIE1            equ	3997	;# 
   683   000F9E                     PIR1            equ	3998	;# 
   684   000F9F                     IPR1            equ	3999	;# 
   685   000FA0                     PIE2            equ	4000	;# 
   686   000FA1                     PIR2            equ	4001	;# 
   687   000FA2                     IPR2            equ	4002	;# 
   688   000FA6                     EECON1          equ	4006	;# 
   689   000FA7                     EECON2          equ	4007	;# 
   690   000FA8                     EEDATA          equ	4008	;# 
   691   000FA9                     EEADR           equ	4009	;# 
   692   000FAB                     RCSTA           equ	4011	;# 
   693   000FAB                     RCSTA1          equ	4011	;# 
   694   000FAC                     TXSTA           equ	4012	;# 
   695   000FAC                     TXSTA1          equ	4012	;# 
   696   000FAD                     TXREG           equ	4013	;# 
   697   000FAD                     TXREG1          equ	4013	;# 
   698   000FAE                     RCREG           equ	4014	;# 
   699   000FAE                     RCREG1          equ	4014	;# 
   700   000FAF                     SPBRG           equ	4015	;# 
   701   000FAF                     SPBRG1          equ	4015	;# 
   702   000FB0                     SPBRGH          equ	4016	;# 
   703   000FB1                     T3CON           equ	4017	;# 
   704   000FB2                     TMR3            equ	4018	;# 
   705   000FB2                     TMR3L           equ	4018	;# 
   706   000FB3                     TMR3H           equ	4019	;# 
   707   000FB4                     CMCON           equ	4020	;# 
   708   000FB5                     CVRCON          equ	4021	;# 
   709   000FB6                     ECCP1AS         equ	4022	;# 
   710   000FB6                     CCP1AS          equ	4022	;# 
   711   000FB7                     ECCP1DEL        equ	4023	;# 
   712   000FB7                     CCP1DEL         equ	4023	;# 
   713   000FB8                     BAUDCON         equ	4024	;# 
   714   000FB8                     BAUDCTL         equ	4024	;# 
   715   000FBA                     CCP2CON         equ	4026	;# 
   716   000FBB                     CCPR2           equ	4027	;# 
   717   000FBB                     CCPR2L          equ	4027	;# 
   718   000FBC                     CCPR2H          equ	4028	;# 
   719   000FBD                     CCP1CON         equ	4029	;# 
   720   000FBD                     ECCP1CON        equ	4029	;# 
   721   000FBE                     CCPR1           equ	4030	;# 
   722   000FBE                     CCPR1L          equ	4030	;# 
   723   000FBF                     CCPR1H          equ	4031	;# 
   724   000FC0                     ADCON2          equ	4032	;# 
   725   000FC1                     ADCON1          equ	4033	;# 
   726   000FC2                     ADCON0          equ	4034	;# 
   727   000FC3                     ADRES           equ	4035	;# 
   728   000FC3                     ADRESL          equ	4035	;# 
   729   000FC4                     ADRESH          equ	4036	;# 
   730   000FC5                     SSPCON2         equ	4037	;# 
   731   000FC6                     SSPCON1         equ	4038	;# 
   732   000FC7                     SSPSTAT         equ	4039	;# 
   733   000FC8                     SSPADD          equ	4040	;# 
   734   000FC9                     SSPBUF          equ	4041	;# 
   735   000FCA                     T2CON           equ	4042	;# 
   736   000FCB                     PR2             equ	4043	;# 
   737   000FCB                     MEMCON          equ	4043	;# 
   738   000FCC                     TMR2            equ	4044	;# 
   739   000FCD                     T1CON           equ	4045	;# 
   740   000FCE                     TMR1            equ	4046	;# 
   741   000FCE                     TMR1L           equ	4046	;# 
   742   000FCF                     TMR1H           equ	4047	;# 
   743   000FD0                     RCON            equ	4048	;# 
   744   000FD1                     WDTCON          equ	4049	;# 
   745   000FD2                     HLVDCON         equ	4050	;# 
   746   000FD2                     LVDCON          equ	4050	;# 
   747   000FD3                     OSCCON          equ	4051	;# 
   748   000FD5                     T0CON           equ	4053	;# 
   749   000FD6                     TMR0            equ	4054	;# 
   750   000FD6                     TMR0L           equ	4054	;# 
   751   000FD7                     TMR0H           equ	4055	;# 
   752   000FD8                     STATUS          equ	4056	;# 
   753   000FD9                     FSR2            equ	4057	;# 
   754   000FD9                     FSR2L           equ	4057	;# 
   755   000FDA                     FSR2H           equ	4058	;# 
   756   000FDB                     PLUSW2          equ	4059	;# 
   757   000FDC                     PREINC2         equ	4060	;# 
   758   000FDD                     POSTDEC2        equ	4061	;# 
   759   000FDE                     POSTINC2        equ	4062	;# 
   760   000FDF                     INDF2           equ	4063	;# 
   761   000FE0                     BSR             equ	4064	;# 
   762   000FE1                     FSR1            equ	4065	;# 
   763   000FE1                     FSR1L           equ	4065	;# 
   764   000FE2                     FSR1H           equ	4066	;# 
   765   000FE3                     PLUSW1          equ	4067	;# 
   766   000FE4                     PREINC1         equ	4068	;# 
   767   000FE5                     POSTDEC1        equ	4069	;# 
   768   000FE6                     POSTINC1        equ	4070	;# 
   769   000FE7                     INDF1           equ	4071	;# 
   770   000FE8                     WREG            equ	4072	;# 
   771   000FE9                     FSR0            equ	4073	;# 
   772   000FE9                     FSR0L           equ	4073	;# 
   773   000FEA                     FSR0H           equ	4074	;# 
   774   000FEB                     PLUSW0          equ	4075	;# 
   775   000FEC                     PREINC0         equ	4076	;# 
   776   000FED                     POSTDEC0        equ	4077	;# 
   777   000FEE                     POSTINC0        equ	4078	;# 
   778   000FEF                     INDF0           equ	4079	;# 
   779   000FF0                     INTCON3         equ	4080	;# 
   780   000FF1                     INTCON2         equ	4081	;# 
   781   000FF2                     INTCON          equ	4082	;# 
   782   000FF3                     PROD            equ	4083	;# 
   783   000FF3                     PRODL           equ	4083	;# 
   784   000FF4                     PRODH           equ	4084	;# 
   785   000FF5                     TABLAT          equ	4085	;# 
   786   000FF6                     TBLPTR          equ	4086	;# 
   787   000FF6                     TBLPTRL         equ	4086	;# 
   788   000FF7                     TBLPTRH         equ	4087	;# 
   789   000FF8                     TBLPTRU         equ	4088	;# 
   790   000FF9                     PCLAT           equ	4089	;# 
   791   000FF9                     PC              equ	4089	;# 
   792   000FF9                     PCL             equ	4089	;# 
   793   000FFA                     PCLATH          equ	4090	;# 
   794   000FFB                     PCLATU          equ	4091	;# 
   795   000FFC                     STKPTR          equ	4092	;# 
   796   000FFD                     TOS             equ	4093	;# 
   797   000FFD                     TOSL            equ	4093	;# 
   798   000FFE                     TOSH            equ	4094	;# 
   799   000FFF                     TOSU            equ	4095	;# 
   800   000F62                     SPPDATA         equ	3938	;# 
   801   000F63                     SPPCFG          equ	3939	;# 
   802   000F64                     SPPEPS          equ	3940	;# 
   803   000F65                     SPPCON          equ	3941	;# 
   804   000F66                     UFRM            equ	3942	;# 
   805   000F66                     UFRML           equ	3942	;# 
   806   000F67                     UFRMH           equ	3943	;# 
   807   000F68                     UIR             equ	3944	;# 
   808   000F69                     UIE             equ	3945	;# 
   809   000F6A                     UEIR            equ	3946	;# 
   810   000F6B                     UEIE            equ	3947	;# 
   811   000F6C                     USTAT           equ	3948	;# 
   812   000F6D                     UCON            equ	3949	;# 
   813   000F6E                     UADDR           equ	3950	;# 
   814   000F6F                     UCFG            equ	3951	;# 
   815   000F70                     UEP0            equ	3952	;# 
   816   000F71                     UEP1            equ	3953	;# 
   817   000F72                     UEP2            equ	3954	;# 
   818   000F73                     UEP3            equ	3955	;# 
   819   000F74                     UEP4            equ	3956	;# 
   820   000F75                     UEP5            equ	3957	;# 
   821   000F76                     UEP6            equ	3958	;# 
   822   000F77                     UEP7            equ	3959	;# 
   823   000F78                     UEP8            equ	3960	;# 
   824   000F79                     UEP9            equ	3961	;# 
   825   000F7A                     UEP10           equ	3962	;# 
   826   000F7B                     UEP11           equ	3963	;# 
   827   000F7C                     UEP12           equ	3964	;# 
   828   000F7D                     UEP13           equ	3965	;# 
   829   000F7E                     UEP14           equ	3966	;# 
   830   000F7F                     UEP15           equ	3967	;# 
   831   000F80                     PORTA           equ	3968	;# 
   832   000F81                     PORTB           equ	3969	;# 
   833   000F82                     PORTC           equ	3970	;# 
   834   000F83                     PORTD           equ	3971	;# 
   835   000F84                     PORTE           equ	3972	;# 
   836   000F89                     LATA            equ	3977	;# 
   837   000F8A                     LATB            equ	3978	;# 
   838   000F8B                     LATC            equ	3979	;# 
   839   000F8C                     LATD            equ	3980	;# 
   840   000F8D                     LATE            equ	3981	;# 
   841   000F92                     TRISA           equ	3986	;# 
   842   000F92                     DDRA            equ	3986	;# 
   843   000F93                     TRISB           equ	3987	;# 
   844   000F93                     DDRB            equ	3987	;# 
   845   000F94                     TRISC           equ	3988	;# 
   846   000F94                     DDRC            equ	3988	;# 
   847   000F95                     TRISD           equ	3989	;# 
   848   000F95                     DDRD            equ	3989	;# 
   849   000F96                     TRISE           equ	3990	;# 
   850   000F96                     DDRE            equ	3990	;# 
   851   000F9B                     OSCTUNE         equ	3995	;# 
   852   000F9D                     PIE1            equ	3997	;# 
   853   000F9E                     PIR1            equ	3998	;# 
   854   000F9F                     IPR1            equ	3999	;# 
   855   000FA0                     PIE2            equ	4000	;# 
   856   000FA1                     PIR2            equ	4001	;# 
   857   000FA2                     IPR2            equ	4002	;# 
   858   000FA6                     EECON1          equ	4006	;# 
   859   000FA7                     EECON2          equ	4007	;# 
   860   000FA8                     EEDATA          equ	4008	;# 
   861   000FA9                     EEADR           equ	4009	;# 
   862   000FAB                     RCSTA           equ	4011	;# 
   863   000FAB                     RCSTA1          equ	4011	;# 
   864   000FAC                     TXSTA           equ	4012	;# 
   865   000FAC                     TXSTA1          equ	4012	;# 
   866   000FAD                     TXREG           equ	4013	;# 
   867   000FAD                     TXREG1          equ	4013	;# 
   868   000FAE                     RCREG           equ	4014	;# 
   869   000FAE                     RCREG1          equ	4014	;# 
   870   000FAF                     SPBRG           equ	4015	;# 
   871   000FAF                     SPBRG1          equ	4015	;# 
   872   000FB0                     SPBRGH          equ	4016	;# 
   873   000FB1                     T3CON           equ	4017	;# 
   874   000FB2                     TMR3            equ	4018	;# 
   875   000FB2                     TMR3L           equ	4018	;# 
   876   000FB3                     TMR3H           equ	4019	;# 
   877   000FB4                     CMCON           equ	4020	;# 
   878   000FB5                     CVRCON          equ	4021	;# 
   879   000FB6                     ECCP1AS         equ	4022	;# 
   880   000FB6                     CCP1AS          equ	4022	;# 
   881   000FB7                     ECCP1DEL        equ	4023	;# 
   882   000FB7                     CCP1DEL         equ	4023	;# 
   883   000FB8                     BAUDCON         equ	4024	;# 
   884   000FB8                     BAUDCTL         equ	4024	;# 
   885   000FBA                     CCP2CON         equ	4026	;# 
   886   000FBB                     CCPR2           equ	4027	;# 
   887   000FBB                     CCPR2L          equ	4027	;# 
   888   000FBC                     CCPR2H          equ	4028	;# 
   889   000FBD                     CCP1CON         equ	4029	;# 
   890   000FBD                     ECCP1CON        equ	4029	;# 
   891   000FBE                     CCPR1           equ	4030	;# 
   892   000FBE                     CCPR1L          equ	4030	;# 
   893   000FBF                     CCPR1H          equ	4031	;# 
   894   000FC0                     ADCON2          equ	4032	;# 
   895   000FC1                     ADCON1          equ	4033	;# 
   896   000FC2                     ADCON0          equ	4034	;# 
   897   000FC3                     ADRES           equ	4035	;# 
   898   000FC3                     ADRESL          equ	4035	;# 
   899   000FC4                     ADRESH          equ	4036	;# 
   900   000FC5                     SSPCON2         equ	4037	;# 
   901   000FC6                     SSPCON1         equ	4038	;# 
   902   000FC7                     SSPSTAT         equ	4039	;# 
   903   000FC8                     SSPADD          equ	4040	;# 
   904   000FC9                     SSPBUF          equ	4041	;# 
   905   000FCA                     T2CON           equ	4042	;# 
   906   000FCB                     PR2             equ	4043	;# 
   907   000FCB                     MEMCON          equ	4043	;# 
   908   000FCC                     TMR2            equ	4044	;# 
   909   000FCD                     T1CON           equ	4045	;# 
   910   000FCE                     TMR1            equ	4046	;# 
   911   000FCE                     TMR1L           equ	4046	;# 
   912   000FCF                     TMR1H           equ	4047	;# 
   913   000FD0                     RCON            equ	4048	;# 
   914   000FD1                     WDTCON          equ	4049	;# 
   915   000FD2                     HLVDCON         equ	4050	;# 
   916   000FD2                     LVDCON          equ	4050	;# 
   917   000FD3                     OSCCON          equ	4051	;# 
   918   000FD5                     T0CON           equ	4053	;# 
   919   000FD6                     TMR0            equ	4054	;# 
   920   000FD6                     TMR0L           equ	4054	;# 
   921   000FD7                     TMR0H           equ	4055	;# 
   922   000FD8                     STATUS          equ	4056	;# 
   923   000FD9                     FSR2            equ	4057	;# 
   924   000FD9                     FSR2L           equ	4057	;# 
   925   000FDA                     FSR2H           equ	4058	;# 
   926   000FDB                     PLUSW2          equ	4059	;# 
   927   000FDC                     PREINC2         equ	4060	;# 
   928   000FDD                     POSTDEC2        equ	4061	;# 
   929   000FDE                     POSTINC2        equ	4062	;# 
   930   000FDF                     INDF2           equ	4063	;# 
   931   000FE0                     BSR             equ	4064	;# 
   932   000FE1                     FSR1            equ	4065	;# 
   933   000FE1                     FSR1L           equ	4065	;# 
   934   000FE2                     FSR1H           equ	4066	;# 
   935   000FE3                     PLUSW1          equ	4067	;# 
   936   000FE4                     PREINC1         equ	4068	;# 
   937   000FE5                     POSTDEC1        equ	4069	;# 
   938   000FE6                     POSTINC1        equ	4070	;# 
   939   000FE7                     INDF1           equ	4071	;# 
   940   000FE8                     WREG            equ	4072	;# 
   941   000FE9                     FSR0            equ	4073	;# 
   942   000FE9                     FSR0L           equ	4073	;# 
   943   000FEA                     FSR0H           equ	4074	;# 
   944   000FEB                     PLUSW0          equ	4075	;# 
   945   000FEC                     PREINC0         equ	4076	;# 
   946   000FED                     POSTDEC0        equ	4077	;# 
   947   000FEE                     POSTINC0        equ	4078	;# 
   948   000FEF                     INDF0           equ	4079	;# 
   949   000FF0                     INTCON3         equ	4080	;# 
   950   000FF1                     INTCON2         equ	4081	;# 
   951   000FF2                     INTCON          equ	4082	;# 
   952   000FF3                     PROD            equ	4083	;# 
   953   000FF3                     PRODL           equ	4083	;# 
   954   000FF4                     PRODH           equ	4084	;# 
   955   000FF5                     TABLAT          equ	4085	;# 
   956   000FF6                     TBLPTR          equ	4086	;# 
   957   000FF6                     TBLPTRL         equ	4086	;# 
   958   000FF7                     TBLPTRH         equ	4087	;# 
   959   000FF8                     TBLPTRU         equ	4088	;# 
   960   000FF9                     PCLAT           equ	4089	;# 
   961   000FF9                     PC              equ	4089	;# 
   962   000FF9                     PCL             equ	4089	;# 
   963   000FFA                     PCLATH          equ	4090	;# 
   964   000FFB                     PCLATU          equ	4091	;# 
   965   000FFC                     STKPTR          equ	4092	;# 
   966   000FFD                     TOS             equ	4093	;# 
   967   000FFD                     TOSL            equ	4093	;# 
   968   000FFE                     TOSH            equ	4094	;# 
   969   000FFF                     TOSU            equ	4095	;# 
   970   000F62                     SPPDATA         equ	3938	;# 
   971   000F63                     SPPCFG          equ	3939	;# 
   972   000F64                     SPPEPS          equ	3940	;# 
   973   000F65                     SPPCON          equ	3941	;# 
   974   000F66                     UFRM            equ	3942	;# 
   975   000F66                     UFRML           equ	3942	;# 
   976   000F67                     UFRMH           equ	3943	;# 
   977   000F68                     UIR             equ	3944	;# 
   978   000F69                     UIE             equ	3945	;# 
   979   000F6A                     UEIR            equ	3946	;# 
   980   000F6B                     UEIE            equ	3947	;# 
   981   000F6C                     USTAT           equ	3948	;# 
   982   000F6D                     UCON            equ	3949	;# 
   983   000F6E                     UADDR           equ	3950	;# 
   984   000F6F                     UCFG            equ	3951	;# 
   985   000F70                     UEP0            equ	3952	;# 
   986   000F71                     UEP1            equ	3953	;# 
   987   000F72                     UEP2            equ	3954	;# 
   988   000F73                     UEP3            equ	3955	;# 
   989   000F74                     UEP4            equ	3956	;# 
   990   000F75                     UEP5            equ	3957	;# 
   991   000F76                     UEP6            equ	3958	;# 
   992   000F77                     UEP7            equ	3959	;# 
   993   000F78                     UEP8            equ	3960	;# 
   994   000F79                     UEP9            equ	3961	;# 
   995   000F7A                     UEP10           equ	3962	;# 
   996   000F7B                     UEP11           equ	3963	;# 
   997   000F7C                     UEP12           equ	3964	;# 
   998   000F7D                     UEP13           equ	3965	;# 
   999   000F7E                     UEP14           equ	3966	;# 
  1000   000F7F                     UEP15           equ	3967	;# 
  1001   000F80                     PORTA           equ	3968	;# 
  1002   000F81                     PORTB           equ	3969	;# 
  1003   000F82                     PORTC           equ	3970	;# 
  1004   000F83                     PORTD           equ	3971	;# 
  1005   000F84                     PORTE           equ	3972	;# 
  1006   000F89                     LATA            equ	3977	;# 
  1007   000F8A                     LATB            equ	3978	;# 
  1008   000F8B                     LATC            equ	3979	;# 
  1009   000F8C                     LATD            equ	3980	;# 
  1010   000F8D                     LATE            equ	3981	;# 
  1011   000F92                     TRISA           equ	3986	;# 
  1012   000F92                     DDRA            equ	3986	;# 
  1013   000F93                     TRISB           equ	3987	;# 
  1014   000F93                     DDRB            equ	3987	;# 
  1015   000F94                     TRISC           equ	3988	;# 
  1016   000F94                     DDRC            equ	3988	;# 
  1017   000F95                     TRISD           equ	3989	;# 
  1018   000F95                     DDRD            equ	3989	;# 
  1019   000F96                     TRISE           equ	3990	;# 
  1020   000F96                     DDRE            equ	3990	;# 
  1021   000F9B                     OSCTUNE         equ	3995	;# 
  1022   000F9D                     PIE1            equ	3997	;# 
  1023   000F9E                     PIR1            equ	3998	;# 
  1024   000F9F                     IPR1            equ	3999	;# 
  1025   000FA0                     PIE2            equ	4000	;# 
  1026   000FA1                     PIR2            equ	4001	;# 
  1027   000FA2                     IPR2            equ	4002	;# 
  1028   000FA6                     EECON1          equ	4006	;# 
  1029   000FA7                     EECON2          equ	4007	;# 
  1030   000FA8                     EEDATA          equ	4008	;# 
  1031   000FA9                     EEADR           equ	4009	;# 
  1032   000FAB                     RCSTA           equ	4011	;# 
  1033   000FAB                     RCSTA1          equ	4011	;# 
  1034   000FAC                     TXSTA           equ	4012	;# 
  1035   000FAC                     TXSTA1          equ	4012	;# 
  1036   000FAD                     TXREG           equ	4013	;# 
  1037   000FAD                     TXREG1          equ	4013	;# 
  1038   000FAE                     RCREG           equ	4014	;# 
  1039   000FAE                     RCREG1          equ	4014	;# 
  1040   000FAF                     SPBRG           equ	4015	;# 
  1041   000FAF                     SPBRG1          equ	4015	;# 
  1042   000FB0                     SPBRGH          equ	4016	;# 
  1043   000FB1                     T3CON           equ	4017	;# 
  1044   000FB2                     TMR3            equ	4018	;# 
  1045   000FB2                     TMR3L           equ	4018	;# 
  1046   000FB3                     TMR3H           equ	4019	;# 
  1047   000FB4                     CMCON           equ	4020	;# 
  1048   000FB5                     CVRCON          equ	4021	;# 
  1049   000FB6                     ECCP1AS         equ	4022	;# 
  1050   000FB6                     CCP1AS          equ	4022	;# 
  1051   000FB7                     ECCP1DEL        equ	4023	;# 
  1052   000FB7                     CCP1DEL         equ	4023	;# 
  1053   000FB8                     BAUDCON         equ	4024	;# 
  1054   000FB8                     BAUDCTL         equ	4024	;# 
  1055   000FBA                     CCP2CON         equ	4026	;# 
  1056   000FBB                     CCPR2           equ	4027	;# 
  1057   000FBB                     CCPR2L          equ	4027	;# 
  1058   000FBC                     CCPR2H          equ	4028	;# 
  1059   000FBD                     CCP1CON         equ	4029	;# 
  1060   000FBD                     ECCP1CON        equ	4029	;# 
  1061   000FBE                     CCPR1           equ	4030	;# 
  1062   000FBE                     CCPR1L          equ	4030	;# 
  1063   000FBF                     CCPR1H          equ	4031	;# 
  1064   000FC0                     ADCON2          equ	4032	;# 
  1065   000FC1                     ADCON1          equ	4033	;# 
  1066   000FC2                     ADCON0          equ	4034	;# 
  1067   000FC3                     ADRES           equ	4035	;# 
  1068   000FC3                     ADRESL          equ	4035	;# 
  1069   000FC4                     ADRESH          equ	4036	;# 
  1070   000FC5                     SSPCON2         equ	4037	;# 
  1071   000FC6                     SSPCON1         equ	4038	;# 
  1072   000FC7                     SSPSTAT         equ	4039	;# 
  1073   000FC8                     SSPADD          equ	4040	;# 
  1074   000FC9                     SSPBUF          equ	4041	;# 
  1075   000FCA                     T2CON           equ	4042	;# 
  1076   000FCB                     PR2             equ	4043	;# 
  1077   000FCB                     MEMCON          equ	4043	;# 
  1078   000FCC                     TMR2            equ	4044	;# 
  1079   000FCD                     T1CON           equ	4045	;# 
  1080   000FCE                     TMR1            equ	4046	;# 
  1081   000FCE                     TMR1L           equ	4046	;# 
  1082   000FCF                     TMR1H           equ	4047	;# 
  1083   000FD0                     RCON            equ	4048	;# 
  1084   000FD1                     WDTCON          equ	4049	;# 
  1085   000FD2                     HLVDCON         equ	4050	;# 
  1086   000FD2                     LVDCON          equ	4050	;# 
  1087   000FD3                     OSCCON          equ	4051	;# 
  1088   000FD5                     T0CON           equ	4053	;# 
  1089   000FD6                     TMR0            equ	4054	;# 
  1090   000FD6                     TMR0L           equ	4054	;# 
  1091   000FD7                     TMR0H           equ	4055	;# 
  1092   000FD8                     STATUS          equ	4056	;# 
  1093   000FD9                     FSR2            equ	4057	;# 
  1094   000FD9                     FSR2L           equ	4057	;# 
  1095   000FDA                     FSR2H           equ	4058	;# 
  1096   000FDB                     PLUSW2          equ	4059	;# 
  1097   000FDC                     PREINC2         equ	4060	;# 
  1098   000FDD                     POSTDEC2        equ	4061	;# 
  1099   000FDE                     POSTINC2        equ	4062	;# 
  1100   000FDF                     INDF2           equ	4063	;# 
  1101   000FE0                     BSR             equ	4064	;# 
  1102   000FE1                     FSR1            equ	4065	;# 
  1103   000FE1                     FSR1L           equ	4065	;# 
  1104   000FE2                     FSR1H           equ	4066	;# 
  1105   000FE3                     PLUSW1          equ	4067	;# 
  1106   000FE4                     PREINC1         equ	4068	;# 
  1107   000FE5                     POSTDEC1        equ	4069	;# 
  1108   000FE6                     POSTINC1        equ	4070	;# 
  1109   000FE7                     INDF1           equ	4071	;# 
  1110   000FE8                     WREG            equ	4072	;# 
  1111   000FE9                     FSR0            equ	4073	;# 
  1112   000FE9                     FSR0L           equ	4073	;# 
  1113   000FEA                     FSR0H           equ	4074	;# 
  1114   000FEB                     PLUSW0          equ	4075	;# 
  1115   000FEC                     PREINC0         equ	4076	;# 
  1116   000FED                     POSTDEC0        equ	4077	;# 
  1117   000FEE                     POSTINC0        equ	4078	;# 
  1118   000FEF                     INDF0           equ	4079	;# 
  1119   000FF0                     INTCON3         equ	4080	;# 
  1120   000FF1                     INTCON2         equ	4081	;# 
  1121   000FF2                     INTCON          equ	4082	;# 
  1122   000FF3                     PROD            equ	4083	;# 
  1123   000FF3                     PRODL           equ	4083	;# 
  1124   000FF4                     PRODH           equ	4084	;# 
  1125   000FF5                     TABLAT          equ	4085	;# 
  1126   000FF6                     TBLPTR          equ	4086	;# 
  1127   000FF6                     TBLPTRL         equ	4086	;# 
  1128   000FF7                     TBLPTRH         equ	4087	;# 
  1129   000FF8                     TBLPTRU         equ	4088	;# 
  1130   000FF9                     PCLAT           equ	4089	;# 
  1131   000FF9                     PC              equ	4089	;# 
  1132   000FF9                     PCL             equ	4089	;# 
  1133   000FFA                     PCLATH          equ	4090	;# 
  1134   000FFB                     PCLATU          equ	4091	;# 
  1135   000FFC                     STKPTR          equ	4092	;# 
  1136   000FFD                     TOS             equ	4093	;# 
  1137   000FFD                     TOSL            equ	4093	;# 
  1138   000FFE                     TOSH            equ	4094	;# 
  1139   000FFF                     TOSU            equ	4095	;# 
  1140                           
  1141                           	psect	idataBANK0
  1142   00237E                     __pidataBANK0:
  1143                           	callstack 0
  1144                           
  1145                           ;initializer for _dir1
  1146   00237E  0001               	dw	1
  1147   000FD6                     _TMR0           set	4054
  1148   000FC3                     _ADRES          set	4035
  1149   000F95                     _TRISDbits      set	3989
  1150   000FD5                     _T0CONbits      set	4053
  1151   000FD5                     _T0CON          set	4053
  1152   000FF1                     _INTCON2bits    set	4081
  1153   000FD0                     _RCONbits       set	4048
  1154   000F8C                     _LATDbits       set	3980
  1155   000FF2                     _INTCONbits     set	4082
  1156   000FC2                     _ADCON0bits     set	4034
  1157   000FC0                     _ADCON2         set	4032
  1158   000FC2                     _ADCON0         set	4034
  1159   000FC9                     _SSPBUF         set	4041
  1160   000FC7                     _SSPSTATbits    set	4039
  1161   000FC6                     _SSPCON1bits    set	4038
  1162   000F92                     _TRISAbits      set	3986
  1163   000FC1                     _ADCON1         set	4033
  1164   000F89                     _LATAbits       set	3977
  1165   000F82                     _PORTCbits      set	3970
  1166   000F94                     _TRISCbits      set	3988
  1167   000FC1                     _ADCON1bits     set	4033
  1168   000F8A                     _LATBbits       set	3978
  1169   000F93                     _TRISBbits      set	3987
  1170   000F8C                     _LATD           set	3980
  1171   000F95                     _TRISD          set	3989
  1172                           
  1173                           	psect	smallconst
  1174   000800                     __psmallconst:
  1175                           	callstack 0
  1176   000800  00                 	db	0
  1177   000801                     STR_3:
  1178   000801  4D                 	db	77	;'M'
  1179   000802  55                 	db	85	;'U'
  1180   000803  45                 	db	69	;'E'
  1181   000804  56                 	db	86	;'V'
  1182   000805  45                 	db	69	;'E'
  1183   000806  20                 	db	32
  1184   000807  4C                 	db	76	;'L'
  1185   000808  49                 	db	73	;'I'
  1186   000809  42                 	db	66	;'B'
  1187   00080A  52                 	db	82	;'R'
  1188   00080B  45                 	db	69	;'E'
  1189   00080C  4D                 	db	77	;'M'
  1190   00080D  45                 	db	69	;'E'
  1191   00080E  4E                 	db	78	;'N'
  1192   00080F  54                 	db	84	;'T'
  1193   000810  45                 	db	69	;'E'
  1194   000811  00                 	db	0
  1195   000812                     STR_2:
  1196   000812  43                 	db	67	;'C'
  1197   000813  4F                 	db	79	;'O'
  1198   000814  4E                 	db	78	;'N'
  1199   000815  54                 	db	84	;'T'
  1200   000816  52                 	db	82	;'R'
  1201   000817  4F                 	db	79	;'O'
  1202   000818  4C                 	db	76	;'L'
  1203   000819  4C                 	db	76	;'L'
  1204   00081A  45                 	db	69	;'E'
  1205   00081B  52                 	db	82	;'R'
  1206   00081C  20                 	db	32
  1207   00081D  3C                 	db	60	;'<'
  1208   00081E  3C                 	db	60	;'<'
  1209   00081F  00                 	db	0
  1210   000820                     STR_1:
  1211   000820  3E                 	db	62	;'>'
  1212   000821  3E                 	db	62	;'>'
  1213   000822  20                 	db	32
  1214   000823  52                 	db	82	;'R'
  1215   000824  4F                 	db	79	;'O'
  1216   000825  42                 	db	66	;'B'
  1217   000826  4F                 	db	79	;'O'
  1218   000827  54                 	db	84	;'T'
  1219   000828  20                 	db	32
  1220   000829  41                 	db	65	;'A'
  1221   00082A  52                 	db	82	;'R'
  1222   00082B  4D                 	db	77	;'M'
  1223   00082C  00                 	db	0
  1224   00082D                     STR_5:
  1225   00082D  4D                 	db	77	;'M'
  1226   00082E  55                 	db	85	;'U'
  1227   00082F  45                 	db	69	;'E'
  1228   000830  56                 	db	86	;'V'
  1229   000831  45                 	db	69	;'E'
  1230   000832  20                 	db	32
  1231   000833  50                 	db	80	;'P'
  1232   000834  41                 	db	65	;'A'
  1233   000835  52                 	db	82	;'R'
  1234   000836  41                 	db	65	;'A'
  1235   000837  00                 	db	0
  1236   000838                     STR_7:
  1237   000838  4D                 	db	77	;'M'
  1238   000839  4F                 	db	79	;'O'
  1239   00083A  56                 	db	86	;'V'
  1240   00083B  49                 	db	73	;'I'
  1241   00083C  4D                 	db	77	;'M'
  1242   00083D  49                 	db	73	;'I'
  1243   00083E  45                 	db	69	;'E'
  1244   00083F  4E                 	db	78	;'N'
  1245   000840  54                 	db	84	;'T'
  1246   000841  4F                 	db	79	;'O'
  1247   000842  00                 	db	0
  1248   000843                     STR_8:
  1249   000843  47                 	db	71	;'G'
  1250   000844  55                 	db	85	;'U'
  1251   000845  41                 	db	65	;'A'
  1252   000846  52                 	db	82	;'R'
  1253   000847  44                 	db	68	;'D'
  1254   000848  41                 	db	65	;'A'
  1255   000849  44                 	db	68	;'D'
  1256   00084A  4F                 	db	79	;'O'
  1257   00084B  00                 	db	0
  1258   00084C                     STR_4:
  1259   00084C  45                 	db	69	;'E'
  1260   00084D  4C                 	db	76	;'L'
  1261   00084E  20                 	db	32
  1262   00084F  52                 	db	82	;'R'
  1263   000850  4F                 	db	79	;'O'
  1264   000851  42                 	db	66	;'B'
  1265   000852  4F                 	db	79	;'O'
  1266   000853  54                 	db	84	;'T'
  1267   000854  00                 	db	0
  1268   000855                     STR_6:
  1269   000855  47                 	db	71	;'G'
  1270   000856  52                 	db	82	;'R'
  1271   000857  41                 	db	65	;'A'
  1272   000858  42                 	db	66	;'B'
  1273   000859  41                 	db	65	;'A'
  1274   00085A  52                 	db	82	;'R'
  1275   00085B  00                 	db	0
  1276   00085C                     STR_9:
  1277   00085C  45                 	db	69	;'E'
  1278   00085D  52                 	db	82	;'R'
  1279   00085E  52                 	db	82	;'R'
  1280   00085F  4F                 	db	79	;'O'
  1281   000860  52                 	db	82	;'R'
  1282   000861  00                 	db	0
  1283   000862                     STR_10:
  1284   000862  4D                 	db	77	;'M'
  1285   000863  45                 	db	69	;'E'
  1286   000864  4E                 	db	78	;'N'
  1287   000865  55                 	db	85	;'U'
  1288   000866  00                 	db	0
  1289   000867  00                 	db	0	; dummy byte at the end
  1290   000002                     __activetblptr  equ	2
  1291                           
  1292                           ; #config settings
  1293                           
  1294                           	psect	cinit
  1295   0022A0                     __pcinit:
  1296                           	callstack 0
  1297   0022A0                     start_initialization:
  1298                           	callstack 0
  1299   0022A0                     __initialization:
  1300                           	callstack 0
  1301                           
  1302                           ; Initialize objects allocated to BANK0 (2 bytes)
  1303                           ; load TBLPTR registers with __pidataBANK0
  1304   0022A0  0E7E               	movlw	low __pidataBANK0
  1305   0022A2  6EF6               	movwf	tblptrl,c
  1306   0022A4  0E23               	movlw	high __pidataBANK0
  1307   0022A6  6EF7               	movwf	tblptrh,c
  1308   0022A8  0E00               	movlw	low (__pidataBANK0 shr (0+16))
  1309   0022AA  6EF8               	movwf	tblptru,c
  1310   0022AC  0009               	tblrd		*+	;fetch initializer
  1311   0022AE  CFF5 F0E8          	movff	tablat,__pdataBANK0
  1312   0022B2  0009               	tblrd		*+	;fetch initializer
  1313   0022B4  CFF5 F0E9          	movff	tablat,__pdataBANK0+1
  1314                           
  1315                           ; Clear objects allocated to BANK0 (108 bytes)
  1316   0022B8  EE00  F060         	lfsr	0,__pbssBANK0
  1317   0022BC  0E6C               	movlw	108
  1318   0022BE                     clear_0:
  1319   0022BE  6AEE               	clrf	postinc0,c
  1320   0022C0  06E8               	decf	wreg,f,c
  1321   0022C2  E1FD               	bnz	clear_0
  1322                           
  1323                           ; Clear objects allocated to COMRAM (1 bytes)
  1324   0022C4  6A5E               	clrf	__pbssCOMRAM& (0+255),c
  1325   0022C6                     end_of_initialization:
  1326                           	callstack 0
  1327   0022C6                     __end_of__initialization:
  1328                           	callstack 0
  1329   0022C6  905F               	bcf	int$flags,0,c	;clear compiler interrupt flag (level 1)
  1330   0022C8  925F               	bcf	int$flags,1,c	;clear compiler interrupt flag (level 2)
  1331   0022CA  0E00               	movlw	low (__Lmediumconst shr (0+16))
  1332   0022CC  6EF8               	movwf	tblptru,c
  1333   0022CE  0100               	movlb	0
  1334   0022D0  EF26  F00C         	goto	_main	;jump to C main() function
  1335                           
  1336                           	psect	bssCOMRAM
  1337   00005E                     __pbssCOMRAM:
  1338                           	callstack 0
  1339   00005E                     _flags:
  1340                           	callstack 0
  1341   00005E                     	ds	1
  1342                           
  1343                           	psect	bssBANK0
  1344   000060                     __pbssBANK0:
  1345                           	callstack 0
  1346   000060                     	ds	32
  1347   000080                     _pwm_value:
  1348                           	callstack 0
  1349   000080                     	ds	20
  1350   000094                     _control_data:
  1351                           	callstack 0
  1352   000094                     	ds	14
  1353   0000A2                     _width:
  1354                           	callstack 0
  1355   0000A2                     	ds	2
  1356   0000A4                     _prec:
  1357                           	callstack 0
  1358   0000A4                     	ds	2
  1359   0000A6                     _contador:
  1360                           	callstack 0
  1361   0000A6                     	ds	2
  1362   0000A8                     _counter:
  1363                           	callstack 0
  1364   0000A8                     	ds	2
  1365   0000AA                     _d4:
  1366                           	callstack 0
  1367   0000AA                     	ds	2
  1368   0000AC                     _dof4:
  1369                           	callstack 0
  1370   0000AC                     	ds	2
  1371   0000AE                     _d3:
  1372                           	callstack 0
  1373   0000AE                     	ds	2
  1374   0000B0                     _dof3:
  1375                           	callstack 0
  1376   0000B0                     	ds	2
  1377   0000B2                     _d2:
  1378                           	callstack 0
  1379   0000B2                     	ds	2
  1380   0000B4                     _dof2:
  1381                           	callstack 0
  1382   0000B4                     	ds	2
  1383   0000B6                     _d1:
  1384                           	callstack 0
  1385   0000B6                     	ds	2
  1386   0000B8                     _dof1:
  1387                           	callstack 0
  1388   0000B8                     	ds	2
  1389   0000BA                     _data:
  1390                           	callstack 0
  1391   0000BA                     	ds	2
  1392   0000BC                     _DATA_LCD:
  1393                           	callstack 0
  1394   0000BC                     	ds	16
  1395                           
  1396                           	psect	dataBANK0
  1397   0000E8                     __pdataBANK0:
  1398                           	callstack 0
  1399   0000E8                     _dir1:
  1400                           	callstack 0
  1401   0000E8                     	ds	2
  1402                           
  1403                           	psect	cstackBANK0
  1404   0000CC                     __pcstackBANK0:
  1405                           	callstack 0
  1406   0000CC                     ?_mapping:
  1407                           	callstack 0
  1408   0000CC                     mapping@min_in:
  1409                           	callstack 0
  1410                           
  1411                           ; 4 bytes @ 0x0
  1412   0000CC                     	ds	4
  1413   0000D0                     mapping@max_in:
  1414                           	callstack 0
  1415                           
  1416                           ; 4 bytes @ 0x4
  1417   0000D0                     	ds	4
  1418   0000D4                     mapping@min_out:
  1419                           	callstack 0
  1420                           
  1421                           ; 4 bytes @ 0x8
  1422   0000D4                     	ds	4
  1423   0000D8                     mapping@max_out:
  1424                           	callstack 0
  1425                           
  1426                           ; 4 bytes @ 0xC
  1427   0000D8                     	ds	4
  1428   0000DC                     mapping@read:
  1429                           	callstack 0
  1430                           
  1431                           ; 2 bytes @ 0x10
  1432   0000DC                     	ds	2
  1433   0000DE                     mapping@b:
  1434                           	callstack 0
  1435                           
  1436                           ; 4 bytes @ 0x12
  1437   0000DE                     	ds	4
  1438   0000E2                     mapping@y:
  1439                           	callstack 0
  1440                           
  1441                           ; 2 bytes @ 0x16
  1442   0000E2                     	ds	2
  1443   0000E4                     mapping@m:
  1444                           	callstack 0
  1445                           
  1446                           ; 4 bytes @ 0x18
  1447   0000E4                     	ds	4
  1448                           
  1449                           	psect	cstackCOMRAM
  1450   000001                     __pcstackCOMRAM:
  1451                           	callstack 0
  1452   000001                     ?_read_ADC:
  1453                           	callstack 0
  1454   000001                     ?___xxtofl:
  1455                           	callstack 0
  1456   000001                     writeChar_LCD@dato_LCD:
  1457                           	callstack 0
  1458   000001                     set_Cursor_LCD@y:
  1459                           	callstack 0
  1460   000001                     SPI_Init_Master@modo:
  1461                           	callstack 0
  1462   000001                     SPI_Tx@dato:
  1463                           	callstack 0
  1464   000001                     init_ADC@Puertos_ADC:
  1465                           	callstack 0
  1466   000001                     fputc@c:
  1467                           	callstack 0
  1468   000001                     ___xxtofl@val:
  1469                           	callstack 0
  1470   000001                     ??_clear_LCD:
  1471   000001                     
  1472                           ; 1 bytes @ 0x0
  1473   000001                     	ds	1
  1474   000002                     writeString_LCD@dato_LCD:
  1475                           	callstack 0
  1476   000002                     SPI_Init_Master@smp:
  1477                           	callstack 0
  1478   000002                     ??_set_Cursor_LCD:
  1479                           
  1480                           ; 1 bytes @ 0x1
  1481   000002                     	ds	1
  1482   000003                     set_Cursor_LCD@x:
  1483                           	callstack 0
  1484   000003                     SPI_Init_Master@reloj:
  1485                           	callstack 0
  1486   000003                     fputc@fp:
  1487                           	callstack 0
  1488   000003                     writeString_LCD@i:
  1489                           	callstack 0
  1490   000003                     ??_read_ADC:
  1491   000003                     
  1492                           ; 1 bytes @ 0x2
  1493   000003                     	ds	1
  1494   000004                     read_ADC@canal:
  1495                           	callstack 0
  1496   000004                     ??_fputc:
  1497   000004                     ??_init_LCD:
  1498                           
  1499                           ; 1 bytes @ 0x3
  1500   000004                     	ds	1
  1501   000005                     ??___xxtofl:
  1502                           
  1503                           ; 1 bytes @ 0x4
  1504   000005                     	ds	4
  1505   000009                     ___xxtofl@sign:
  1506                           	callstack 0
  1507   000009                     vfpfcnvrt@fp:
  1508                           	callstack 0
  1509                           
  1510                           ; 1 bytes @ 0x8
  1511   000009                     	ds	1
  1512   00000A                     ___xxtofl@exp:
  1513                           	callstack 0
  1514   00000A                     vfpfcnvrt@fmt:
  1515                           	callstack 0
  1516                           
  1517                           ; 1 bytes @ 0x9
  1518   00000A                     	ds	1
  1519   00000B                     vfpfcnvrt@ap:
  1520                           	callstack 0
  1521   00000B                     ___xxtofl@arg:
  1522                           	callstack 0
  1523                           
  1524                           ; 4 bytes @ 0xA
  1525   00000B                     	ds	1
  1526   00000C                     ?_vfprintf:
  1527                           	callstack 0
  1528   00000C                     vfprintf@fp:
  1529                           	callstack 0
  1530   00000C                     
  1531                           ; 1 bytes @ 0xB
  1532   00000C                     	ds	1
  1533   00000D                     vfprintf@fmt:
  1534                           	callstack 0
  1535                           
  1536                           ; 1 bytes @ 0xC
  1537   00000D                     	ds	1
  1538   00000E                     vfprintf@ap:
  1539                           	callstack 0
  1540                           
  1541                           ; 1 bytes @ 0xD
  1542   00000E                     	ds	1
  1543   00000F                     ?___flmul:
  1544                           	callstack 0
  1545   00000F                     vfprintf@cfmt:
  1546                           	callstack 0
  1547   00000F                     ___flmul@b:
  1548                           	callstack 0
  1549   00000F                     
  1550                           ; 1 bytes @ 0xE
  1551   00000F                     	ds	1
  1552   000010                     ?_sprintf:
  1553                           	callstack 0
  1554   000010                     sprintf@s:
  1555                           	callstack 0
  1556                           
  1557                           ; 1 bytes @ 0xF
  1558   000010                     	ds	1
  1559   000011                     sprintf@fmt:
  1560                           	callstack 0
  1561                           
  1562                           ; 1 bytes @ 0x10
  1563   000011                     	ds	1
  1564   000012                     sprintf@ap:
  1565                           	callstack 0
  1566   000012                     
  1567                           ; 1 bytes @ 0x11
  1568   000012                     	ds	1
  1569   000013                     ___flmul@a:
  1570                           	callstack 0
  1571   000013                     sprintf@f:
  1572                           	callstack 0
  1573                           
  1574                           ; 11 bytes @ 0x12
  1575   000013                     	ds	4
  1576   000017                     ??___flmul:
  1577                           
  1578                           ; 1 bytes @ 0x16
  1579   000017                     	ds	4
  1580   00001B                     ___flmul@sign:
  1581                           	callstack 0
  1582                           
  1583                           ; 1 bytes @ 0x1A
  1584   00001B                     	ds	1
  1585   00001C                     ___flmul@grs:
  1586                           	callstack 0
  1587                           
  1588                           ; 4 bytes @ 0x1B
  1589   00001C                     	ds	4
  1590   000020                     ___flmul@aexp:
  1591                           	callstack 0
  1592                           
  1593                           ; 1 bytes @ 0x1F
  1594   000020                     	ds	1
  1595   000021                     ___flmul@bexp:
  1596                           	callstack 0
  1597                           
  1598                           ; 1 bytes @ 0x20
  1599   000021                     	ds	1
  1600   000022                     ___flmul@prod:
  1601                           	callstack 0
  1602                           
  1603                           ; 4 bytes @ 0x21
  1604   000022                     	ds	4
  1605   000026                     ___flmul@temp:
  1606                           	callstack 0
  1607                           
  1608                           ; 2 bytes @ 0x25
  1609   000026                     	ds	2
  1610   000028                     ?___fladd:
  1611                           	callstack 0
  1612   000028                     ___fladd@b:
  1613                           	callstack 0
  1614                           
  1615                           ; 4 bytes @ 0x27
  1616   000028                     	ds	4
  1617   00002C                     ___fladd@a:
  1618                           	callstack 0
  1619                           
  1620                           ; 4 bytes @ 0x2B
  1621   00002C                     	ds	4
  1622   000030                     ??___fladd:
  1623                           
  1624                           ; 1 bytes @ 0x2F
  1625   000030                     	ds	4
  1626   000034                     ___fladd@signs:
  1627                           	callstack 0
  1628                           
  1629                           ; 1 bytes @ 0x33
  1630   000034                     	ds	1
  1631   000035                     ___fladd@aexp:
  1632                           	callstack 0
  1633                           
  1634                           ; 1 bytes @ 0x34
  1635   000035                     	ds	1
  1636   000036                     ___fladd@bexp:
  1637                           	callstack 0
  1638                           
  1639                           ; 1 bytes @ 0x35
  1640   000036                     	ds	1
  1641   000037                     ___fladd@grs:
  1642                           	callstack 0
  1643                           
  1644                           ; 1 bytes @ 0x36
  1645   000037                     	ds	1
  1646   000038                     ?___flsub:
  1647                           	callstack 0
  1648   000038                     ?___fltol:
  1649                           	callstack 0
  1650   000038                     ___fltol@f1:
  1651                           	callstack 0
  1652   000038                     ___flsub@b:
  1653                           	callstack 0
  1654                           
  1655                           ; 4 bytes @ 0x37
  1656   000038                     	ds	4
  1657   00003C                     ___flsub@a:
  1658                           	callstack 0
  1659   00003C                     ??___fltol:
  1660                           
  1661                           ; 1 bytes @ 0x3B
  1662   00003C                     	ds	4
  1663   000040                     ?___fldiv:
  1664                           	callstack 0
  1665   000040                     ___fltol@sign1:
  1666                           	callstack 0
  1667   000040                     ___fldiv@b:
  1668                           	callstack 0
  1669   000040                     
  1670                           ; 1 bytes @ 0x3F
  1671   000040                     	ds	1
  1672   000041                     ___fltol@exp1:
  1673                           	callstack 0
  1674                           
  1675                           ; 1 bytes @ 0x40
  1676   000041                     	ds	3
  1677   000044                     ___fldiv@a:
  1678                           	callstack 0
  1679                           
  1680                           ; 4 bytes @ 0x43
  1681   000044                     	ds	4
  1682   000048                     ??___fldiv:
  1683                           
  1684                           ; 1 bytes @ 0x47
  1685   000048                     	ds	4
  1686   00004C                     ___fldiv@rem:
  1687                           	callstack 0
  1688                           
  1689                           ; 4 bytes @ 0x4B
  1690   00004C                     	ds	4
  1691   000050                     ___fldiv@sign:
  1692                           	callstack 0
  1693                           
  1694                           ; 1 bytes @ 0x4F
  1695   000050                     	ds	1
  1696   000051                     ___fldiv@new_exp:
  1697                           	callstack 0
  1698                           
  1699                           ; 2 bytes @ 0x50
  1700   000051                     	ds	2
  1701   000053                     ___fldiv@grs:
  1702                           	callstack 0
  1703                           
  1704                           ; 4 bytes @ 0x52
  1705   000053                     	ds	4
  1706   000057                     ___fldiv@bexp:
  1707                           	callstack 0
  1708                           
  1709                           ; 1 bytes @ 0x56
  1710   000057                     	ds	1
  1711   000058                     ___fldiv@aexp:
  1712                           	callstack 0
  1713                           
  1714                           ; 1 bytes @ 0x57
  1715   000058                     	ds	1
  1716   000059                     ??_freeMov:
  1717   000059                     
  1718                           ; 1 bytes @ 0x58
  1719   000059                     	ds	1
  1720   00005A                     freeMov@flag:
  1721                           	callstack 0
  1722                           
  1723                           ; 2 bytes @ 0x59
  1724   00005A                     	ds	2
  1725   00005C                     ??_main:
  1726                           
  1727                           ; 1 bytes @ 0x5B
  1728   00005C                     	ds	2
  1729                           
  1730 ;;
  1731 ;;Main: autosize = 0, tempsize = 2, incstack = 0, save=0
  1732 ;;
  1733 ;; *************** function _main *****************
  1734 ;; Defined at:
  1735 ;;		line 49 in file "tx_main.c"
  1736 ;; Parameters:    Size  Location     Type
  1737 ;;		None
  1738 ;; Auto vars:     Size  Location     Type
  1739 ;;		None
  1740 ;; Return value:  Size  Location     Type
  1741 ;;                  1    wreg      void 
  1742 ;; Registers used:
  1743 ;;		wreg, fsr1l, fsr1h, fsr2l, fsr2h, status,2, status,0, tblptrl, tblptrh, tblptru, prodl, prodh, cstack
  1744 ;; Tracked objects:
  1745 ;;		On entry : 0/0
  1746 ;;		On exit  : 0/0
  1747 ;;		Unchanged: 0/0
  1748 ;; Data sizes:     COMRAM   BANK0   BANK1   BANK2   BANK3   BANK4   BANK5   BANK6   BANK7
  1749 ;;      Params:         0       0       0       0       0       0       0       0       0
  1750 ;;      Locals:         0       0       0       0       0       0       0       0       0
  1751 ;;      Temps:          2       0       0       0       0       0       0       0       0
  1752 ;;      Totals:         2       0       0       0       0       0       0       0       0
  1753 ;;Total ram usage:        2 bytes
  1754 ;; Hardware stack levels required when called: 6
  1755 ;; This function calls:
  1756 ;;		_PWM_Init
  1757 ;;		_PWM_Init_Ports
  1758 ;;		_SPI_Init_Master
  1759 ;;		_clear_LCD
  1760 ;;		_freeMov
  1761 ;;		_init_ADC
  1762 ;;		_init_LCD
  1763 ;;		_set_Cursor_LCD
  1764 ;;		_sprintf
  1765 ;;		_writeString_LCD
  1766 ;; This function is called by:
  1767 ;;		Startup code after reset
  1768 ;; This function uses a non-reentrant model
  1769 ;;
  1770                           
  1771                           	psect	text0
  1772   00184C                     __ptext0:
  1773                           	callstack 0
  1774   00184C                     _main:
  1775                           	callstack 25
  1776   00184C                     
  1777                           ;tx_main.c: 52:     ADCON1bits.PCFG = 0x0B;
  1778   00184C  50C1               	movf	193,w,c	;volatile
  1779   00184E  0BF0               	andlw	-16
  1780   001850  090B               	iorlw	11
  1781   001852  6EC1               	movwf	193,c	;volatile
  1782   001854                     
  1783                           ;tx_main.c: 53:     init_LCD();
  1784   001854  EC1C  F010         	call	_init_LCD	;wreg free
  1785   001858                     
  1786                           ;tx_main.c: 54:     init_ADC(0X0B);
  1787   001858  0E0B               	movlw	11
  1788   00185A  ECAD  F011         	call	_init_ADC
  1789   00185E                     
  1790                           ;tx_main.c: 55:     init_LCD();
  1791   00185E  EC1C  F010         	call	_init_LCD	;wreg free
  1792   001862                     
  1793                           ;tx_main.c: 56:     PWM_Init();
  1794   001862  EC84  F011         	call	_PWM_Init	;wreg free
  1795   001866                     
  1796                           ;tx_main.c: 57:     PWM_Init_Ports();
  1797   001866  ECB4  F011         	call	_PWM_Init_Ports	;wreg free
  1798   00186A                     
  1799                           ;tx_main.c: 58:     TRISBbits.RB1 = 0;
  1800   00186A  9293               	bcf	147,1,c	;volatile
  1801   00186C                     
  1802                           ;tx_main.c: 64:     TRISCbits.RC0 = 1;
  1803   00186C  8094               	bsf	148,0,c	;volatile
  1804   00186E                     
  1805                           ;tx_main.c: 68:         sprintf(DATA_LCD,">> ROBOT ARM");
  1806   00186E  0EBC               	movlw	low _DATA_LCD
  1807   001870  6E10               	movwf	sprintf@s^0,c
  1808   001872  0E20               	movlw	low STR_1
  1809   001874  6E11               	movwf	sprintf@fmt^0,c
  1810   001876  EC6A  F011         	call	_sprintf	;wreg free
  1811   00187A                     
  1812                           ;tx_main.c: 69:         set_Cursor_LCD(1,2);
  1813   00187A  0E02               	movlw	2
  1814   00187C  6E01               	movwf	set_Cursor_LCD@y^0,c
  1815   00187E  0E01               	movlw	1
  1816   001880  EC58  F010         	call	_set_Cursor_LCD
  1817   001884                     
  1818                           ;tx_main.c: 70:         writeString_LCD(DATA_LCD);
  1819   001884  0EBC               	movlw	low _DATA_LCD
  1820   001886  6E02               	movwf	writeString_LCD@dato_LCD^0,c
  1821   001888  EC34  F011         	call	_writeString_LCD	;wreg free
  1822   00188C                     
  1823                           ;tx_main.c: 71:         sprintf(DATA_LCD,"CONTROLLER <<");
  1824   00188C  0EBC               	movlw	low _DATA_LCD
  1825   00188E  6E10               	movwf	sprintf@s^0,c
  1826   001890  0E12               	movlw	low STR_2
  1827   001892  6E11               	movwf	sprintf@fmt^0,c
  1828   001894  EC6A  F011         	call	_sprintf	;wreg free
  1829   001898                     
  1830                           ;tx_main.c: 72:         set_Cursor_LCD(2,1);
  1831   001898  0E01               	movlw	1
  1832   00189A  6E01               	movwf	set_Cursor_LCD@y^0,c
  1833   00189C  0E02               	movlw	2
  1834   00189E  EC58  F010         	call	_set_Cursor_LCD
  1835   0018A2                     
  1836                           ;tx_main.c: 73:         writeString_LCD(DATA_LCD);
  1837   0018A2  0EBC               	movlw	low _DATA_LCD
  1838   0018A4  6E02               	movwf	writeString_LCD@dato_LCD^0,c
  1839   0018A6  EC34  F011         	call	_writeString_LCD	;wreg free
  1840   0018AA                     
  1841                           ;tx_main.c: 74:         _delay((unsigned long)((1000)*(48000000UL/4000.0)));
  1842   0018AA  0E3D               	movlw	61
  1843   0018AC  6E5D               	movwf	(??_main+1)^0,c
  1844   0018AE  0EE1               	movlw	225
  1845   0018B0  6E5C               	movwf	??_main^0,c
  1846   0018B2  0E40               	movlw	64
  1847   0018B4                     u2717:
  1848   0018B4  2EE8               	decfsz	wreg,f,c
  1849   0018B6  D7FE               	bra	u2717
  1850   0018B8  2E5C               	decfsz	??_main^0,f,c
  1851   0018BA  D7FC               	bra	u2717
  1852   0018BC  2E5D               	decfsz	(??_main+1)^0,f,c
  1853   0018BE  D7FA               	bra	u2717
  1854   0018C0                     
  1855                           ;tx_main.c: 75:         clear_LCD();
  1856   0018C0  EC95  F011         	call	_clear_LCD	;wreg free
  1857   0018C4                     
  1858                           ;tx_main.c: 78:     SPI_Init_Master(0, '1', 0);
  1859   0018C4  0E31               	movlw	49
  1860   0018C6  6E01               	movwf	SPI_Init_Master@modo^0,c
  1861   0018C8  0E00               	movlw	0
  1862   0018CA  6E02               	movwf	SPI_Init_Master@smp^0,c
  1863   0018CC  0E00               	movlw	0
  1864   0018CE  ECD7  F00F         	call	_SPI_Init_Master
  1865   0018D2                     
  1866                           ;tx_main.c: 79:     _delay((unsigned long)((100)*(48000000UL/4000.0)));
  1867   0018D2  0E07               	movlw	7
  1868   0018D4  6E5D               	movwf	(??_main+1)^0,c
  1869   0018D6  0E17               	movlw	23
  1870   0018D8  6E5C               	movwf	??_main^0,c
  1871   0018DA  0E6A               	movlw	106
  1872   0018DC                     u2727:
  1873   0018DC  2EE8               	decfsz	wreg,f,c
  1874   0018DE  D7FE               	bra	u2727
  1875   0018E0  2E5C               	decfsz	??_main^0,f,c
  1876   0018E2  D7FC               	bra	u2727
  1877   0018E4  2E5D               	decfsz	(??_main+1)^0,f,c
  1878   0018E6  D7FA               	bra	u2727
  1879   0018E8  D000               	nop2	
  1880   0018EA  EF07  F00D         	goto	l2950
  1881   0018EE                     l2902:
  1882                           
  1883                           ;tx_main.c: 99:                 sprintf(DATA_LCD,"MUEVE LIBREMENTE");
  1884   0018EE  0EBC               	movlw	low _DATA_LCD
  1885   0018F0  6E10               	movwf	sprintf@s^0,c
  1886   0018F2  0E01               	movlw	low STR_3
  1887   0018F4  6E11               	movwf	sprintf@fmt^0,c
  1888   0018F6  EC6A  F011         	call	_sprintf	;wreg free
  1889   0018FA                     
  1890                           ;tx_main.c: 100:                 set_Cursor_LCD(1,1);
  1891   0018FA  0E01               	movlw	1
  1892   0018FC  6E01               	movwf	set_Cursor_LCD@y^0,c
  1893   0018FE  0E01               	movlw	1
  1894   001900  EC58  F010         	call	_set_Cursor_LCD
  1895   001904                     
  1896                           ;tx_main.c: 101:                 writeString_LCD(DATA_LCD);
  1897   001904  0EBC               	movlw	low _DATA_LCD
  1898   001906  6E02               	movwf	writeString_LCD@dato_LCD^0,c
  1899   001908  EC34  F011         	call	_writeString_LCD	;wreg free
  1900   00190C                     
  1901                           ;tx_main.c: 102:                 sprintf(DATA_LCD,"EL ROBOT");
  1902   00190C  0EBC               	movlw	low _DATA_LCD
  1903   00190E  6E10               	movwf	sprintf@s^0,c
  1904   001910  0E4C               	movlw	low STR_4
  1905   001912  6E11               	movwf	sprintf@fmt^0,c
  1906   001914  EC6A  F011         	call	_sprintf	;wreg free
  1907   001918                     
  1908                           ;tx_main.c: 103:                 set_Cursor_LCD(2,4);
  1909   001918  0E04               	movlw	4
  1910   00191A  6E01               	movwf	set_Cursor_LCD@y^0,c
  1911   00191C  0E02               	movlw	2
  1912   00191E  EC58  F010         	call	_set_Cursor_LCD
  1913                           
  1914                           ;tx_main.c: 104:                 writeString_LCD(DATA_LCD);
  1915   001922  0EBC               	movlw	low _DATA_LCD
  1916   001924  6E02               	movwf	writeString_LCD@dato_LCD^0,c
  1917   001926  EC34  F011         	call	_writeString_LCD	;wreg free
  1918   00192A                     
  1919                           ;tx_main.c: 105:                 if(PORTCbits.RC0 == 1){
  1920   00192A  A082               	btfss	130,0,c	;volatile
  1921   00192C  EF9A  F00C         	goto	u2641
  1922   001930  EF9C  F00C         	goto	u2640
  1923   001934                     u2641:
  1924   001934  EF21  F00D         	goto	l2952
  1925   001938                     u2640:
  1926   001938                     l108:
  1927   001938  B082               	btfsc	130,0,c	;volatile
  1928   00193A  EFA1  F00C         	goto	u2651
  1929   00193E  EFA3  F00C         	goto	u2650
  1930   001942                     u2651:
  1931   001942  EF9C  F00C         	goto	l108
  1932   001946                     u2650:
  1933   001946                     
  1934                           ;tx_main.c: 107:                     freeMov();
  1935   001946  EC6A  F00A         	call	_freeMov	;wreg free
  1936   00194A  EF21  F00D         	goto	l2952
  1937   00194E                     l2918:
  1938                           
  1939                           ;tx_main.c: 111:                 sprintf(DATA_LCD,"MUEVE PARA");
  1940   00194E  0EBC               	movlw	low _DATA_LCD
  1941   001950  6E10               	movwf	sprintf@s^0,c
  1942   001952  0E2D               	movlw	low STR_5
  1943   001954  6E11               	movwf	sprintf@fmt^0,c
  1944   001956  EC6A  F011         	call	_sprintf	;wreg free
  1945   00195A                     
  1946                           ;tx_main.c: 112:                 set_Cursor_LCD(1,3);
  1947   00195A  0E03               	movlw	3
  1948   00195C  6E01               	movwf	set_Cursor_LCD@y^0,c
  1949   00195E  0E01               	movlw	1
  1950   001960  EC58  F010         	call	_set_Cursor_LCD
  1951   001964                     
  1952                           ;tx_main.c: 113:                 writeString_LCD(DATA_LCD);
  1953   001964  0EBC               	movlw	low _DATA_LCD
  1954   001966  6E02               	movwf	writeString_LCD@dato_LCD^0,c
  1955   001968  EC34  F011         	call	_writeString_LCD	;wreg free
  1956   00196C                     
  1957                           ;tx_main.c: 114:                 sprintf(DATA_LCD,"GRABAR");
  1958   00196C  0EBC               	movlw	low _DATA_LCD
  1959   00196E  6E10               	movwf	sprintf@s^0,c
  1960   001970  0E55               	movlw	low STR_6
  1961   001972  6E11               	movwf	sprintf@fmt^0,c
  1962   001974  EC6A  F011         	call	_sprintf	;wreg free
  1963   001978                     
  1964                           ;tx_main.c: 115:                 set_Cursor_LCD(2,5);
  1965   001978  0E05               	movlw	5
  1966   00197A  6E01               	movwf	set_Cursor_LCD@y^0,c
  1967   00197C  0E02               	movlw	2
  1968   00197E  EC58  F010         	call	_set_Cursor_LCD
  1969                           
  1970                           ;tx_main.c: 116:                 writeString_LCD(DATA_LCD);
  1971   001982  0EBC               	movlw	low _DATA_LCD
  1972   001984  6E02               	movwf	writeString_LCD@dato_LCD^0,c
  1973   001986  EC34  F011         	call	_writeString_LCD	;wreg free
  1974                           
  1975                           ;tx_main.c: 117:                 break;
  1976   00198A  EF21  F00D         	goto	l2952
  1977   00198E                     l2928:
  1978                           
  1979                           ;tx_main.c: 119:                 sprintf(DATA_LCD,"MOVIMIENTO");
  1980   00198E  0EBC               	movlw	low _DATA_LCD
  1981   001990  6E10               	movwf	sprintf@s^0,c
  1982   001992  0E38               	movlw	low STR_7
  1983   001994  6E11               	movwf	sprintf@fmt^0,c
  1984   001996  EC6A  F011         	call	_sprintf	;wreg free
  1985   00199A                     
  1986                           ;tx_main.c: 120:                 set_Cursor_LCD(1,3);
  1987   00199A  0E03               	movlw	3
  1988   00199C  6E01               	movwf	set_Cursor_LCD@y^0,c
  1989   00199E  0E01               	movlw	1
  1990   0019A0  EC58  F010         	call	_set_Cursor_LCD
  1991   0019A4                     
  1992                           ;tx_main.c: 121:                 writeString_LCD(DATA_LCD);
  1993   0019A4  0EBC               	movlw	low _DATA_LCD
  1994   0019A6  6E02               	movwf	writeString_LCD@dato_LCD^0,c
  1995   0019A8  EC34  F011         	call	_writeString_LCD	;wreg free
  1996   0019AC                     
  1997                           ;tx_main.c: 122:                 sprintf(DATA_LCD,"GUARDADO");
  1998   0019AC  0EBC               	movlw	low _DATA_LCD
  1999   0019AE  6E10               	movwf	sprintf@s^0,c
  2000   0019B0  0E43               	movlw	low STR_8
  2001   0019B2  6E11               	movwf	sprintf@fmt^0,c
  2002   0019B4  EC6A  F011         	call	_sprintf	;wreg free
  2003   0019B8                     
  2004                           ;tx_main.c: 123:                 set_Cursor_LCD(2,4);
  2005   0019B8  0E04               	movlw	4
  2006   0019BA  6E01               	movwf	set_Cursor_LCD@y^0,c
  2007   0019BC  0E02               	movlw	2
  2008   0019BE  EC58  F010         	call	_set_Cursor_LCD
  2009                           
  2010                           ;tx_main.c: 124:                 writeString_LCD(DATA_LCD);
  2011   0019C2  0EBC               	movlw	low _DATA_LCD
  2012   0019C4  6E02               	movwf	writeString_LCD@dato_LCD^0,c
  2013   0019C6  EC34  F011         	call	_writeString_LCD	;wreg free
  2014                           
  2015                           ;tx_main.c: 125:                 break;
  2016   0019CA  EF21  F00D         	goto	l2952
  2017   0019CE                     l2938:
  2018                           
  2019                           ;tx_main.c: 127:                 sprintf(DATA_LCD,"ERROR");
  2020   0019CE  0EBC               	movlw	low _DATA_LCD
  2021   0019D0  6E10               	movwf	sprintf@s^0,c
  2022   0019D2  0E5C               	movlw	low STR_9
  2023   0019D4  6E11               	movwf	sprintf@fmt^0,c
  2024   0019D6  EC6A  F011         	call	_sprintf	;wreg free
  2025   0019DA                     
  2026                           ;tx_main.c: 128:                 set_Cursor_LCD(1,2);
  2027   0019DA  0E02               	movlw	2
  2028   0019DC  6E01               	movwf	set_Cursor_LCD@y^0,c
  2029   0019DE  0E01               	movlw	1
  2030   0019E0  EC58  F010         	call	_set_Cursor_LCD
  2031   0019E4                     
  2032                           ;tx_main.c: 129:                 writeString_LCD(DATA_LCD);
  2033   0019E4  0EBC               	movlw	low _DATA_LCD
  2034   0019E6  6E02               	movwf	writeString_LCD@dato_LCD^0,c
  2035   0019E8  EC34  F011         	call	_writeString_LCD	;wreg free
  2036   0019EC                     
  2037                           ;tx_main.c: 130:                 sprintf(DATA_LCD,"MENU");
  2038   0019EC  0EBC               	movlw	low _DATA_LCD
  2039   0019EE  6E10               	movwf	sprintf@s^0,c
  2040   0019F0  0E62               	movlw	low STR_10
  2041   0019F2  6E11               	movwf	sprintf@fmt^0,c
  2042   0019F4  EC6A  F011         	call	_sprintf	;wreg free
  2043   0019F8                     
  2044                           ;tx_main.c: 131:                 set_Cursor_LCD(2,2);
  2045   0019F8  0E02               	movlw	2
  2046   0019FA  6E01               	movwf	set_Cursor_LCD@y^0,c
  2047   0019FC  0E02               	movlw	2
  2048   0019FE  EC58  F010         	call	_set_Cursor_LCD
  2049                           
  2050                           ;tx_main.c: 132:                 writeString_LCD(DATA_LCD);
  2051   001A02  0EBC               	movlw	low _DATA_LCD
  2052   001A04  6E02               	movwf	writeString_LCD@dato_LCD^0,c
  2053   001A06  EC34  F011         	call	_writeString_LCD	;wreg free
  2054                           
  2055                           ;tx_main.c: 133:                 break;
  2056   001A0A  EF21  F00D         	goto	l2952
  2057   001A0E                     l2950:
  2058   001A0E  C0A8  F05C         	movff	_counter,??_main
  2059   001A12  C0A9  F05D         	movff	_counter+1,??_main+1
  2060                           
  2061                           ; Switch on 2 bytes has been partitioned into a top level switch of size 1, and 1 sub-sw
      +                          itches
  2062                           ; Switch size 1, requested type "simple"
  2063                           ; Number of cases is 1, Range of values is 0 to 0
  2064                           ; switch strategies available:
  2065                           ; Name         Instructions Cycles
  2066                           ; simple_byte            4     3 (average)
  2067                           ;	Chosen strategy is simple_byte
  2068   001A16  505D               	movf	(??_main+1)^0,w,c
  2069   001A18  0A00               	xorlw	0	; case 0
  2070   001A1A  B4D8               	btfsc	status,2,c
  2071   001A1C  EF12  F00D         	goto	l3006
  2072   001A20  EFE7  F00C         	goto	l2938
  2073   001A24                     l3006:
  2074                           
  2075                           ; Switch size 1, requested type "simple"
  2076                           ; Number of cases is 3, Range of values is 0 to 2
  2077                           ; switch strategies available:
  2078                           ; Name         Instructions Cycles
  2079                           ; simple_byte           10     6 (average)
  2080                           ;	Chosen strategy is simple_byte
  2081   001A24  505C               	movf	??_main^0,w,c
  2082   001A26  0A00               	xorlw	0	; case 0
  2083   001A28  B4D8               	btfsc	status,2,c
  2084   001A2A  EF77  F00C         	goto	l2902
  2085   001A2E  0A01               	xorlw	1	; case 1
  2086   001A30  B4D8               	btfsc	status,2,c
  2087   001A32  EFA7  F00C         	goto	l2918
  2088   001A36  0A03               	xorlw	3	; case 2
  2089   001A38  B4D8               	btfsc	status,2,c
  2090   001A3A  EFC7  F00C         	goto	l2928
  2091   001A3E  EFE7  F00C         	goto	l2938
  2092   001A42                     l2952:
  2093                           
  2094                           ;tx_main.c: 135:         clear_LCD();
  2095   001A42  EC95  F011         	call	_clear_LCD	;wreg free
  2096   001A46  EF07  F00D         	goto	l2950
  2097   001A4A  EF07  F000         	goto	start
  2098   001A4E                     __end_of_main:
  2099                           	callstack 0
  2100                           
  2101 ;; *************** function _writeString_LCD *****************
  2102 ;; Defined at:
  2103 ;;		line 62 in file "lcd_lib.c"
  2104 ;; Parameters:    Size  Location     Type
  2105 ;;  dato_LCD        1    1[COMRAM] PTR const unsigned char 
  2106 ;;		 -> DATA_LCD(16), 
  2107 ;; Auto vars:     Size  Location     Type
  2108 ;;  i               2    2[COMRAM] int 
  2109 ;; Return value:  Size  Location     Type
  2110 ;;                  1    wreg      void 
  2111 ;; Registers used:
  2112 ;;		wreg, fsr2l, fsr2h, status,2, status,0, cstack
  2113 ;; Tracked objects:
  2114 ;;		On entry : 0/0
  2115 ;;		On exit  : 0/0
  2116 ;;		Unchanged: 0/0
  2117 ;; Data sizes:     COMRAM   BANK0   BANK1   BANK2   BANK3   BANK4   BANK5   BANK6   BANK7
  2118 ;;      Params:         1       0       0       0       0       0       0       0       0
  2119 ;;      Locals:         2       0       0       0       0       0       0       0       0
  2120 ;;      Temps:          0       0       0       0       0       0       0       0       0
  2121 ;;      Totals:         3       0       0       0       0       0       0       0       0
  2122 ;;Total ram usage:        3 bytes
  2123 ;; Hardware stack levels used: 1
  2124 ;; Hardware stack levels required when called: 2
  2125 ;; This function calls:
  2126 ;;		_writeChar_LCD
  2127 ;; This function is called by:
  2128 ;;		_main
  2129 ;; This function uses a non-reentrant model
  2130 ;;
  2131                           
  2132                           	psect	text1
  2133   002268                     __ptext1:
  2134                           	callstack 0
  2135   002268                     _writeString_LCD:
  2136                           	callstack 28
  2137   002268                     
  2138                           ;lcd_lib.c: 64:     for(int i = 0; dato_LCD[i]!='\0';i++){
  2139   002268  0E00               	movlw	0
  2140   00226A  6E04               	movwf	(writeString_LCD@i+1)^0,c
  2141   00226C  0E00               	movlw	0
  2142   00226E  6E03               	movwf	writeString_LCD@i^0,c
  2143   002270  EF43  F011         	goto	l2736
  2144   002274                     l2732:
  2145                           
  2146                           ;lcd_lib.c: 65:         writeChar_LCD(dato_LCD[i]);
  2147   002274  5002               	movf	writeString_LCD@dato_LCD^0,w,c
  2148   002276  2403               	addwf	writeString_LCD@i^0,w,c
  2149   002278  6ED9               	movwf	fsr2l,c
  2150   00227A  6ADA               	clrf	fsr2h,c
  2151   00227C  50DF               	movf	indf2,w,c
  2152   00227E  ECA3  F011         	call	_writeChar_LCD
  2153   002282                     
  2154                           ;lcd_lib.c: 66:     }
  2155   002282  4A03               	infsnz	writeString_LCD@i^0,f,c
  2156   002284  2A04               	incf	(writeString_LCD@i+1)^0,f,c
  2157   002286                     l2736:
  2158   002286  5002               	movf	writeString_LCD@dato_LCD^0,w,c
  2159   002288  2403               	addwf	writeString_LCD@i^0,w,c
  2160   00228A  6ED9               	movwf	fsr2l,c
  2161   00228C  6ADA               	clrf	fsr2h,c
  2162   00228E  50DF               	movf	indf2,w,c
  2163   002290  A4D8               	btfss	status,2,c
  2164   002292  EF4D  F011         	goto	u2471
  2165   002296  EF4F  F011         	goto	u2470
  2166   00229A                     u2471:
  2167   00229A  EF3A  F011         	goto	l2732
  2168   00229E                     u2470:
  2169   00229E  0012               	return		;funcret
  2170   0022A0                     __end_of_writeString_LCD:
  2171                           	callstack 0
  2172                           
  2173 ;; *************** function _writeChar_LCD *****************
  2174 ;; Defined at:
  2175 ;;		line 52 in file "lcd_lib.c"
  2176 ;; Parameters:    Size  Location     Type
  2177 ;;  dato_LCD        1    wreg     unsigned char 
  2178 ;; Auto vars:     Size  Location     Type
  2179 ;;  dato_LCD        1    0[COMRAM] unsigned char 
  2180 ;; Return value:  Size  Location     Type
  2181 ;;                  1    wreg      void 
  2182 ;; Registers used:
  2183 ;;		wreg, status,2, cstack
  2184 ;; Tracked objects:
  2185 ;;		On entry : 0/0
  2186 ;;		On exit  : 0/0
  2187 ;;		Unchanged: 0/0
  2188 ;; Data sizes:     COMRAM   BANK0   BANK1   BANK2   BANK3   BANK4   BANK5   BANK6   BANK7
  2189 ;;      Params:         0       0       0       0       0       0       0       0       0
  2190 ;;      Locals:         1       0       0       0       0       0       0       0       0
  2191 ;;      Temps:          0       0       0       0       0       0       0       0       0
  2192 ;;      Totals:         1       0       0       0       0       0       0       0       0
  2193 ;;Total ram usage:        1 bytes
  2194 ;; Hardware stack levels used: 1
  2195 ;; Hardware stack levels required when called: 1
  2196 ;; This function calls:
  2197 ;;		Nothing
  2198 ;; This function is called by:
  2199 ;;		_writeString_LCD
  2200 ;; This function uses a non-reentrant model
  2201 ;;
  2202                           
  2203                           	psect	text2
  2204   002346                     __ptext2:
  2205                           	callstack 0
  2206   002346                     _writeChar_LCD:
  2207                           	callstack 28
  2208                           
  2209                           ;incstack = 0
  2210                           ;writeChar_LCD@dato_LCD stored from wreg
  2211   002346  6E01               	movwf	writeChar_LCD@dato_LCD^0,c
  2212   002348                     
  2213                           ;lcd_lib.c: 54:     LATBbits.LB3 = 1;
  2214   002348  868A               	bsf	138,3,c	;volatile
  2215   00234A                     
  2216                           ;lcd_lib.c: 55:     LATD = dato_LCD;
  2217   00234A  C001  FF8C         	movff	writeChar_LCD@dato_LCD,3980	;volatile
  2218   00234E                     
  2219                           ;lcd_lib.c: 56:     LATBbits.LB4 = 1;
  2220   00234E  888A               	bsf	138,4,c	;volatile
  2221   002350                     
  2222                           ;lcd_lib.c: 57:     _delay((unsigned long)((50)*(48000000UL/4000000.0)));
  2223   002350  0EC8               	movlw	200
  2224   002352                     u2737:
  2225   002352  2EE8               	decfsz	wreg,f,c
  2226   002354  D7FE               	bra	u2737
  2227   002356                     
  2228                           ;lcd_lib.c: 58:     LATBbits.LB4 = 0;
  2229   002356  988A               	bcf	138,4,c	;volatile
  2230   002358  0012               	return		;funcret
  2231   00235A                     __end_of_writeChar_LCD:
  2232                           	callstack 0
  2233                           
  2234 ;; *************** function _sprintf *****************
  2235 ;; Defined at:
  2236 ;;		line 9 in file "C:\Program Files\Microchip\xc8\v2.50\pic\sources\c99\common\nf_sprintf.c"
  2237 ;; Parameters:    Size  Location     Type
  2238 ;;  s               1   15[COMRAM] PTR unsigned char 
  2239 ;;		 -> DATA_LCD(16), 
  2240 ;;  fmt             1   16[COMRAM] PTR const unsigned char 
  2241 ;;		 -> STR_10(5), STR_9(6), STR_8(9), STR_7(11), 
  2242 ;;		 -> STR_6(7), STR_5(11), STR_4(9), STR_3(17), 
  2243 ;;		 -> STR_2(14), STR_1(13), 
  2244 ;; Auto vars:     Size  Location     Type
  2245 ;;  f              11   18[COMRAM] struct _IO_FILE
  2246 ;;  ret             2    0        int 
  2247 ;;  ap              1   17[COMRAM] PTR void [1]
  2248 ;;		 -> ?_sprintf(2), 
  2249 ;; Return value:  Size  Location     Type
  2250 ;;                  2   15[COMRAM] int 
  2251 ;; Registers used:
  2252 ;;		wreg, fsr1l, fsr1h, fsr2l, fsr2h, status,2, status,0, tblptrl, tblptrh, tblptru, cstack
  2253 ;; Tracked objects:
  2254 ;;		On entry : 0/0
  2255 ;;		On exit  : 0/0
  2256 ;;		Unchanged: 0/0
  2257 ;; Data sizes:     COMRAM   BANK0   BANK1   BANK2   BANK3   BANK4   BANK5   BANK6   BANK7
  2258 ;;      Params:         2       0       0       0       0       0       0       0       0
  2259 ;;      Locals:        12       0       0       0       0       0       0       0       0
  2260 ;;      Temps:          0       0       0       0       0       0       0       0       0
  2261 ;;      Totals:        14       0       0       0       0       0       0       0       0
  2262 ;;Total ram usage:       14 bytes
  2263 ;; Hardware stack levels used: 1
  2264 ;; Hardware stack levels required when called: 5
  2265 ;; This function calls:
  2266 ;;		_vfprintf
  2267 ;; This function is called by:
  2268 ;;		_main
  2269 ;; This function uses a non-reentrant model
  2270 ;;
  2271                           
  2272                           	psect	text3
  2273   0022D4                     __ptext3:
  2274                           	callstack 0
  2275   0022D4                     _sprintf:
  2276                           	callstack 25
  2277   0022D4  0E12               	movlw	low (?_sprintf+2)
  2278   0022D6  6E12               	movwf	sprintf@ap^0,c
  2279   0022D8  C010  F013         	movff	sprintf@s,sprintf@f
  2280   0022DC  0E00               	movlw	0
  2281   0022DE  6E16               	movwf	(sprintf@f+3)^0,c
  2282   0022E0  0E00               	movlw	0
  2283   0022E2  6E15               	movwf	(sprintf@f+2)^0,c
  2284   0022E4  0E00               	movlw	0
  2285   0022E6  6E1D               	movwf	(sprintf@f+10)^0,c
  2286   0022E8  0E00               	movlw	0
  2287   0022EA  6E1C               	movwf	(sprintf@f+9)^0,c
  2288   0022EC  0E13               	movlw	low sprintf@f
  2289   0022EE  6E0C               	movwf	vfprintf@fp^0,c
  2290   0022F0  C011  F00D         	movff	sprintf@fmt,vfprintf@fmt
  2291   0022F4  0E12               	movlw	low sprintf@ap
  2292   0022F6  6E0E               	movwf	vfprintf@ap^0,c
  2293   0022F8  EC15  F011         	call	_vfprintf	;wreg free
  2294   0022FC  5010               	movf	sprintf@s^0,w,c
  2295   0022FE  2415               	addwf	(sprintf@f+2)^0,w,c
  2296   002300  6ED9               	movwf	fsr2l,c
  2297   002302  6ADA               	clrf	fsr2h,c
  2298   002304  6ADF               	clrf	indf2,c
  2299   002306  0012               	return		;funcret
  2300   002308                     __end_of_sprintf:
  2301                           	callstack 0
  2302                           
  2303 ;; *************** function _vfprintf *****************
  2304 ;; Defined at:
  2305 ;;		line 1817 in file "C:\Program Files\Microchip\xc8\v2.50\pic\sources\c99\common\doprnt.c"
  2306 ;; Parameters:    Size  Location     Type
  2307 ;;  fp              1   11[COMRAM] PTR struct _IO_FILE
  2308 ;;		 -> sprintf@f(11), 
  2309 ;;  fmt             1   12[COMRAM] PTR const unsigned char 
  2310 ;;		 -> STR_10(5), STR_9(6), STR_8(9), STR_7(11), 
  2311 ;;		 -> STR_6(7), STR_5(11), STR_4(9), STR_3(17), 
  2312 ;;		 -> STR_2(14), STR_1(13), 
  2313 ;;  ap              1   13[COMRAM] PTR PTR void 
  2314 ;;		 -> sprintf@ap(1), 
  2315 ;; Auto vars:     Size  Location     Type
  2316 ;;  cfmt            1   14[COMRAM] PTR unsigned char 
  2317 ;;		 -> STR_10(5), STR_9(6), STR_8(9), STR_7(11), 
  2318 ;;		 -> STR_6(7), STR_5(11), STR_4(9), STR_3(17), 
  2319 ;;		 -> STR_2(14), STR_1(13), 
  2320 ;; Return value:  Size  Location     Type
  2321 ;;                  2   11[COMRAM] int 
  2322 ;; Registers used:
  2323 ;;		wreg, fsr1l, fsr1h, fsr2l, fsr2h, status,2, status,0, tblptrl, tblptrh, tblptru, cstack
  2324 ;; Tracked objects:
  2325 ;;		On entry : 0/0
  2326 ;;		On exit  : 0/0
  2327 ;;		Unchanged: 0/0
  2328 ;; Data sizes:     COMRAM   BANK0   BANK1   BANK2   BANK3   BANK4   BANK5   BANK6   BANK7
  2329 ;;      Params:         3       0       0       0       0       0       0       0       0
  2330 ;;      Locals:         1       0       0       0       0       0       0       0       0
  2331 ;;      Temps:          0       0       0       0       0       0       0       0       0
  2332 ;;      Totals:         4       0       0       0       0       0       0       0       0
  2333 ;;Total ram usage:        4 bytes
  2334 ;; Hardware stack levels used: 1
  2335 ;; Hardware stack levels required when called: 4
  2336 ;; This function calls:
  2337 ;;		_vfpfcnvrt
  2338 ;; This function is called by:
  2339 ;;		_sprintf
  2340 ;; This function uses a non-reentrant model
  2341 ;;
  2342                           
  2343                           	psect	text4
  2344   00222A                     __ptext4:
  2345                           	callstack 0
  2346   00222A                     _vfprintf:
  2347                           	callstack 25
  2348   00222A                     
  2349                           ;C:\Program Files\Microchip\xc8\v2.50\pic\sources\c99\common\doprnt.c: 1817: int vfprint
      +                          f(FILE *fp, const char *fmt, va_list ap);C:\Program Files\Microchip\xc8\v2.50\pic\source
      +                          s\c99\common\doprnt.c: 1818: {;C:\Program Files\Microchip\xc8\v2.50\pic\sources\c99\comm
      +                          on\doprnt.c: 1820:     char *cfmt;;C:\Program Files\Microchip\xc8\v2.50\pic\sources\c99\
      +                          common\doprnt.c: 1822:     cfmt = (char *)fmt;
  2350   00222A  C00D  F00F         	movff	vfprintf@fmt,vfprintf@cfmt
  2351                           
  2352                           ;C:\Program Files\Microchip\xc8\v2.50\pic\sources\c99\common\doprnt.c: 1826:     while (
      +                          *cfmt) {
  2353   00222E  EF21  F011         	goto	l2696
  2354   002232                     l2694:
  2355                           
  2356                           ;C:\Program Files\Microchip\xc8\v2.50\pic\sources\c99\common\doprnt.c: 1830:    vfpfcnvr
      +                          t(fp, &cfmt, ap);
  2357   002232  C00C  F009         	movff	vfprintf@fp,vfpfcnvrt@fp
  2358   002236  0E0F               	movlw	low vfprintf@cfmt
  2359   002238  6E0A               	movwf	vfpfcnvrt@fmt^0,c
  2360   00223A  C00E  F00B         	movff	vfprintf@ap,vfpfcnvrt@ap
  2361   00223E  EC94  F010         	call	_vfpfcnvrt	;wreg free
  2362   002242                     l2696:
  2363                           
  2364                           ;C:\Program Files\Microchip\xc8\v2.50\pic\sources\c99\common\doprnt.c: 1826:     while (
      +                          *cfmt) {
  2365   002242  C00F  FFF6         	movff	vfprintf@cfmt,tblptrl
  2366   002246                     	if	1	;There is more than 1 active tblptr byte
  2367   002246  0E08               	movlw	high __smallconst
  2368   002248  6EF7               	movwf	tblptrh,c
  2369   00224A                     	endif
  2370   00224A                     	if	0	;tblptru may be non-zero
  2371   00224A                     	endif
  2372   00224A                     	if	0	;tblptru may be non-zero
  2373   00224A                     	endif
  2374   00224A  0008               	tblrd		*
  2375   00224C  50F5               	movf	tablat,w,c
  2376   00224E  0900               	iorlw	0
  2377   002250  A4D8               	btfss	status,2,c
  2378   002252  EF2D  F011         	goto	u2461
  2379   002256  EF2F  F011         	goto	u2460
  2380   00225A                     u2461:
  2381   00225A  EF19  F011         	goto	l2694
  2382   00225E                     u2460:
  2383   00225E                     
  2384                           ;C:\Program Files\Microchip\xc8\v2.50\pic\sources\c99\common\doprnt.c: 1835:  return 0;
  2385   00225E  0E00               	movlw	0
  2386   002260  6E0D               	movwf	(?_vfprintf+1)^0,c
  2387   002262  0E00               	movlw	0
  2388   002264  6E0C               	movwf	?_vfprintf^0,c
  2389   002266  0012               	return		;funcret
  2390   002268                     __end_of_vfprintf:
  2391                           	callstack 0
  2392                           
  2393 ;; *************** function _vfpfcnvrt *****************
  2394 ;; Defined at:
  2395 ;;		line 1177 in file "C:\Program Files\Microchip\xc8\v2.50\pic\sources\c99\common\doprnt.c"
  2396 ;; Parameters:    Size  Location     Type
  2397 ;;  fp              1    8[COMRAM] PTR struct _IO_FILE
  2398 ;;		 -> sprintf@f(11), 
  2399 ;;  fmt             1    9[COMRAM] PTR PTR unsigned char 
  2400 ;;		 -> vfprintf@cfmt(1), 
  2401 ;;  ap              1   10[COMRAM] PTR PTR void 
  2402 ;;		 -> sprintf@ap(1), 
  2403 ;; Auto vars:     Size  Location     Type
  2404 ;;  cp              2    0        PTR unsigned char 
  2405 ;;  done            1    0        _Bool 
  2406 ;;  c               1    0        unsigned char 
  2407 ;; Return value:  Size  Location     Type
  2408 ;;                  1    wreg      void 
  2409 ;; Registers used:
  2410 ;;		wreg, fsr1l, fsr1h, fsr2l, fsr2h, status,2, status,0, tblptrl, tblptrh, tblptru, cstack
  2411 ;; Tracked objects:
  2412 ;;		On entry : 0/0
  2413 ;;		On exit  : 0/0
  2414 ;;		Unchanged: 0/0
  2415 ;; Data sizes:     COMRAM   BANK0   BANK1   BANK2   BANK3   BANK4   BANK5   BANK6   BANK7
  2416 ;;      Params:         3       0       0       0       0       0       0       0       0
  2417 ;;      Locals:         0       0       0       0       0       0       0       0       0
  2418 ;;      Temps:          0       0       0       0       0       0       0       0       0
  2419 ;;      Totals:         3       0       0       0       0       0       0       0       0
  2420 ;;Total ram usage:        3 bytes
  2421 ;; Hardware stack levels used: 1
  2422 ;; Hardware stack levels required when called: 3
  2423 ;; This function calls:
  2424 ;;		_fputc
  2425 ;; This function is called by:
  2426 ;;		_vfprintf
  2427 ;; This function uses a non-reentrant model
  2428 ;;
  2429                           
  2430                           	psect	text5
  2431   002128                     __ptext5:
  2432                           	callstack 0
  2433   002128                     _vfpfcnvrt:
  2434                           	callstack 25
  2435   002128                     
  2436                           ;C:\Program Files\Microchip\xc8\v2.50\pic\sources\c99\common\doprnt.c: 1177: vfpfcnvrt(F
      +                          ILE *fp, char *fmt[], va_list ap);C:\Program Files\Microchip\xc8\v2.50\pic\sources\c99\c
      +                          ommon\doprnt.c: 1178: {;C:\Program Files\Microchip\xc8\v2.50\pic\sources\c99\common\dopr
      +                          nt.c: 1179:     char c, *cp;;C:\Program Files\Microchip\xc8\v2.50\pic\sources\c99\common
      +                          \doprnt.c: 1180:     _Bool done;;C:\Program Files\Microchip\xc8\v2.50\pic\sources\c99\co
      +                          mmon\doprnt.c: 1201:     if ((*fmt)[0] == '%') {
  2437   002128  500A               	movf	vfpfcnvrt@fmt^0,w,c
  2438   00212A  6ED9               	movwf	fsr2l,c
  2439   00212C  6ADA               	clrf	fsr2h,c
  2440   00212E  CFDF FFF6          	movff	indf2,tblptrl
  2441   002132                     	if	1	;There is more than 1 active tblptr byte
  2442   002132  0E08               	movlw	high __smallconst
  2443   002134  6EF7               	movwf	tblptrh,c
  2444   002136                     	endif
  2445   002136                     	if	0	;tblptru may be non-zero
  2446   002136                     	endif
  2447   002136                     	if	0	;tblptru may be non-zero
  2448   002136                     	endif
  2449   002136  0008               	tblrd		*
  2450   002138  50F5               	movf	tablat,w,c
  2451   00213A  0A25               	xorlw	37
  2452   00213C  A4D8               	btfss	status,2,c
  2453   00213E  EFA3  F010         	goto	u2431
  2454   002142  EFA5  F010         	goto	u2430
  2455   002146                     u2431:
  2456   002146  EFB8  F010         	goto	l2608
  2457   00214A                     u2430:
  2458   00214A                     
  2459                           ;C:\Program Files\Microchip\xc8\v2.50\pic\sources\c99\common\doprnt.c: 1202:         ++*
      +                          fmt;
  2460   00214A  500A               	movf	vfpfcnvrt@fmt^0,w,c
  2461   00214C  6ED9               	movwf	fsr2l,c
  2462   00214E  6ADA               	clrf	fsr2h,c
  2463   002150  2ADF               	incf	indf2,f,c
  2464   002152                     
  2465                           ;C:\Program Files\Microchip\xc8\v2.50\pic\sources\c99\common\doprnt.c: 1204:         fla
      +                          gs = width = 0;
  2466   002152  0E00               	movlw	0
  2467   002154  0100               	movlb	0	; () banked
  2468   002156  6FA3               	movwf	(_width+1)& (0+255),b
  2469   002158  0E00               	movlw	0
  2470   00215A  6FA2               	movwf	_width& (0+255),b
  2471   00215C  C0A2  F05E         	movff	_width,_flags
  2472   002160                     
  2473                           ; BSR set to: 0
  2474                           ;C:\Program Files\Microchip\xc8\v2.50\pic\sources\c99\common\doprnt.c: 1205:         pre
      +                          c = -1;
  2475   002160  69A4               	setf	_prec& (0+255),b
  2476   002162  69A5               	setf	(_prec+1)& (0+255),b
  2477   002164                     l2604:
  2478                           
  2479                           ;C:\Program Files\Microchip\xc8\v2.50\pic\sources\c99\common\doprnt.c: 1806:         ++*
      +                          fmt;
  2480   002164  500A               	movf	vfpfcnvrt@fmt^0,w,c
  2481   002166  6ED9               	movwf	fsr2l,c
  2482   002168  6ADA               	clrf	fsr2h,c
  2483   00216A  2ADF               	incf	indf2,f,c
  2484   00216C  EFC9  F010         	goto	l987
  2485   002170                     l2608:
  2486                           
  2487                           ;C:\Program Files\Microchip\xc8\v2.50\pic\sources\c99\common\doprnt.c: 1811:     fputc((
      +                          int)(*fmt)[0], fp);
  2488   002170  500A               	movf	vfpfcnvrt@fmt^0,w,c
  2489   002172  6ED9               	movwf	fsr2l,c
  2490   002174  6ADA               	clrf	fsr2h,c
  2491   002176  CFDF FFF6          	movff	indf2,tblptrl
  2492   00217A                     	if	1	;There is more than 1 active tblptr byte
  2493   00217A  0E08               	movlw	high __smallconst
  2494   00217C  6EF7               	movwf	tblptrh,c
  2495   00217E                     	endif
  2496   00217E                     	if	0	;tblptru may be non-zero
  2497   00217E                     	endif
  2498   00217E                     	if	0	;tblptru may be non-zero
  2499   00217E                     	endif
  2500   00217E  0008               	tblrd		*
  2501   002180  50F5               	movf	tablat,w,c
  2502   002182  6E01               	movwf	fputc@c^0,c
  2503   002184  6A02               	clrf	(fputc@c+1)^0,c
  2504   002186  C009  F003         	movff	vfpfcnvrt@fp,fputc@fp
  2505   00218A  EC31  F00F         	call	_fputc	;wreg free
  2506   00218E  EFB2  F010         	goto	l2604
  2507   002192                     l987:
  2508   002192  0012               	return		;funcret
  2509   002194                     __end_of_vfpfcnvrt:
  2510                           	callstack 0
  2511                           
  2512 ;; *************** function _fputc *****************
  2513 ;; Defined at:
  2514 ;;		line 8 in file "C:\Program Files\Microchip\xc8\v2.50\pic\sources\c99\common\nf_fputc.c"
  2515 ;; Parameters:    Size  Location     Type
  2516 ;;  c               2    0[COMRAM] int 
  2517 ;;  fp              1    2[COMRAM] PTR struct _IO_FILE
  2518 ;;		 -> sprintf@f(11), 
  2519 ;; Auto vars:     Size  Location     Type
  2520 ;;		None
  2521 ;; Return value:  Size  Location     Type
  2522 ;;                  2    0[COMRAM] int 
  2523 ;; Registers used:
  2524 ;;		wreg, fsr1l, fsr1h, fsr2l, fsr2h, status,2, status,0, cstack
  2525 ;; Tracked objects:
  2526 ;;		On entry : 0/0
  2527 ;;		On exit  : 0/0
  2528 ;;		Unchanged: 0/0
  2529 ;; Data sizes:     COMRAM   BANK0   BANK1   BANK2   BANK3   BANK4   BANK5   BANK6   BANK7
  2530 ;;      Params:         3       0       0       0       0       0       0       0       0
  2531 ;;      Locals:         0       0       0       0       0       0       0       0       0
  2532 ;;      Temps:          5       0       0       0       0       0       0       0       0
  2533 ;;      Totals:         8       0       0       0       0       0       0       0       0
  2534 ;;Total ram usage:        8 bytes
  2535 ;; Hardware stack levels used: 1
  2536 ;; Hardware stack levels required when called: 2
  2537 ;; This function calls:
  2538 ;;		_putch
  2539 ;; This function is called by:
  2540 ;;		_vfpfcnvrt
  2541 ;; This function uses a non-reentrant model
  2542 ;;
  2543                           
  2544                           	psect	text6
  2545   001E62                     __ptext6:
  2546                           	callstack 0
  2547   001E62                     _fputc:
  2548                           	callstack 25
  2549   001E62  5003               	movf	fputc@fp^0,w,c
  2550   001E64  B4D8               	btfsc	status,2,c
  2551   001E66  EF37  F00F         	goto	u1801
  2552   001E6A  EF39  F00F         	goto	u1800
  2553   001E6E                     u1801:
  2554   001E6E  EF41  F00F         	goto	l2226
  2555   001E72                     u1800:
  2556   001E72  5003               	movf	fputc@fp^0,w,c
  2557   001E74  A4D8               	btfss	status,2,c
  2558   001E76  EF3F  F00F         	goto	u1811
  2559   001E7A  EF41  F00F         	goto	u1810
  2560   001E7E                     u1811:
  2561   001E7E  EF46  F00F         	goto	l2228
  2562   001E82                     u1810:
  2563   001E82                     l2226:
  2564   001E82  5001               	movf	fputc@c^0,w,c
  2565   001E84  ECC0  F011         	call	_putch
  2566   001E88  EF85  F00F         	goto	l1005
  2567   001E8C                     l2228:
  2568   001E8C  5003               	movf	fputc@fp^0,w,c
  2569   001E8E  6ED9               	movwf	fsr2l,c
  2570   001E90  6ADA               	clrf	fsr2h,c
  2571   001E92  0E09               	movlw	9
  2572   001E94  26D9               	addwf	fsr2l,f,c
  2573   001E96  50DE               	movf	postinc2,w,c
  2574   001E98  10DE               	iorwf	postinc2,w,c
  2575   001E9A  B4D8               	btfsc	status,2,c
  2576   001E9C  EF52  F00F         	goto	u1821
  2577   001EA0  EF54  F00F         	goto	u1820
  2578   001EA4                     u1821:
  2579   001EA4  EF6D  F00F         	goto	l2232
  2580   001EA8                     u1820:
  2581   001EA8  5003               	movf	fputc@fp^0,w,c
  2582   001EAA  6ED9               	movwf	fsr2l,c
  2583   001EAC  6ADA               	clrf	fsr2h,c
  2584   001EAE  0E09               	movlw	9
  2585   001EB0  26D9               	addwf	fsr2l,f,c
  2586   001EB2  5003               	movf	fputc@fp^0,w,c
  2587   001EB4  6EE1               	movwf	fsr1l,c
  2588   001EB6  6AE2               	clrf	fsr1h,c
  2589   001EB8  0E02               	movlw	2
  2590   001EBA  26E1               	addwf	fsr1l,f,c
  2591   001EBC  50DE               	movf	postinc2,w,c
  2592   001EBE  5CE6               	subwf	postinc1,w,c
  2593   001EC0  50E6               	movf	postinc1,w,c
  2594   001EC2  0A80               	xorlw	128
  2595   001EC4  6E08               	movwf	(??_fputc+4)^0,c
  2596   001EC6  50DE               	movf	postinc2,w,c
  2597   001EC8  0A80               	xorlw	128
  2598   001ECA  5808               	subwfb	(??_fputc+4)^0,w,c
  2599   001ECC  B0D8               	btfsc	status,0,c
  2600   001ECE  EF6B  F00F         	goto	u1831
  2601   001ED2  EF6D  F00F         	goto	u1830
  2602   001ED6                     u1831:
  2603   001ED6  EF85  F00F         	goto	l1005
  2604   001EDA                     u1830:
  2605   001EDA                     l2232:
  2606   001EDA  5003               	movf	fputc@fp^0,w,c
  2607   001EDC  6ED9               	movwf	fsr2l,c
  2608   001EDE  6ADA               	clrf	fsr2h,c
  2609   001EE0  0E02               	movlw	2
  2610   001EE2  26D9               	addwf	fsr2l,f,c
  2611   001EE4  50DF               	movf	indf2,w,c
  2612   001EE6  6E04               	movwf	??_fputc^0,c
  2613   001EE8  5003               	movf	fputc@fp^0,w,c
  2614   001EEA  6ED9               	movwf	fsr2l,c
  2615   001EEC  6ADA               	clrf	fsr2h,c
  2616   001EEE  50DF               	movf	indf2,w,c
  2617   001EF0  2404               	addwf	??_fputc^0,w,c
  2618   001EF2  6ED9               	movwf	fsr2l,c
  2619   001EF4  6ADA               	clrf	fsr2h,c
  2620   001EF6  C001  FFDF         	movff	fputc@c,indf2
  2621   001EFA  5003               	movf	fputc@fp^0,w,c
  2622   001EFC  6ED9               	movwf	fsr2l,c
  2623   001EFE  6ADA               	clrf	fsr2h,c
  2624   001F00  0E02               	movlw	2
  2625   001F02  26D9               	addwf	fsr2l,f,c
  2626   001F04  2ADE               	incf	postinc2,f,c
  2627   001F06  0E00               	movlw	0
  2628   001F08  22DD               	addwfc	postdec2,f,c
  2629   001F0A                     l1005:
  2630   001F0A  0012               	return		;funcret
  2631   001F0C                     __end_of_fputc:
  2632                           	callstack 0
  2633                           
  2634 ;; *************** function _putch *****************
  2635 ;; Defined at:
  2636 ;;		line 7 in file "C:\Program Files\Microchip\xc8\v2.50\pic\sources\c99\common\putch.c"
  2637 ;; Parameters:    Size  Location     Type
  2638 ;;  c               1    wreg     unsigned char 
  2639 ;; Auto vars:     Size  Location     Type
  2640 ;;  c               1    0[COMRAM] unsigned char 
  2641 ;; Return value:  Size  Location     Type
  2642 ;;                  1    wreg      void 
  2643 ;; Registers used:
  2644 ;;		wreg
  2645 ;; Tracked objects:
  2646 ;;		On entry : 0/0
  2647 ;;		On exit  : 0/0
  2648 ;;		Unchanged: 0/0
  2649 ;; Data sizes:     COMRAM   BANK0   BANK1   BANK2   BANK3   BANK4   BANK5   BANK6   BANK7
  2650 ;;      Params:         0       0       0       0       0       0       0       0       0
  2651 ;;      Locals:         0       0       0       0       0       0       0       0       0
  2652 ;;      Temps:          0       0       0       0       0       0       0       0       0
  2653 ;;      Totals:         0       0       0       0       0       0       0       0       0
  2654 ;;Total ram usage:        0 bytes
  2655 ;; Hardware stack levels used: 1
  2656 ;; Hardware stack levels required when called: 1
  2657 ;; This function calls:
  2658 ;;		Nothing
  2659 ;; This function is called by:
  2660 ;;		_fputc
  2661 ;; This function uses a non-reentrant model
  2662 ;;
  2663                           
  2664                           	psect	text7
  2665   002380                     __ptext7:
  2666                           	callstack 0
  2667   002380                     _putch:
  2668                           	callstack 25
  2669   002380  0012               	return		;funcret
  2670   002382                     __end_of_putch:
  2671                           	callstack 0
  2672                           
  2673 ;; *************** function _init_LCD *****************
  2674 ;; Defined at:
  2675 ;;		line 4 in file "lcd_lib.c"
  2676 ;; Parameters:    Size  Location     Type
  2677 ;;		None
  2678 ;; Auto vars:     Size  Location     Type
  2679 ;;		None
  2680 ;; Return value:  Size  Location     Type
  2681 ;;                  1    wreg      void 
  2682 ;; Registers used:
  2683 ;;		wreg, status,2, status,0, cstack
  2684 ;; Tracked objects:
  2685 ;;		On entry : 0/0
  2686 ;;		On exit  : 0/0
  2687 ;;		Unchanged: 0/0
  2688 ;; Data sizes:     COMRAM   BANK0   BANK1   BANK2   BANK3   BANK4   BANK5   BANK6   BANK7
  2689 ;;      Params:         0       0       0       0       0       0       0       0       0
  2690 ;;      Locals:         0       0       0       0       0       0       0       0       0
  2691 ;;      Temps:          2       0       0       0       0       0       0       0       0
  2692 ;;      Totals:         2       0       0       0       0       0       0       0       0
  2693 ;;Total ram usage:        2 bytes
  2694 ;; Hardware stack levels used: 1
  2695 ;; Hardware stack levels required when called: 2
  2696 ;; This function calls:
  2697 ;;		_clear_LCD
  2698 ;;		_set_Cursor_LCD
  2699 ;; This function is called by:
  2700 ;;		_main
  2701 ;; This function uses a non-reentrant model
  2702 ;;
  2703                           
  2704                           	psect	text8
  2705   002038                     __ptext8:
  2706                           	callstack 0
  2707   002038                     _init_LCD:
  2708                           	callstack 28
  2709   002038                     
  2710                           ;lcd_lib.c: 6:     TRISD = 0x00;
  2711   002038  6A95               	clrf	149,c	;volatile
  2712                           
  2713                           ;lcd_lib.c: 7:     LATD = 0x00;
  2714   00203A  6A8C               	clrf	140,c	;volatile
  2715                           
  2716                           ;lcd_lib.c: 10:     TRISBbits.RB3 = 0;
  2717   00203C  9693               	bcf	147,3,c	;volatile
  2718                           
  2719                           ;lcd_lib.c: 11:     TRISBbits.RB4 = 0;
  2720   00203E  9893               	bcf	147,4,c	;volatile
  2721                           
  2722                           ;lcd_lib.c: 12:     LATBbits.LB3 = 0;
  2723   002040  968A               	bcf	138,3,c	;volatile
  2724                           
  2725                           ;lcd_lib.c: 13:     LATBbits.LB4 = 0;
  2726   002042  988A               	bcf	138,4,c	;volatile
  2727                           
  2728                           ;lcd_lib.c: 17:     LATBbits.LB3 = 0;
  2729   002044  968A               	bcf	138,3,c	;volatile
  2730   002046                     
  2731                           ;lcd_lib.c: 18:     LATD = 0b00111000;
  2732   002046  0E38               	movlw	56
  2733   002048  6E8C               	movwf	140,c	;volatile
  2734   00204A                     
  2735                           ;lcd_lib.c: 19:     LATBbits.LB4 = 1;
  2736   00204A  888A               	bsf	138,4,c	;volatile
  2737   00204C                     
  2738                           ;lcd_lib.c: 20:     _delay((unsigned long)((50)*(48000000UL/4000.0)));
  2739   00204C  0E04               	movlw	4
  2740   00204E  6E05               	movwf	(??_init_LCD+1)^0,c
  2741   002050  0E0C               	movlw	12
  2742   002052  6E04               	movwf	??_init_LCD^0,c
  2743   002054  0E34               	movlw	52
  2744   002056                     u2747:
  2745   002056  2EE8               	decfsz	wreg,f,c
  2746   002058  D7FE               	bra	u2747
  2747   00205A  2E04               	decfsz	??_init_LCD^0,f,c
  2748   00205C  D7FC               	bra	u2747
  2749   00205E  2E05               	decfsz	(??_init_LCD+1)^0,f,c
  2750   002060  D7FA               	bra	u2747
  2751   002062                     
  2752                           ;lcd_lib.c: 21:     LATBbits.LB4 = 0;
  2753   002062  988A               	bcf	138,4,c	;volatile
  2754   002064                     
  2755                           ;lcd_lib.c: 24:     LATD = 0b00001100;
  2756   002064  0E0C               	movlw	12
  2757   002066  6E8C               	movwf	140,c	;volatile
  2758   002068                     
  2759                           ;lcd_lib.c: 25:     LATBbits.LB4 = 1;
  2760   002068  888A               	bsf	138,4,c	;volatile
  2761                           
  2762                           ;lcd_lib.c: 26:     _delay((unsigned long)((50)*(48000000UL/4000.0)));
  2763   00206A  0E04               	movlw	4
  2764   00206C  6E05               	movwf	(??_init_LCD+1)^0,c
  2765   00206E  0E0C               	movlw	12
  2766   002070  6E04               	movwf	??_init_LCD^0,c
  2767   002072  0E34               	movlw	52
  2768   002074                     u2757:
  2769   002074  2EE8               	decfsz	wreg,f,c
  2770   002076  D7FE               	bra	u2757
  2771   002078  2E04               	decfsz	??_init_LCD^0,f,c
  2772   00207A  D7FC               	bra	u2757
  2773   00207C  2E05               	decfsz	(??_init_LCD+1)^0,f,c
  2774   00207E  D7FA               	bra	u2757
  2775   002080                     
  2776                           ;lcd_lib.c: 27:     LATBbits.LB4 = 0;
  2777   002080  988A               	bcf	138,4,c	;volatile
  2778   002082                     
  2779                           ;lcd_lib.c: 30:     clear_LCD();
  2780   002082  EC95  F011         	call	_clear_LCD	;wreg free
  2781   002086                     
  2782                           ;lcd_lib.c: 33:     LATD = 0b00000010;
  2783   002086  0E02               	movlw	2
  2784   002088  6E8C               	movwf	140,c	;volatile
  2785   00208A                     
  2786                           ;lcd_lib.c: 34:     LATBbits.LB4 = 1;
  2787   00208A  888A               	bsf	138,4,c	;volatile
  2788   00208C                     
  2789                           ;lcd_lib.c: 35:     _delay((unsigned long)((50)*(48000000UL/4000.0)));
  2790   00208C  0E04               	movlw	4
  2791   00208E  6E05               	movwf	(??_init_LCD+1)^0,c
  2792   002090  0E0C               	movlw	12
  2793   002092  6E04               	movwf	??_init_LCD^0,c
  2794   002094  0E34               	movlw	52
  2795   002096                     u2767:
  2796   002096  2EE8               	decfsz	wreg,f,c
  2797   002098  D7FE               	bra	u2767
  2798   00209A  2E04               	decfsz	??_init_LCD^0,f,c
  2799   00209C  D7FC               	bra	u2767
  2800   00209E  2E05               	decfsz	(??_init_LCD+1)^0,f,c
  2801   0020A0  D7FA               	bra	u2767
  2802   0020A2                     
  2803                           ;lcd_lib.c: 36:     LATBbits.LB4 = 0;
  2804   0020A2  988A               	bcf	138,4,c	;volatile
  2805   0020A4                     
  2806                           ;lcd_lib.c: 39:     set_Cursor_LCD(1,1);
  2807   0020A4  0E01               	movlw	1
  2808   0020A6  6E01               	movwf	set_Cursor_LCD@y^0,c
  2809   0020A8  0E01               	movlw	1
  2810   0020AA  EC58  F010         	call	_set_Cursor_LCD
  2811   0020AE  0012               	return		;funcret
  2812   0020B0                     __end_of_init_LCD:
  2813                           	callstack 0
  2814                           
  2815 ;; *************** function _set_Cursor_LCD *****************
  2816 ;; Defined at:
  2817 ;;		line 70 in file "lcd_lib.c"
  2818 ;; Parameters:    Size  Location     Type
  2819 ;;  x               1    wreg     unsigned char 
  2820 ;;  y               1    0[COMRAM] unsigned char 
  2821 ;; Auto vars:     Size  Location     Type
  2822 ;;  x               1    2[COMRAM] unsigned char 
  2823 ;; Return value:  Size  Location     Type
  2824 ;;                  1    wreg      void 
  2825 ;; Registers used:
  2826 ;;		wreg, status,2, status,0
  2827 ;; Tracked objects:
  2828 ;;		On entry : 0/0
  2829 ;;		On exit  : 0/0
  2830 ;;		Unchanged: 0/0
  2831 ;; Data sizes:     COMRAM   BANK0   BANK1   BANK2   BANK3   BANK4   BANK5   BANK6   BANK7
  2832 ;;      Params:         1       0       0       0       0       0       0       0       0
  2833 ;;      Locals:         1       0       0       0       0       0       0       0       0
  2834 ;;      Temps:          1       0       0       0       0       0       0       0       0
  2835 ;;      Totals:         3       0       0       0       0       0       0       0       0
  2836 ;;Total ram usage:        3 bytes
  2837 ;; Hardware stack levels used: 1
  2838 ;; Hardware stack levels required when called: 1
  2839 ;; This function calls:
  2840 ;;		Nothing
  2841 ;; This function is called by:
  2842 ;;		_init_LCD
  2843 ;;		_main
  2844 ;; This function uses a non-reentrant model
  2845 ;;
  2846                           
  2847                           	psect	text9
  2848   0020B0                     __ptext9:
  2849                           	callstack 0
  2850   0020B0                     _set_Cursor_LCD:
  2851                           	callstack 29
  2852                           
  2853                           ;incstack = 0
  2854                           ;set_Cursor_LCD@x stored from wreg
  2855   0020B0  6E03               	movwf	set_Cursor_LCD@x^0,c
  2856   0020B2                     
  2857                           ;lcd_lib.c: 72:     LATBbits.LB3 = 0;
  2858   0020B2  968A               	bcf	138,3,c	;volatile
  2859                           
  2860                           ;lcd_lib.c: 73:     switch(x){
  2861   0020B4  EF88  F010         	goto	l2652
  2862   0020B8                     l2626:
  2863                           
  2864                           ;lcd_lib.c: 75:             LATD = 0b10000000+(y-1);
  2865   0020B8  5001               	movf	set_Cursor_LCD@y^0,w,c
  2866   0020BA  0F7F               	addlw	127
  2867   0020BC  6E8C               	movwf	140,c	;volatile
  2868   0020BE                     
  2869                           ;lcd_lib.c: 76:             LATBbits.LB4 = 1;
  2870   0020BE  888A               	bsf	138,4,c	;volatile
  2871   0020C0                     
  2872                           ;lcd_lib.c: 77:             _delay((unsigned long)((5)*(48000000UL/4000.0)));
  2873   0020C0  0E4E               	movlw	78
  2874   0020C2  6E02               	movwf	??_set_Cursor_LCD^0,c
  2875   0020C4  0EEB               	movlw	235
  2876   0020C6                     u2777:
  2877   0020C6  2EE8               	decfsz	wreg,f,c
  2878   0020C8  D7FE               	bra	u2777
  2879   0020CA  2E02               	decfsz	??_set_Cursor_LCD^0,f,c
  2880   0020CC  D7FC               	bra	u2777
  2881   0020CE  0000               	nop	
  2882   0020D0                     
  2883                           ;lcd_lib.c: 78:             LATBbits.LB4 = 0;
  2884   0020D0  988A               	bcf	138,4,c	;volatile
  2885                           
  2886                           ;lcd_lib.c: 79:             break;
  2887   0020D2  EF93  F010         	goto	l37
  2888   0020D6                     l2634:
  2889                           
  2890                           ;lcd_lib.c: 81:             LATD = 0b10000000+0x40+(y-1);
  2891   0020D6  5001               	movf	set_Cursor_LCD@y^0,w,c
  2892   0020D8  0FBF               	addlw	191
  2893   0020DA  6E8C               	movwf	140,c	;volatile
  2894   0020DC                     
  2895                           ;lcd_lib.c: 82:             LATBbits.LB4 = 1;
  2896   0020DC  888A               	bsf	138,4,c	;volatile
  2897   0020DE                     
  2898                           ;lcd_lib.c: 83:             _delay((unsigned long)((5)*(48000000UL/4000.0)));
  2899   0020DE  0E4E               	movlw	78
  2900   0020E0  6E02               	movwf	??_set_Cursor_LCD^0,c
  2901   0020E2  0EEB               	movlw	235
  2902   0020E4                     u2787:
  2903   0020E4  2EE8               	decfsz	wreg,f,c
  2904   0020E6  D7FE               	bra	u2787
  2905   0020E8  2E02               	decfsz	??_set_Cursor_LCD^0,f,c
  2906   0020EA  D7FC               	bra	u2787
  2907   0020EC  0000               	nop	
  2908   0020EE                     
  2909                           ;lcd_lib.c: 84:             LATBbits.LB4 = 0;
  2910   0020EE  988A               	bcf	138,4,c	;volatile
  2911                           
  2912                           ;lcd_lib.c: 85:             break;
  2913   0020F0  EF93  F010         	goto	l37
  2914   0020F4                     l2642:
  2915                           
  2916                           ;lcd_lib.c: 87:             LATD = 0b10000000;
  2917   0020F4  0E80               	movlw	128
  2918   0020F6  6E8C               	movwf	140,c	;volatile
  2919   0020F8                     
  2920                           ;lcd_lib.c: 88:             LATBbits.LB4 = 1;
  2921   0020F8  888A               	bsf	138,4,c	;volatile
  2922   0020FA                     
  2923                           ;lcd_lib.c: 89:             _delay((unsigned long)((5)*(48000000UL/4000.0)));
  2924   0020FA  0E4E               	movlw	78
  2925   0020FC  6E02               	movwf	??_set_Cursor_LCD^0,c
  2926   0020FE  0EEB               	movlw	235
  2927   002100                     u2797:
  2928   002100  2EE8               	decfsz	wreg,f,c
  2929   002102  D7FE               	bra	u2797
  2930   002104  2E02               	decfsz	??_set_Cursor_LCD^0,f,c
  2931   002106  D7FC               	bra	u2797
  2932   002108  0000               	nop	
  2933   00210A                     
  2934                           ;lcd_lib.c: 90:             LATBbits.LB4 = 0;
  2935   00210A  988A               	bcf	138,4,c	;volatile
  2936                           
  2937                           ;lcd_lib.c: 91:             break;
  2938   00210C  EF93  F010         	goto	l37
  2939   002110                     l2652:
  2940   002110  5003               	movf	set_Cursor_LCD@x^0,w,c
  2941                           
  2942                           ; Switch size 1, requested type "simple"
  2943                           ; Number of cases is 2, Range of values is 1 to 2
  2944                           ; switch strategies available:
  2945                           ; Name         Instructions Cycles
  2946                           ; simple_byte            7     4 (average)
  2947                           ;	Chosen strategy is simple_byte
  2948   002112  0A01               	xorlw	1	; case 1
  2949   002114  B4D8               	btfsc	status,2,c
  2950   002116  EF5C  F010         	goto	l2626
  2951   00211A  0A03               	xorlw	3	; case 2
  2952   00211C  B4D8               	btfsc	status,2,c
  2953   00211E  EF6B  F010         	goto	l2634
  2954   002122  EF7A  F010         	goto	l2642
  2955   002126                     l37:
  2956   002126  0012               	return		;funcret
  2957   002128                     __end_of_set_Cursor_LCD:
  2958                           	callstack 0
  2959                           
  2960 ;; *************** function _clear_LCD *****************
  2961 ;; Defined at:
  2962 ;;		line 43 in file "lcd_lib.c"
  2963 ;; Parameters:    Size  Location     Type
  2964 ;;		None
  2965 ;; Auto vars:     Size  Location     Type
  2966 ;;		None
  2967 ;; Return value:  Size  Location     Type
  2968 ;;                  1    wreg      void 
  2969 ;; Registers used:
  2970 ;;		wreg, status,2
  2971 ;; Tracked objects:
  2972 ;;		On entry : 0/0
  2973 ;;		On exit  : 0/0
  2974 ;;		Unchanged: 0/0
  2975 ;; Data sizes:     COMRAM   BANK0   BANK1   BANK2   BANK3   BANK4   BANK5   BANK6   BANK7
  2976 ;;      Params:         0       0       0       0       0       0       0       0       0
  2977 ;;      Locals:         0       0       0       0       0       0       0       0       0
  2978 ;;      Temps:          1       0       0       0       0       0       0       0       0
  2979 ;;      Totals:         1       0       0       0       0       0       0       0       0
  2980 ;;Total ram usage:        1 bytes
  2981 ;; Hardware stack levels used: 1
  2982 ;; Hardware stack levels required when called: 1
  2983 ;; This function calls:
  2984 ;;		Nothing
  2985 ;; This function is called by:
  2986 ;;		_init_LCD
  2987 ;;		_main
  2988 ;; This function uses a non-reentrant model
  2989 ;;
  2990                           
  2991                           	psect	text10
  2992   00232A                     __ptext10:
  2993                           	callstack 0
  2994   00232A                     _clear_LCD:
  2995                           	callstack 28
  2996   00232A                     
  2997                           ;lcd_lib.c: 44:     LATBbits.LB3 = 0;
  2998   00232A  968A               	bcf	138,3,c	;volatile
  2999   00232C                     
  3000                           ;lcd_lib.c: 45:     LATD = 0b00000001;
  3001   00232C  0E01               	movlw	1
  3002   00232E  6E8C               	movwf	140,c	;volatile
  3003   002330                     
  3004                           ;lcd_lib.c: 46:     LATBbits.LB4 = 1;
  3005   002330  888A               	bsf	138,4,c	;volatile
  3006   002332                     
  3007                           ;lcd_lib.c: 47:     _delay((unsigned long)((5)*(48000000UL/4000.0)));
  3008   002332  0E4E               	movlw	78
  3009   002334  6E01               	movwf	??_clear_LCD^0,c
  3010   002336  0EEB               	movlw	235
  3011   002338                     u2807:
  3012   002338  2EE8               	decfsz	wreg,f,c
  3013   00233A  D7FE               	bra	u2807
  3014   00233C  2E01               	decfsz	??_clear_LCD^0,f,c
  3015   00233E  D7FC               	bra	u2807
  3016   002340  0000               	nop	
  3017   002342                     
  3018                           ;lcd_lib.c: 48:     LATBbits.LB4 = 0;
  3019   002342  988A               	bcf	138,4,c	;volatile
  3020   002344  0012               	return		;funcret
  3021   002346                     __end_of_clear_LCD:
  3022                           	callstack 0
  3023                           
  3024 ;; *************** function _init_ADC *****************
  3025 ;; Defined at:
  3026 ;;		line 4 in file "adc_lib.c"
  3027 ;; Parameters:    Size  Location     Type
  3028 ;;  Puertos_ADC     1    wreg     unsigned char 
  3029 ;; Auto vars:     Size  Location     Type
  3030 ;;  Puertos_ADC     1    0[COMRAM] unsigned char 
  3031 ;; Return value:  Size  Location     Type
  3032 ;;                  1    wreg      void 
  3033 ;; Registers used:
  3034 ;;		wreg, status,2
  3035 ;; Tracked objects:
  3036 ;;		On entry : 0/0
  3037 ;;		On exit  : 0/0
  3038 ;;		Unchanged: 0/0
  3039 ;; Data sizes:     COMRAM   BANK0   BANK1   BANK2   BANK3   BANK4   BANK5   BANK6   BANK7
  3040 ;;      Params:         0       0       0       0       0       0       0       0       0
  3041 ;;      Locals:         1       0       0       0       0       0       0       0       0
  3042 ;;      Temps:          0       0       0       0       0       0       0       0       0
  3043 ;;      Totals:         1       0       0       0       0       0       0       0       0
  3044 ;;Total ram usage:        1 bytes
  3045 ;; Hardware stack levels used: 1
  3046 ;; Hardware stack levels required when called: 1
  3047 ;; This function calls:
  3048 ;;		Nothing
  3049 ;; This function is called by:
  3050 ;;		_main
  3051 ;; This function uses a non-reentrant model
  3052 ;;
  3053                           
  3054                           	psect	text11
  3055   00235A                     __ptext11:
  3056                           	callstack 0
  3057   00235A                     _init_ADC:
  3058                           	callstack 29
  3059                           
  3060                           ;incstack = 0
  3061                           ;init_ADC@Puertos_ADC stored from wreg
  3062   00235A  6E01               	movwf	init_ADC@Puertos_ADC^0,c
  3063   00235C                     
  3064                           ;adc_lib.c: 6:     ADCON1 = Puertos_ADC;
  3065   00235C  C001  FFC1         	movff	init_ADC@Puertos_ADC,4033	;volatile
  3066   002360                     
  3067                           ;adc_lib.c: 7:     ADCON0 = 0x00;
  3068   002360  6AC2               	clrf	194,c	;volatile
  3069   002362                     
  3070                           ;adc_lib.c: 8:     ADCON2 = 0x8F;
  3071   002362  0E8F               	movlw	143
  3072   002364  6EC0               	movwf	192,c	;volatile
  3073   002366  0012               	return		;funcret
  3074   002368                     __end_of_init_ADC:
  3075                           	callstack 0
  3076                           
  3077 ;; *************** function _freeMov *****************
  3078 ;; Defined at:
  3079 ;;		line 148 in file "tx_main.c"
  3080 ;; Parameters:    Size  Location     Type
  3081 ;;		None
  3082 ;; Auto vars:     Size  Location     Type
  3083 ;;  flag            2   89[COMRAM] int 
  3084 ;; Return value:  Size  Location     Type
  3085 ;;                  1    wreg      void 
  3086 ;; Registers used:
  3087 ;;		wreg, status,2, status,0, prodl, prodh, cstack
  3088 ;; Tracked objects:
  3089 ;;		On entry : 0/0
  3090 ;;		On exit  : 0/0
  3091 ;;		Unchanged: 0/0
  3092 ;; Data sizes:     COMRAM   BANK0   BANK1   BANK2   BANK3   BANK4   BANK5   BANK6   BANK7
  3093 ;;      Params:         0       0       0       0       0       0       0       0       0
  3094 ;;      Locals:         2       0       0       0       0       0       0       0       0
  3095 ;;      Temps:          1       0       0       0       0       0       0       0       0
  3096 ;;      Totals:         3       0       0       0       0       0       0       0       0
  3097 ;;Total ram usage:        3 bytes
  3098 ;; Hardware stack levels used: 1
  3099 ;; Hardware stack levels required when called: 4
  3100 ;; This function calls:
  3101 ;;		_SPI_Tx
  3102 ;;		_mapping
  3103 ;;		_read_ADC
  3104 ;; This function is called by:
  3105 ;;		_main
  3106 ;; This function uses a non-reentrant model
  3107 ;;
  3108                           
  3109                           	psect	text12
  3110   0014D4                     __ptext12:
  3111                           	callstack 0
  3112   0014D4                     _freeMov:
  3113                           	callstack 26
  3114   0014D4                     
  3115                           ;tx_main.c: 149:     int flag = 0;
  3116   0014D4  0E00               	movlw	0
  3117   0014D6  6E5B               	movwf	(freeMov@flag+1)^0,c
  3118   0014D8  0E00               	movlw	0
  3119   0014DA  6E5A               	movwf	freeMov@flag^0,c
  3120                           
  3121                           ;tx_main.c: 151:     while(flag == 0){
  3122   0014DC  EF1C  F00C         	goto	l2864
  3123   0014E0                     l124:
  3124                           
  3125                           ;tx_main.c: 152:         if(PORTCbits.RC0 == 1){
  3126   0014E0  A082               	btfss	130,0,c	;volatile
  3127   0014E2  EF75  F00A         	goto	u2531
  3128   0014E6  EF77  F00A         	goto	u2530
  3129   0014EA                     u2531:
  3130   0014EA  EF80  F00A         	goto	l2804
  3131   0014EE                     u2530:
  3132   0014EE                     l126:
  3133   0014EE  B082               	btfsc	130,0,c	;volatile
  3134   0014F0  EF7C  F00A         	goto	u2541
  3135   0014F4  EF7E  F00A         	goto	u2540
  3136   0014F8                     u2541:
  3137   0014F8  EF77  F00A         	goto	l126
  3138   0014FC                     u2540:
  3139   0014FC                     
  3140                           ;tx_main.c: 154:             flag ++;
  3141   0014FC  4A5A               	infsnz	freeMov@flag^0,f,c
  3142   0014FE  2A5B               	incf	(freeMov@flag+1)^0,f,c
  3143   001500                     l2804:
  3144                           
  3145                           ;tx_main.c: 157:         dof1 = read_ADC(0);
  3146   001500  0E00               	movlw	0
  3147   001502  ECCA  F010         	call	_read_ADC
  3148   001506  C001  F0B8         	movff	?_read_ADC,_dof1
  3149   00150A  C002  F0B9         	movff	?_read_ADC+1,_dof1+1
  3150   00150E                     
  3151                           ;tx_main.c: 158:         dof2 = read_ADC(1);
  3152   00150E  0E01               	movlw	1
  3153   001510  ECCA  F010         	call	_read_ADC
  3154   001514  C001  F0B4         	movff	?_read_ADC,_dof2
  3155   001518  C002  F0B5         	movff	?_read_ADC+1,_dof2+1
  3156   00151C                     
  3157                           ;tx_main.c: 159:         dof3 = read_ADC(2);
  3158   00151C  0E02               	movlw	2
  3159   00151E  ECCA  F010         	call	_read_ADC
  3160   001522  C001  F0B0         	movff	?_read_ADC,_dof3
  3161   001526  C002  F0B1         	movff	?_read_ADC+1,_dof3+1
  3162   00152A                     
  3163                           ;tx_main.c: 160:         dof4 = read_ADC(3);
  3164   00152A  0E03               	movlw	3
  3165   00152C  ECCA  F010         	call	_read_ADC
  3166   001530  C001  F0AC         	movff	?_read_ADC,_dof4
  3167   001534  C002  F0AD         	movff	?_read_ADC+1,_dof4+1
  3168   001538                     
  3169                           ;tx_main.c: 162:         d1 = mapping(0,1023,-250,250,dof1);
  3170   001538  0E00               	movlw	0
  3171   00153A  0100               	movlb	0	; () banked
  3172   00153C  6FCC               	movwf	mapping@min_in& (0+255),b
  3173   00153E  0E00               	movlw	0
  3174   001540  6FCD               	movwf	(mapping@min_in+1)& (0+255),b
  3175   001542  0E00               	movlw	0
  3176   001544  6FCE               	movwf	(mapping@min_in+2)& (0+255),b
  3177   001546  0E00               	movlw	0
  3178   001548  6FCF               	movwf	(mapping@min_in+3)& (0+255),b
  3179   00154A  0E00               	movlw	0
  3180   00154C  6FD0               	movwf	mapping@max_in& (0+255),b
  3181   00154E  0EC0               	movlw	192
  3182   001550  6FD1               	movwf	(mapping@max_in+1)& (0+255),b
  3183   001552  0E7F               	movlw	127
  3184   001554  6FD2               	movwf	(mapping@max_in+2)& (0+255),b
  3185   001556  0E44               	movlw	68
  3186   001558  6FD3               	movwf	(mapping@max_in+3)& (0+255),b
  3187   00155A  0E00               	movlw	0
  3188   00155C  6FD4               	movwf	mapping@min_out& (0+255),b
  3189   00155E  0E00               	movlw	0
  3190   001560  6FD5               	movwf	(mapping@min_out+1)& (0+255),b
  3191   001562  0E7A               	movlw	122
  3192   001564  6FD6               	movwf	(mapping@min_out+2)& (0+255),b
  3193   001566  0EC3               	movlw	195
  3194   001568  6FD7               	movwf	(mapping@min_out+3)& (0+255),b
  3195   00156A  0E00               	movlw	0
  3196   00156C  6FD8               	movwf	mapping@max_out& (0+255),b
  3197   00156E  0E00               	movlw	0
  3198   001570  6FD9               	movwf	(mapping@max_out+1)& (0+255),b
  3199   001572  0E7A               	movlw	122
  3200   001574  6FDA               	movwf	(mapping@max_out+2)& (0+255),b
  3201   001576  0E43               	movlw	67
  3202   001578  6FDB               	movwf	(mapping@max_out+3)& (0+255),b
  3203   00157A  C0B8  F0DC         	movff	_dof1,mapping@read
  3204   00157E  C0B9  F0DD         	movff	_dof1+1,mapping@read+1
  3205   001582  EC01  F00E         	call	_mapping	;wreg free
  3206   001586  C0CC  F0B6         	movff	?_mapping,_d1
  3207   00158A  C0CD  F0B7         	movff	?_mapping+1,_d1+1
  3208   00158E                     
  3209                           ;tx_main.c: 163:         d2 = mapping(0,1023,-250,250,dof2);
  3210   00158E  0E00               	movlw	0
  3211   001590  0100               	movlb	0	; () banked
  3212   001592  6FCC               	movwf	mapping@min_in& (0+255),b
  3213   001594  0E00               	movlw	0
  3214   001596  6FCD               	movwf	(mapping@min_in+1)& (0+255),b
  3215   001598  0E00               	movlw	0
  3216   00159A  6FCE               	movwf	(mapping@min_in+2)& (0+255),b
  3217   00159C  0E00               	movlw	0
  3218   00159E  6FCF               	movwf	(mapping@min_in+3)& (0+255),b
  3219   0015A0  0E00               	movlw	0
  3220   0015A2  6FD0               	movwf	mapping@max_in& (0+255),b
  3221   0015A4  0EC0               	movlw	192
  3222   0015A6  6FD1               	movwf	(mapping@max_in+1)& (0+255),b
  3223   0015A8  0E7F               	movlw	127
  3224   0015AA  6FD2               	movwf	(mapping@max_in+2)& (0+255),b
  3225   0015AC  0E44               	movlw	68
  3226   0015AE  6FD3               	movwf	(mapping@max_in+3)& (0+255),b
  3227   0015B0  0E00               	movlw	0
  3228   0015B2  6FD4               	movwf	mapping@min_out& (0+255),b
  3229   0015B4  0E00               	movlw	0
  3230   0015B6  6FD5               	movwf	(mapping@min_out+1)& (0+255),b
  3231   0015B8  0E7A               	movlw	122
  3232   0015BA  6FD6               	movwf	(mapping@min_out+2)& (0+255),b
  3233   0015BC  0EC3               	movlw	195
  3234   0015BE  6FD7               	movwf	(mapping@min_out+3)& (0+255),b
  3235   0015C0  0E00               	movlw	0
  3236   0015C2  6FD8               	movwf	mapping@max_out& (0+255),b
  3237   0015C4  0E00               	movlw	0
  3238   0015C6  6FD9               	movwf	(mapping@max_out+1)& (0+255),b
  3239   0015C8  0E7A               	movlw	122
  3240   0015CA  6FDA               	movwf	(mapping@max_out+2)& (0+255),b
  3241   0015CC  0E43               	movlw	67
  3242   0015CE  6FDB               	movwf	(mapping@max_out+3)& (0+255),b
  3243   0015D0  C0B4  F0DC         	movff	_dof2,mapping@read
  3244   0015D4  C0B5  F0DD         	movff	_dof2+1,mapping@read+1
  3245   0015D8  EC01  F00E         	call	_mapping	;wreg free
  3246   0015DC  C0CC  F0B2         	movff	?_mapping,_d2
  3247   0015E0  C0CD  F0B3         	movff	?_mapping+1,_d2+1
  3248   0015E4                     
  3249                           ;tx_main.c: 164:         d3 = mapping(0,1023,-250,250,dof3);
  3250   0015E4  0E00               	movlw	0
  3251   0015E6  0100               	movlb	0	; () banked
  3252   0015E8  6FCC               	movwf	mapping@min_in& (0+255),b
  3253   0015EA  0E00               	movlw	0
  3254   0015EC  6FCD               	movwf	(mapping@min_in+1)& (0+255),b
  3255   0015EE  0E00               	movlw	0
  3256   0015F0  6FCE               	movwf	(mapping@min_in+2)& (0+255),b
  3257   0015F2  0E00               	movlw	0
  3258   0015F4  6FCF               	movwf	(mapping@min_in+3)& (0+255),b
  3259   0015F6  0E00               	movlw	0
  3260   0015F8  6FD0               	movwf	mapping@max_in& (0+255),b
  3261   0015FA  0EC0               	movlw	192
  3262   0015FC  6FD1               	movwf	(mapping@max_in+1)& (0+255),b
  3263   0015FE  0E7F               	movlw	127
  3264   001600  6FD2               	movwf	(mapping@max_in+2)& (0+255),b
  3265   001602  0E44               	movlw	68
  3266   001604  6FD3               	movwf	(mapping@max_in+3)& (0+255),b
  3267   001606  0E00               	movlw	0
  3268   001608  6FD4               	movwf	mapping@min_out& (0+255),b
  3269   00160A  0E00               	movlw	0
  3270   00160C  6FD5               	movwf	(mapping@min_out+1)& (0+255),b
  3271   00160E  0E7A               	movlw	122
  3272   001610  6FD6               	movwf	(mapping@min_out+2)& (0+255),b
  3273   001612  0EC3               	movlw	195
  3274   001614  6FD7               	movwf	(mapping@min_out+3)& (0+255),b
  3275   001616  0E00               	movlw	0
  3276   001618  6FD8               	movwf	mapping@max_out& (0+255),b
  3277   00161A  0E00               	movlw	0
  3278   00161C  6FD9               	movwf	(mapping@max_out+1)& (0+255),b
  3279   00161E  0E7A               	movlw	122
  3280   001620  6FDA               	movwf	(mapping@max_out+2)& (0+255),b
  3281   001622  0E43               	movlw	67
  3282   001624  6FDB               	movwf	(mapping@max_out+3)& (0+255),b
  3283   001626  C0B0  F0DC         	movff	_dof3,mapping@read
  3284   00162A  C0B1  F0DD         	movff	_dof3+1,mapping@read+1
  3285   00162E  EC01  F00E         	call	_mapping	;wreg free
  3286   001632  C0CC  F0AE         	movff	?_mapping,_d3
  3287   001636  C0CD  F0AF         	movff	?_mapping+1,_d3+1
  3288   00163A                     
  3289                           ;tx_main.c: 165:         d4 = mapping(0,1023,-250,250,dof4);
  3290   00163A  0E00               	movlw	0
  3291   00163C  0100               	movlb	0	; () banked
  3292   00163E  6FCC               	movwf	mapping@min_in& (0+255),b
  3293   001640  0E00               	movlw	0
  3294   001642  6FCD               	movwf	(mapping@min_in+1)& (0+255),b
  3295   001644  0E00               	movlw	0
  3296   001646  6FCE               	movwf	(mapping@min_in+2)& (0+255),b
  3297   001648  0E00               	movlw	0
  3298   00164A  6FCF               	movwf	(mapping@min_in+3)& (0+255),b
  3299   00164C  0E00               	movlw	0
  3300   00164E  6FD0               	movwf	mapping@max_in& (0+255),b
  3301   001650  0EC0               	movlw	192
  3302   001652  6FD1               	movwf	(mapping@max_in+1)& (0+255),b
  3303   001654  0E7F               	movlw	127
  3304   001656  6FD2               	movwf	(mapping@max_in+2)& (0+255),b
  3305   001658  0E44               	movlw	68
  3306   00165A  6FD3               	movwf	(mapping@max_in+3)& (0+255),b
  3307   00165C  0E00               	movlw	0
  3308   00165E  6FD4               	movwf	mapping@min_out& (0+255),b
  3309   001660  0E00               	movlw	0
  3310   001662  6FD5               	movwf	(mapping@min_out+1)& (0+255),b
  3311   001664  0E7A               	movlw	122
  3312   001666  6FD6               	movwf	(mapping@min_out+2)& (0+255),b
  3313   001668  0EC3               	movlw	195
  3314   00166A  6FD7               	movwf	(mapping@min_out+3)& (0+255),b
  3315   00166C  0E00               	movlw	0
  3316   00166E  6FD8               	movwf	mapping@max_out& (0+255),b
  3317   001670  0E00               	movlw	0
  3318   001672  6FD9               	movwf	(mapping@max_out+1)& (0+255),b
  3319   001674  0E7A               	movlw	122
  3320   001676  6FDA               	movwf	(mapping@max_out+2)& (0+255),b
  3321   001678  0E43               	movlw	67
  3322   00167A  6FDB               	movwf	(mapping@max_out+3)& (0+255),b
  3323   00167C  C0AC  F0DC         	movff	_dof4,mapping@read
  3324   001680  C0AD  F0DD         	movff	_dof4+1,mapping@read+1
  3325   001684  EC01  F00E         	call	_mapping	;wreg free
  3326   001688  C0CC  F0AA         	movff	?_mapping,_d4
  3327   00168C  C0CD  F0AB         	movff	?_mapping+1,_d4+1
  3328   001690                     
  3329                           ;tx_main.c: 167:         d1 = (d1 < 30 && d1 > -30) ? (d1 = 0) : (d1 = 1);
  3330   001690  0100               	movlb	0	; () banked
  3331   001692  BFB7               	btfsc	(_d1+1)& (0+255),7,b
  3332   001694  EF57  F00B         	goto	u2550
  3333   001698  51B7               	movf	(_d1+1)& (0+255),w,b
  3334   00169A  E107               	bnz	u2551
  3335   00169C  0E1E               	movlw	30
  3336   00169E  5DB6               	subwf	_d1& (0+255),w,b
  3337   0016A0  B0D8               	btfsc	status,0,c
  3338   0016A2  EF55  F00B         	goto	u2551
  3339   0016A6  EF57  F00B         	goto	u2550
  3340   0016AA                     u2551:
  3341   0016AA  EF65  F00B         	goto	l2824
  3342   0016AE                     u2550:
  3343   0016AE                     
  3344                           ; BSR set to: 0
  3345   0016AE  AFB7               	btfss	(_d1+1)& (0+255),7,b
  3346   0016B0  EF63  F00B         	goto	u2561
  3347   0016B4  0EE3               	movlw	227
  3348   0016B6  5DB6               	subwf	_d1& (0+255),w,b
  3349   0016B8  0EFF               	movlw	255
  3350   0016BA  59B7               	subwfb	(_d1+1)& (0+255),w,b
  3351   0016BC  B0D8               	btfsc	status,0,c
  3352   0016BE  EF63  F00B         	goto	u2561
  3353   0016C2  EF65  F00B         	goto	u2560
  3354   0016C6                     u2561:
  3355   0016C6  EF6F  F00B         	goto	l2826
  3356   0016CA                     u2560:
  3357   0016CA                     l2824:
  3358                           
  3359                           ; BSR set to: 0
  3360   0016CA  0E00               	movlw	0
  3361   0016CC  6FB7               	movwf	(_d1+1)& (0+255),b
  3362   0016CE  0E01               	movlw	1
  3363   0016D0  6FB6               	movwf	_d1& (0+255),b
  3364   0016D2  C0B6  F0B6         	movff	_d1,_d1
  3365   0016D6  C0B7  F0B7         	movff	_d1+1,_d1+1
  3366   0016DA  EF77  F00B         	goto	l2828
  3367   0016DE                     l2826:
  3368                           
  3369                           ; BSR set to: 0
  3370   0016DE  0E00               	movlw	0
  3371   0016E0  6FB7               	movwf	(_d1+1)& (0+255),b
  3372   0016E2  0E00               	movlw	0
  3373   0016E4  6FB6               	movwf	_d1& (0+255),b
  3374   0016E6  C0B6  F0B6         	movff	_d1,_d1
  3375   0016EA  C0B7  F0B7         	movff	_d1+1,_d1+1
  3376   0016EE                     l2828:
  3377                           
  3378                           ; BSR set to: 0
  3379                           ;tx_main.c: 168:         d2 = (d2 < 30 && d2 > -30) ? (d2 = 0) : (d2 = 1);
  3380   0016EE  BFB3               	btfsc	(_d2+1)& (0+255),7,b
  3381   0016F0  EF85  F00B         	goto	u2570
  3382   0016F4  51B3               	movf	(_d2+1)& (0+255),w,b
  3383   0016F6  E107               	bnz	u2571
  3384   0016F8  0E1E               	movlw	30
  3385   0016FA  5DB2               	subwf	_d2& (0+255),w,b
  3386   0016FC  B0D8               	btfsc	status,0,c
  3387   0016FE  EF83  F00B         	goto	u2571
  3388   001702  EF85  F00B         	goto	u2570
  3389   001706                     u2571:
  3390   001706  EF93  F00B         	goto	l2832
  3391   00170A                     u2570:
  3392   00170A                     
  3393                           ; BSR set to: 0
  3394   00170A  AFB3               	btfss	(_d2+1)& (0+255),7,b
  3395   00170C  EF91  F00B         	goto	u2581
  3396   001710  0EE3               	movlw	227
  3397   001712  5DB2               	subwf	_d2& (0+255),w,b
  3398   001714  0EFF               	movlw	255
  3399   001716  59B3               	subwfb	(_d2+1)& (0+255),w,b
  3400   001718  B0D8               	btfsc	status,0,c
  3401   00171A  EF91  F00B         	goto	u2581
  3402   00171E  EF93  F00B         	goto	u2580
  3403   001722                     u2581:
  3404   001722  EF9D  F00B         	goto	l2834
  3405   001726                     u2580:
  3406   001726                     l2832:
  3407                           
  3408                           ; BSR set to: 0
  3409   001726  0E00               	movlw	0
  3410   001728  6FB3               	movwf	(_d2+1)& (0+255),b
  3411   00172A  0E01               	movlw	1
  3412   00172C  6FB2               	movwf	_d2& (0+255),b
  3413   00172E  C0B2  F0B2         	movff	_d2,_d2
  3414   001732  C0B3  F0B3         	movff	_d2+1,_d2+1
  3415   001736  EFA5  F00B         	goto	l2836
  3416   00173A                     l2834:
  3417                           
  3418                           ; BSR set to: 0
  3419   00173A  0E00               	movlw	0
  3420   00173C  6FB3               	movwf	(_d2+1)& (0+255),b
  3421   00173E  0E00               	movlw	0
  3422   001740  6FB2               	movwf	_d2& (0+255),b
  3423   001742  C0B2  F0B2         	movff	_d2,_d2
  3424   001746  C0B3  F0B3         	movff	_d2+1,_d2+1
  3425   00174A                     l2836:
  3426                           
  3427                           ; BSR set to: 0
  3428                           ;tx_main.c: 169:         d3 = (d3 < 30 && d3 > -30) ? (d3 = 0) : (d3 = 1);
  3429   00174A  BFAF               	btfsc	(_d3+1)& (0+255),7,b
  3430   00174C  EFB3  F00B         	goto	u2590
  3431   001750  51AF               	movf	(_d3+1)& (0+255),w,b
  3432   001752  E107               	bnz	u2591
  3433   001754  0E1E               	movlw	30
  3434   001756  5DAE               	subwf	_d3& (0+255),w,b
  3435   001758  B0D8               	btfsc	status,0,c
  3436   00175A  EFB1  F00B         	goto	u2591
  3437   00175E  EFB3  F00B         	goto	u2590
  3438   001762                     u2591:
  3439   001762  EFC1  F00B         	goto	l2840
  3440   001766                     u2590:
  3441   001766                     
  3442                           ; BSR set to: 0
  3443   001766  AFAF               	btfss	(_d3+1)& (0+255),7,b
  3444   001768  EFBF  F00B         	goto	u2601
  3445   00176C  0EE3               	movlw	227
  3446   00176E  5DAE               	subwf	_d3& (0+255),w,b
  3447   001770  0EFF               	movlw	255
  3448   001772  59AF               	subwfb	(_d3+1)& (0+255),w,b
  3449   001774  B0D8               	btfsc	status,0,c
  3450   001776  EFBF  F00B         	goto	u2601
  3451   00177A  EFC1  F00B         	goto	u2600
  3452   00177E                     u2601:
  3453   00177E  EFCB  F00B         	goto	l2842
  3454   001782                     u2600:
  3455   001782                     l2840:
  3456                           
  3457                           ; BSR set to: 0
  3458   001782  0E00               	movlw	0
  3459   001784  6FAF               	movwf	(_d3+1)& (0+255),b
  3460   001786  0E01               	movlw	1
  3461   001788  6FAE               	movwf	_d3& (0+255),b
  3462   00178A  C0AE  F0AE         	movff	_d3,_d3
  3463   00178E  C0AF  F0AF         	movff	_d3+1,_d3+1
  3464   001792  EFD3  F00B         	goto	l2844
  3465   001796                     l2842:
  3466                           
  3467                           ; BSR set to: 0
  3468   001796  0E00               	movlw	0
  3469   001798  6FAF               	movwf	(_d3+1)& (0+255),b
  3470   00179A  0E00               	movlw	0
  3471   00179C  6FAE               	movwf	_d3& (0+255),b
  3472   00179E  C0AE  F0AE         	movff	_d3,_d3
  3473   0017A2  C0AF  F0AF         	movff	_d3+1,_d3+1
  3474   0017A6                     l2844:
  3475                           
  3476                           ; BSR set to: 0
  3477                           ;tx_main.c: 170:         d4 = (d4 < 30 && d4 > -30) ? (d4 = 0) : (d4 = 1);
  3478   0017A6  BFAB               	btfsc	(_d4+1)& (0+255),7,b
  3479   0017A8  EFE1  F00B         	goto	u2610
  3480   0017AC  51AB               	movf	(_d4+1)& (0+255),w,b
  3481   0017AE  E107               	bnz	u2611
  3482   0017B0  0E1E               	movlw	30
  3483   0017B2  5DAA               	subwf	_d4& (0+255),w,b
  3484   0017B4  B0D8               	btfsc	status,0,c
  3485   0017B6  EFDF  F00B         	goto	u2611
  3486   0017BA  EFE1  F00B         	goto	u2610
  3487   0017BE                     u2611:
  3488   0017BE  EFEF  F00B         	goto	l2848
  3489   0017C2                     u2610:
  3490   0017C2                     
  3491                           ; BSR set to: 0
  3492   0017C2  AFAB               	btfss	(_d4+1)& (0+255),7,b
  3493   0017C4  EFED  F00B         	goto	u2621
  3494   0017C8  0EE3               	movlw	227
  3495   0017CA  5DAA               	subwf	_d4& (0+255),w,b
  3496   0017CC  0EFF               	movlw	255
  3497   0017CE  59AB               	subwfb	(_d4+1)& (0+255),w,b
  3498   0017D0  B0D8               	btfsc	status,0,c
  3499   0017D2  EFED  F00B         	goto	u2621
  3500   0017D6  EFEF  F00B         	goto	u2620
  3501   0017DA                     u2621:
  3502   0017DA  EFF9  F00B         	goto	l2850
  3503   0017DE                     u2620:
  3504   0017DE                     l2848:
  3505                           
  3506                           ; BSR set to: 0
  3507   0017DE  0E00               	movlw	0
  3508   0017E0  6FAB               	movwf	(_d4+1)& (0+255),b
  3509   0017E2  0E01               	movlw	1
  3510   0017E4  6FAA               	movwf	_d4& (0+255),b
  3511   0017E6  C0AA  F0AA         	movff	_d4,_d4
  3512   0017EA  C0AB  F0AB         	movff	_d4+1,_d4+1
  3513   0017EE  EF01  F00C         	goto	l2852
  3514   0017F2                     l2850:
  3515                           
  3516                           ; BSR set to: 0
  3517   0017F2  0E00               	movlw	0
  3518   0017F4  6FAB               	movwf	(_d4+1)& (0+255),b
  3519   0017F6  0E00               	movlw	0
  3520   0017F8  6FAA               	movwf	_d4& (0+255),b
  3521   0017FA  C0AA  F0AA         	movff	_d4,_d4
  3522   0017FE  C0AB  F0AB         	movff	_d4+1,_d4+1
  3523   001802                     l2852:
  3524                           
  3525                           ; BSR set to: 0
  3526                           ;tx_main.c: 173:         data = d1 + dir1;
  3527   001802  0E01               	movlw	1
  3528   001804  25B6               	addwf	_d1& (0+255),w,b
  3529   001806  6FBA               	movwf	_data& (0+255),b
  3530   001808  0E00               	movlw	0
  3531   00180A  21B7               	addwfc	(_d1+1)& (0+255),w,b
  3532   00180C  6FBB               	movwf	(_data+1)& (0+255),b
  3533   00180E                     
  3534                           ; BSR set to: 0
  3535                           ;tx_main.c: 174:         LATAbits.LA5 = 0;
  3536   00180E  9A89               	bcf	137,5,c	;volatile
  3537   001810                     
  3538                           ; BSR set to: 0
  3539                           ;tx_main.c: 175:         SPI_Tx(d1);
  3540   001810  51B6               	movf	_d1& (0+255),w,b
  3541   001812  ECBB  F011         	call	_SPI_Tx
  3542   001816                     
  3543                           ;tx_main.c: 176:         _delay((unsigned long)((5)*(48000000UL/4000.0)));
  3544   001816  0E4E               	movlw	78
  3545   001818  6E59               	movwf	??_freeMov^0,c
  3546   00181A  0EEB               	movlw	235
  3547   00181C                     u2817:
  3548   00181C  2EE8               	decfsz	wreg,f,c
  3549   00181E  D7FE               	bra	u2817
  3550   001820  2E59               	decfsz	??_freeMov^0,f,c
  3551   001822  D7FC               	bra	u2817
  3552   001824  0000               	nop	
  3553   001826                     
  3554                           ;tx_main.c: 177:         LATAbits.LA5 = 1;
  3555   001826  8A89               	bsf	137,5,c	;volatile
  3556   001828                     
  3557                           ;tx_main.c: 178:         _delay((unsigned long)((5)*(48000000UL/4000.0)));
  3558   001828  0E4E               	movlw	78
  3559   00182A  6E59               	movwf	??_freeMov^0,c
  3560   00182C  0EEB               	movlw	235
  3561   00182E                     u2827:
  3562   00182E  2EE8               	decfsz	wreg,f,c
  3563   001830  D7FE               	bra	u2827
  3564   001832  2E59               	decfsz	??_freeMov^0,f,c
  3565   001834  D7FC               	bra	u2827
  3566   001836  0000               	nop	
  3567   001838                     l2864:
  3568                           
  3569                           ;tx_main.c: 151:     while(flag == 0){
  3570   001838  505A               	movf	freeMov@flag^0,w,c
  3571   00183A  105B               	iorwf	(freeMov@flag+1)^0,w,c
  3572   00183C  B4D8               	btfsc	status,2,c
  3573   00183E  EF23  F00C         	goto	u2631
  3574   001842  EF25  F00C         	goto	u2630
  3575   001846                     u2631:
  3576   001846  EF70  F00A         	goto	l124
  3577   00184A                     u2630:
  3578   00184A  0012               	return		;funcret
  3579   00184C                     __end_of_freeMov:
  3580                           	callstack 0
  3581                           
  3582 ;; *************** function _read_ADC *****************
  3583 ;; Defined at:
  3584 ;;		line 11 in file "adc_lib.c"
  3585 ;; Parameters:    Size  Location     Type
  3586 ;;  canal           1    wreg     unsigned char 
  3587 ;; Auto vars:     Size  Location     Type
  3588 ;;  canal           1    3[COMRAM] unsigned char 
  3589 ;; Return value:  Size  Location     Type
  3590 ;;                  2    0[COMRAM] unsigned int 
  3591 ;; Registers used:
  3592 ;;		wreg, status,2, status,0
  3593 ;; Tracked objects:
  3594 ;;		On entry : 0/0
  3595 ;;		On exit  : 0/0
  3596 ;;		Unchanged: 0/0
  3597 ;; Data sizes:     COMRAM   BANK0   BANK1   BANK2   BANK3   BANK4   BANK5   BANK6   BANK7
  3598 ;;      Params:         2       0       0       0       0       0       0       0       0
  3599 ;;      Locals:         1       0       0       0       0       0       0       0       0
  3600 ;;      Temps:          1       0       0       0       0       0       0       0       0
  3601 ;;      Totals:         4       0       0       0       0       0       0       0       0
  3602 ;;Total ram usage:        4 bytes
  3603 ;; Hardware stack levels used: 1
  3604 ;; Hardware stack levels required when called: 1
  3605 ;; This function calls:
  3606 ;;		Nothing
  3607 ;; This function is called by:
  3608 ;;		_freeMov
  3609 ;; This function uses a non-reentrant model
  3610 ;;
  3611                           
  3612                           	psect	text13
  3613   002194                     __ptext13:
  3614                           	callstack 0
  3615   002194                     _read_ADC:
  3616                           	callstack 28
  3617                           
  3618                           ;incstack = 0
  3619                           ;read_ADC@canal stored from wreg
  3620   002194  6E04               	movwf	read_ADC@canal^0,c
  3621   002196                     
  3622                           ;adc_lib.c: 12:     if (canal>13){
  3623   002196  0E0D               	movlw	13
  3624   002198  6404               	cpfsgt	read_ADC@canal^0,c
  3625   00219A  EFD1  F010         	goto	u2441
  3626   00219E  EFD3  F010         	goto	u2440
  3627   0021A2                     u2441:
  3628   0021A2  EFD9  F010         	goto	l230
  3629   0021A6                     u2440:
  3630   0021A6                     
  3631                           ;adc_lib.c: 13:         return 0;
  3632   0021A6  0E00               	movlw	0
  3633   0021A8  6E02               	movwf	(?_read_ADC+1)^0,c
  3634   0021AA  0E00               	movlw	0
  3635   0021AC  6E01               	movwf	?_read_ADC^0,c
  3636   0021AE  EFF1  F010         	goto	l231
  3637   0021B2                     l230:
  3638                           
  3639                           ;adc_lib.c: 15:         ADCON0 = 0x00;
  3640   0021B2  6AC2               	clrf	194,c	;volatile
  3641   0021B4                     
  3642                           ;adc_lib.c: 16:         ADCON0bits.CHS = canal;
  3643   0021B4  C004  F003         	movff	read_ADC@canal,??_read_ADC
  3644   0021B8  4603               	rlncf	??_read_ADC^0,f,c
  3645   0021BA  4603               	rlncf	??_read_ADC^0,f,c
  3646   0021BC  50C2               	movf	194,w,c	;volatile
  3647   0021BE  1803               	xorwf	??_read_ADC^0,w,c
  3648   0021C0  0BC3               	andlw	-61
  3649   0021C2  1803               	xorwf	??_read_ADC^0,w,c
  3650   0021C4  6EC2               	movwf	194,c	;volatile
  3651   0021C6                     
  3652                           ;adc_lib.c: 19:         ADCON0bits.ADON = 1;
  3653   0021C6  80C2               	bsf	194,0,c	;volatile
  3654   0021C8                     
  3655                           ;adc_lib.c: 20:         ADCON0bits.GO_DONE = 1;
  3656   0021C8  82C2               	bsf	194,1,c	;volatile
  3657   0021CA                     l233:
  3658   0021CA  B2C2               	btfsc	194,1,c	;volatile
  3659   0021CC  EFEA  F010         	goto	u2451
  3660   0021D0  EFEC  F010         	goto	u2450
  3661   0021D4                     u2451:
  3662   0021D4  EFE5  F010         	goto	l233
  3663   0021D8                     u2450:
  3664   0021D8                     
  3665                           ;adc_lib.c: 22:         ADCON0bits.ADON = 0;
  3666   0021D8  90C2               	bcf	194,0,c	;volatile
  3667                           
  3668                           ;adc_lib.c: 23:         return ADRES;
  3669   0021DA  CFC3 F001          	movff	4035,?_read_ADC	;volatile
  3670   0021DE  CFC4 F002          	movff	4036,?_read_ADC+1	;volatile
  3671   0021E2                     l231:
  3672   0021E2  0012               	return		;funcret
  3673   0021E4                     __end_of_read_ADC:
  3674                           	callstack 0
  3675                           
  3676 ;; *************** function _mapping *****************
  3677 ;; Defined at:
  3678 ;;		line 140 in file "tx_main.c"
  3679 ;; Parameters:    Size  Location     Type
  3680 ;;  min_in          4    0[BANK0 ] float 
  3681 ;;  max_in          4    4[BANK0 ] float 
  3682 ;;  min_out         4    8[BANK0 ] float 
  3683 ;;  max_out         4   12[BANK0 ] float 
  3684 ;;  read            2   16[BANK0 ] int 
  3685 ;; Auto vars:     Size  Location     Type
  3686 ;;  m               4   24[BANK0 ] float 
  3687 ;;  b               4   18[BANK0 ] float 
  3688 ;;  y               2   22[BANK0 ] int 
  3689 ;; Return value:  Size  Location     Type
  3690 ;;                  2    0[BANK0 ] int 
  3691 ;; Registers used:
  3692 ;;		wreg, status,2, status,0, prodl, prodh, cstack
  3693 ;; Tracked objects:
  3694 ;;		On entry : 0/0
  3695 ;;		On exit  : 0/0
  3696 ;;		Unchanged: 0/0
  3697 ;; Data sizes:     COMRAM   BANK0   BANK1   BANK2   BANK3   BANK4   BANK5   BANK6   BANK7
  3698 ;;      Params:         0      18       0       0       0       0       0       0       0
  3699 ;;      Locals:         0      10       0       0       0       0       0       0       0
  3700 ;;      Temps:          0       0       0       0       0       0       0       0       0
  3701 ;;      Totals:         0      28       0       0       0       0       0       0       0
  3702 ;;Total ram usage:       28 bytes
  3703 ;; Hardware stack levels used: 1
  3704 ;; Hardware stack levels required when called: 3
  3705 ;; This function calls:
  3706 ;;		___fladd
  3707 ;;		___fldiv
  3708 ;;		___flmul
  3709 ;;		___flsub
  3710 ;;		___fltol
  3711 ;;		___xxtofl
  3712 ;; This function is called by:
  3713 ;;		_freeMov
  3714 ;; This function uses a non-reentrant model
  3715 ;;
  3716                           
  3717                           	psect	text14
  3718   001C02                     __ptext14:
  3719                           	callstack 0
  3720   001C02                     _mapping:
  3721                           	callstack 26
  3722   001C02                     
  3723                           ;tx_main.c: 142:     m = (float)((max_out - min_out) / (max_in - min_in));
  3724   001C02  C0D4  F03C         	movff	mapping@min_out,___flsub@a
  3725   001C06  C0D5  F03D         	movff	mapping@min_out+1,___flsub@a+1
  3726   001C0A  C0D6  F03E         	movff	mapping@min_out+2,___flsub@a+2
  3727   001C0E  C0D7  F03F         	movff	mapping@min_out+3,___flsub@a+3
  3728   001C12  C0D8  F038         	movff	mapping@max_out,___flsub@b
  3729   001C16  C0D9  F039         	movff	mapping@max_out+1,___flsub@b+1
  3730   001C1A  C0DA  F03A         	movff	mapping@max_out+2,___flsub@b+2
  3731   001C1E  C0DB  F03B         	movff	mapping@max_out+3,___flsub@b+3
  3732   001C22  ECF2  F010         	call	___flsub	;wreg free
  3733   001C26  C038  F040         	movff	?___flsub,___fldiv@b
  3734   001C2A  C039  F041         	movff	?___flsub+1,___fldiv@b+1
  3735   001C2E  C03A  F042         	movff	?___flsub+2,___fldiv@b+2
  3736   001C32  C03B  F043         	movff	?___flsub+3,___fldiv@b+3
  3737   001C36  C0CC  F03C         	movff	mapping@min_in,___flsub@a
  3738   001C3A  C0CD  F03D         	movff	mapping@min_in+1,___flsub@a+1
  3739   001C3E  C0CE  F03E         	movff	mapping@min_in+2,___flsub@a+2
  3740   001C42  C0CF  F03F         	movff	mapping@min_in+3,___flsub@a+3
  3741   001C46  C0D0  F038         	movff	mapping@max_in,___flsub@b
  3742   001C4A  C0D1  F039         	movff	mapping@max_in+1,___flsub@b+1
  3743   001C4E  C0D2  F03A         	movff	mapping@max_in+2,___flsub@b+2
  3744   001C52  C0D3  F03B         	movff	mapping@max_in+3,___flsub@b+3
  3745   001C56  ECF2  F010         	call	___flsub	;wreg free
  3746   001C5A  C038  F044         	movff	?___flsub,___fldiv@a
  3747   001C5E  C039  F045         	movff	?___flsub+1,___fldiv@a+1
  3748   001C62  C03A  F046         	movff	?___flsub+2,___fldiv@a+2
  3749   001C66  C03B  F047         	movff	?___flsub+3,___fldiv@a+3
  3750   001C6A  ECA2  F008         	call	___fldiv	;wreg free
  3751   001C6E  C040  F0E4         	movff	?___fldiv,mapping@m
  3752   001C72  C041  F0E5         	movff	?___fldiv+1,mapping@m+1
  3753   001C76  C042  F0E6         	movff	?___fldiv+2,mapping@m+2
  3754   001C7A  C043  F0E7         	movff	?___fldiv+3,mapping@m+3
  3755   001C7E                     
  3756                           ;tx_main.c: 143:     b = (float)((min_out) - (m * min_in));
  3757   001C7E  C0D4  F038         	movff	mapping@min_out,___flsub@b
  3758   001C82  C0D5  F039         	movff	mapping@min_out+1,___flsub@b+1
  3759   001C86  C0D6  F03A         	movff	mapping@min_out+2,___flsub@b+2
  3760   001C8A  C0D7  F03B         	movff	mapping@min_out+3,___flsub@b+3
  3761   001C8E  C0CC  F013         	movff	mapping@min_in,___flmul@a
  3762   001C92  C0CD  F014         	movff	mapping@min_in+1,___flmul@a+1
  3763   001C96  C0CE  F015         	movff	mapping@min_in+2,___flmul@a+2
  3764   001C9A  C0CF  F016         	movff	mapping@min_in+3,___flmul@a+3
  3765   001C9E  C0E4  F00F         	movff	mapping@m,___flmul@b
  3766   001CA2  C0E5  F010         	movff	mapping@m+1,___flmul@b+1
  3767   001CA6  C0E6  F011         	movff	mapping@m+2,___flmul@b+2
  3768   001CAA  C0E7  F012         	movff	mapping@m+3,___flmul@b+3
  3769   001CAE  EC8F  F006         	call	___flmul	;wreg free
  3770   001CB2  C00F  F03C         	movff	?___flmul,___flsub@a
  3771   001CB6  C010  F03D         	movff	?___flmul+1,___flsub@a+1
  3772   001CBA  C011  F03E         	movff	?___flmul+2,___flsub@a+2
  3773   001CBE  C012  F03F         	movff	?___flmul+3,___flsub@a+3
  3774   001CC2  ECF2  F010         	call	___flsub	;wreg free
  3775   001CC6  C038  F0DE         	movff	?___flsub,mapping@b
  3776   001CCA  C039  F0DF         	movff	?___flsub+1,mapping@b+1
  3777   001CCE  C03A  F0E0         	movff	?___flsub+2,mapping@b+2
  3778   001CD2  C03B  F0E1         	movff	?___flsub+3,mapping@b+3
  3779   001CD6                     
  3780                           ;tx_main.c: 144:     y = ((m) * read) + b;
  3781   001CD6  C0DE  F02C         	movff	mapping@b,___fladd@a
  3782   001CDA  C0DF  F02D         	movff	mapping@b+1,___fladd@a+1
  3783   001CDE  C0E0  F02E         	movff	mapping@b+2,___fladd@a+2
  3784   001CE2  C0E1  F02F         	movff	mapping@b+3,___fladd@a+3
  3785   001CE6  C0E4  F013         	movff	mapping@m,___flmul@a
  3786   001CEA  C0E5  F014         	movff	mapping@m+1,___flmul@a+1
  3787   001CEE  C0E6  F015         	movff	mapping@m+2,___flmul@a+2
  3788   001CF2  C0E7  F016         	movff	mapping@m+3,___flmul@a+3
  3789   001CF6  C0DC  F001         	movff	mapping@read,___xxtofl@val
  3790   001CFA  C0DD  F002         	movff	mapping@read+1,___xxtofl@val+1
  3791   001CFE  0E00               	movlw	0
  3792   001D00  BE02               	btfsc	(___xxtofl@val+1)^0,7,c
  3793   001D02  0EFF               	movlw	-1
  3794   001D04  6E03               	movwf	(___xxtofl@val+2)^0,c
  3795   001D06  6E04               	movwf	(___xxtofl@val+3)^0,c
  3796   001D08  0E01               	movlw	1
  3797   001D0A  EC27  F00D         	call	___xxtofl
  3798   001D0E  C001  F00F         	movff	?___xxtofl,___flmul@b
  3799   001D12  C002  F010         	movff	?___xxtofl+1,___flmul@b+1
  3800   001D16  C003  F011         	movff	?___xxtofl+2,___flmul@b+2
  3801   001D1A  C004  F012         	movff	?___xxtofl+3,___flmul@b+3
  3802   001D1E  EC8F  F006         	call	___flmul	;wreg free
  3803   001D22  C00F  F028         	movff	?___flmul,___fladd@b
  3804   001D26  C010  F029         	movff	?___flmul+1,___fladd@b+1
  3805   001D2A  C011  F02A         	movff	?___flmul+2,___fladd@b+2
  3806   001D2E  C012  F02B         	movff	?___flmul+3,___fladd@b+3
  3807   001D32  EC34  F004         	call	___fladd	;wreg free
  3808   001D36  C028  F038         	movff	?___fladd,___fltol@f1
  3809   001D3A  C029  F039         	movff	?___fladd+1,___fltol@f1+1
  3810   001D3E  C02A  F03A         	movff	?___fladd+2,___fltol@f1+2
  3811   001D42  C02B  F03B         	movff	?___fladd+3,___fltol@f1+3
  3812   001D46  ECAE  F00E         	call	___fltol	;wreg free
  3813   001D4A  C038  F0E2         	movff	?___fltol,mapping@y
  3814   001D4E  C039  F0E3         	movff	?___fltol+1,mapping@y+1
  3815   001D52                     
  3816                           ;tx_main.c: 145:     return y;
  3817   001D52  C0E2  F0CC         	movff	mapping@y,?_mapping
  3818   001D56  C0E3  F0CD         	movff	mapping@y+1,?_mapping+1
  3819   001D5A  0012               	return		;funcret
  3820   001D5C                     __end_of_mapping:
  3821                           	callstack 0
  3822                           
  3823 ;; *************** function ___xxtofl *****************
  3824 ;; Defined at:
  3825 ;;		line 10 in file "C:\Program Files\Microchip\xc8\v2.50\pic\sources\c99\common\xxtofl.c"
  3826 ;; Parameters:    Size  Location     Type
  3827 ;;  sign            1    wreg     unsigned char 
  3828 ;;  val             4    0[COMRAM] long 
  3829 ;; Auto vars:     Size  Location     Type
  3830 ;;  sign            1    8[COMRAM] unsigned char 
  3831 ;;  arg             4   10[COMRAM] unsigned long 
  3832 ;;  exp             1    9[COMRAM] unsigned char 
  3833 ;; Return value:  Size  Location     Type
  3834 ;;                  4    0[COMRAM] unsigned char 
  3835 ;; Registers used:
  3836 ;;		wreg, status,2, status,0
  3837 ;; Tracked objects:
  3838 ;;		On entry : 0/0
  3839 ;;		On exit  : 0/0
  3840 ;;		Unchanged: 0/0
  3841 ;; Data sizes:     COMRAM   BANK0   BANK1   BANK2   BANK3   BANK4   BANK5   BANK6   BANK7
  3842 ;;      Params:         4       0       0       0       0       0       0       0       0
  3843 ;;      Locals:         6       0       0       0       0       0       0       0       0
  3844 ;;      Temps:          4       0       0       0       0       0       0       0       0
  3845 ;;      Totals:        14       0       0       0       0       0       0       0       0
  3846 ;;Total ram usage:       14 bytes
  3847 ;; Hardware stack levels used: 1
  3848 ;; Hardware stack levels required when called: 1
  3849 ;; This function calls:
  3850 ;;		Nothing
  3851 ;; This function is called by:
  3852 ;;		_mapping
  3853 ;; This function uses a non-reentrant model
  3854 ;;
  3855                           
  3856                           	psect	text15
  3857   001A4E                     __ptext15:
  3858                           	callstack 0
  3859   001A4E                     ___xxtofl:
  3860                           	callstack 27
  3861                           
  3862                           ;incstack = 0
  3863                           ;___xxtofl@sign stored from wreg
  3864   001A4E  6E09               	movwf	___xxtofl@sign^0,c
  3865   001A50  5009               	movf	___xxtofl@sign^0,w,c
  3866   001A52  B4D8               	btfsc	status,2,c
  3867   001A54  EF2E  F00D         	goto	u2331
  3868   001A58  EF30  F00D         	goto	u2330
  3869   001A5C                     u2331:
  3870   001A5C  EF52  F00D         	goto	l941
  3871   001A60                     u2330:
  3872   001A60  BE04               	btfsc	(___xxtofl@val+3)^0,7,c
  3873   001A62  EF37  F00D         	goto	u2340
  3874   001A66  EF35  F00D         	goto	u2341
  3875   001A6A                     u2341:
  3876   001A6A  EF52  F00D         	goto	l941
  3877   001A6E                     u2340:
  3878   001A6E  C001  F005         	movff	___xxtofl@val,??___xxtofl
  3879   001A72  C002  F006         	movff	___xxtofl@val+1,??___xxtofl+1
  3880   001A76  C003  F007         	movff	___xxtofl@val+2,??___xxtofl+2
  3881   001A7A  C004  F008         	movff	___xxtofl@val+3,??___xxtofl+3
  3882   001A7E  1E05               	comf	??___xxtofl^0,f,c
  3883   001A80  1E06               	comf	(??___xxtofl+1)^0,f,c
  3884   001A82  1E07               	comf	(??___xxtofl+2)^0,f,c
  3885   001A84  1E08               	comf	(??___xxtofl+3)^0,f,c
  3886   001A86  2A05               	incf	??___xxtofl^0,f,c
  3887   001A88  0E00               	movlw	0
  3888   001A8A  2206               	addwfc	(??___xxtofl+1)^0,f,c
  3889   001A8C  2207               	addwfc	(??___xxtofl+2)^0,f,c
  3890   001A8E  2208               	addwfc	(??___xxtofl+3)^0,f,c
  3891   001A90  C005  F00B         	movff	??___xxtofl,___xxtofl@arg
  3892   001A94  C006  F00C         	movff	??___xxtofl+1,___xxtofl@arg+1
  3893   001A98  C007  F00D         	movff	??___xxtofl+2,___xxtofl@arg+2
  3894   001A9C  C008  F00E         	movff	??___xxtofl+3,___xxtofl@arg+3
  3895   001AA0  EF5A  F00D         	goto	l2556
  3896   001AA4                     l941:
  3897   001AA4  C001  F00B         	movff	___xxtofl@val,___xxtofl@arg
  3898   001AA8  C002  F00C         	movff	___xxtofl@val+1,___xxtofl@arg+1
  3899   001AAC  C003  F00D         	movff	___xxtofl@val+2,___xxtofl@arg+2
  3900   001AB0  C004  F00E         	movff	___xxtofl@val+3,___xxtofl@arg+3
  3901   001AB4                     l2556:
  3902   001AB4  5001               	movf	___xxtofl@val^0,w,c
  3903   001AB6  1002               	iorwf	(___xxtofl@val+1)^0,w,c
  3904   001AB8  1003               	iorwf	(___xxtofl@val+2)^0,w,c
  3905   001ABA  1004               	iorwf	(___xxtofl@val+3)^0,w,c
  3906   001ABC  A4D8               	btfss	status,2,c
  3907   001ABE  EF63  F00D         	goto	u2351
  3908   001AC2  EF65  F00D         	goto	u2350
  3909   001AC6                     u2351:
  3910   001AC6  EF6F  F00D         	goto	l2562
  3911   001ACA                     u2350:
  3912   001ACA  0E00               	movlw	0
  3913   001ACC  6E01               	movwf	?___xxtofl^0,c
  3914   001ACE  0E00               	movlw	0
  3915   001AD0  6E02               	movwf	(?___xxtofl+1)^0,c
  3916   001AD2  0E00               	movlw	0
  3917   001AD4  6E03               	movwf	(?___xxtofl+2)^0,c
  3918   001AD6  0E00               	movlw	0
  3919   001AD8  6E04               	movwf	(?___xxtofl+3)^0,c
  3920   001ADA  EF00  F00E         	goto	l944
  3921   001ADE                     l2562:
  3922   001ADE  0E96               	movlw	150
  3923   001AE0  6E0A               	movwf	___xxtofl@exp^0,c
  3924   001AE2  EF79  F00D         	goto	l2566
  3925   001AE6                     l2564:
  3926   001AE6  2A0A               	incf	___xxtofl@exp^0,f,c
  3927   001AE8  90D8               	bcf	status,0,c
  3928   001AEA  320E               	rrcf	(___xxtofl@arg+3)^0,f,c
  3929   001AEC  320D               	rrcf	(___xxtofl@arg+2)^0,f,c
  3930   001AEE  320C               	rrcf	(___xxtofl@arg+1)^0,f,c
  3931   001AF0  320B               	rrcf	___xxtofl@arg^0,f,c
  3932   001AF2                     l2566:
  3933   001AF2  0E00               	movlw	0
  3934   001AF4  140B               	andwf	___xxtofl@arg^0,w,c
  3935   001AF6  6E05               	movwf	??___xxtofl^0,c
  3936   001AF8  0E00               	movlw	0
  3937   001AFA  140C               	andwf	(___xxtofl@arg+1)^0,w,c
  3938   001AFC  6E06               	movwf	(??___xxtofl+1)^0,c
  3939   001AFE  0E00               	movlw	0
  3940   001B00  140D               	andwf	(___xxtofl@arg+2)^0,w,c
  3941   001B02  6E07               	movwf	(??___xxtofl+2)^0,c
  3942   001B04  0EFE               	movlw	254
  3943   001B06  140E               	andwf	(___xxtofl@arg+3)^0,w,c
  3944   001B08  6E08               	movwf	(??___xxtofl+3)^0,c
  3945   001B0A  5005               	movf	??___xxtofl^0,w,c
  3946   001B0C  1006               	iorwf	(??___xxtofl+1)^0,w,c
  3947   001B0E  1007               	iorwf	(??___xxtofl+2)^0,w,c
  3948   001B10  1008               	iorwf	(??___xxtofl+3)^0,w,c
  3949   001B12  A4D8               	btfss	status,2,c
  3950   001B14  EF8E  F00D         	goto	u2361
  3951   001B18  EF90  F00D         	goto	u2360
  3952   001B1C                     u2361:
  3953   001B1C  EF73  F00D         	goto	l2564
  3954   001B20                     u2360:
  3955   001B20  EF9E  F00D         	goto	l948
  3956   001B24                     l2568:
  3957   001B24  2A0A               	incf	___xxtofl@exp^0,f,c
  3958   001B26  0E01               	movlw	1
  3959   001B28  260B               	addwf	___xxtofl@arg^0,f,c
  3960   001B2A  0E00               	movlw	0
  3961   001B2C  220C               	addwfc	(___xxtofl@arg+1)^0,f,c
  3962   001B2E  220D               	addwfc	(___xxtofl@arg+2)^0,f,c
  3963   001B30  220E               	addwfc	(___xxtofl@arg+3)^0,f,c
  3964   001B32  90D8               	bcf	status,0,c
  3965   001B34  320E               	rrcf	(___xxtofl@arg+3)^0,f,c
  3966   001B36  320D               	rrcf	(___xxtofl@arg+2)^0,f,c
  3967   001B38  320C               	rrcf	(___xxtofl@arg+1)^0,f,c
  3968   001B3A  320B               	rrcf	___xxtofl@arg^0,f,c
  3969   001B3C                     l948:
  3970   001B3C  0E00               	movlw	0
  3971   001B3E  140B               	andwf	___xxtofl@arg^0,w,c
  3972   001B40  6E05               	movwf	??___xxtofl^0,c
  3973   001B42  0E00               	movlw	0
  3974   001B44  140C               	andwf	(___xxtofl@arg+1)^0,w,c
  3975   001B46  6E06               	movwf	(??___xxtofl+1)^0,c
  3976   001B48  0E00               	movlw	0
  3977   001B4A  140D               	andwf	(___xxtofl@arg+2)^0,w,c
  3978   001B4C  6E07               	movwf	(??___xxtofl+2)^0,c
  3979   001B4E  0EFF               	movlw	255
  3980   001B50  140E               	andwf	(___xxtofl@arg+3)^0,w,c
  3981   001B52  6E08               	movwf	(??___xxtofl+3)^0,c
  3982   001B54  5005               	movf	??___xxtofl^0,w,c
  3983   001B56  1006               	iorwf	(??___xxtofl+1)^0,w,c
  3984   001B58  1007               	iorwf	(??___xxtofl+2)^0,w,c
  3985   001B5A  1008               	iorwf	(??___xxtofl+3)^0,w,c
  3986   001B5C  A4D8               	btfss	status,2,c
  3987   001B5E  EFB3  F00D         	goto	u2371
  3988   001B62  EFB5  F00D         	goto	u2370
  3989   001B66                     u2371:
  3990   001B66  EF92  F00D         	goto	l2568
  3991   001B6A                     u2370:
  3992   001B6A  EFBD  F00D         	goto	l2576
  3993   001B6E                     l2574:
  3994   001B6E  060A               	decf	___xxtofl@exp^0,f,c
  3995   001B70  90D8               	bcf	status,0,c
  3996   001B72  360B               	rlcf	___xxtofl@arg^0,f,c
  3997   001B74  360C               	rlcf	(___xxtofl@arg+1)^0,f,c
  3998   001B76  360D               	rlcf	(___xxtofl@arg+2)^0,f,c
  3999   001B78  360E               	rlcf	(___xxtofl@arg+3)^0,f,c
  4000   001B7A                     l2576:
  4001   001B7A  BE0D               	btfsc	(___xxtofl@arg+2)^0,7,c
  4002   001B7C  EFC2  F00D         	goto	u2381
  4003   001B80  EFC4  F00D         	goto	u2380
  4004   001B84                     u2381:
  4005   001B84  EFCC  F00D         	goto	l955
  4006   001B88                     u2380:
  4007   001B88  0E02               	movlw	2
  4008   001B8A  600A               	cpfslt	___xxtofl@exp^0,c
  4009   001B8C  EFCA  F00D         	goto	u2391
  4010   001B90  EFCC  F00D         	goto	u2390
  4011   001B94                     u2391:
  4012   001B94  EFB7  F00D         	goto	l2574
  4013   001B98                     u2390:
  4014   001B98                     l955:
  4015   001B98  B00A               	btfsc	___xxtofl@exp^0,0,c
  4016   001B9A  EFD1  F00D         	goto	u2401
  4017   001B9E  EFD3  F00D         	goto	u2400
  4018   001BA2                     u2401:
  4019   001BA2  EFD4  F00D         	goto	l2582
  4020   001BA6                     u2400:
  4021   001BA6  9E0D               	bcf	(___xxtofl@arg+2)^0,7,c
  4022   001BA8                     l2582:
  4023   001BA8  90D8               	bcf	status,0,c
  4024   001BAA  320A               	rrcf	___xxtofl@exp^0,f,c
  4025   001BAC  C00A  F005         	movff	___xxtofl@exp,??___xxtofl
  4026   001BB0  6A06               	clrf	(??___xxtofl+1)^0,c
  4027   001BB2  6A07               	clrf	(??___xxtofl+2)^0,c
  4028   001BB4  6A08               	clrf	(??___xxtofl+3)^0,c
  4029   001BB6  C005  F008         	movff	??___xxtofl,??___xxtofl+3
  4030   001BBA  6A07               	clrf	(??___xxtofl+2)^0,c
  4031   001BBC  6A06               	clrf	(??___xxtofl+1)^0,c
  4032   001BBE  6A05               	clrf	??___xxtofl^0,c
  4033   001BC0  5005               	movf	??___xxtofl^0,w,c
  4034   001BC2  120B               	iorwf	___xxtofl@arg^0,f,c
  4035   001BC4  5006               	movf	(??___xxtofl+1)^0,w,c
  4036   001BC6  120C               	iorwf	(___xxtofl@arg+1)^0,f,c
  4037   001BC8  5007               	movf	(??___xxtofl+2)^0,w,c
  4038   001BCA  120D               	iorwf	(___xxtofl@arg+2)^0,f,c
  4039   001BCC  5008               	movf	(??___xxtofl+3)^0,w,c
  4040   001BCE  120E               	iorwf	(___xxtofl@arg+3)^0,f,c
  4041   001BD0  5009               	movf	___xxtofl@sign^0,w,c
  4042   001BD2  B4D8               	btfsc	status,2,c
  4043   001BD4  EFEE  F00D         	goto	u2411
  4044   001BD8  EFF0  F00D         	goto	u2410
  4045   001BDC                     u2411:
  4046   001BDC  EFF8  F00D         	goto	l2592
  4047   001BE0                     u2410:
  4048   001BE0  BE04               	btfsc	(___xxtofl@val+3)^0,7,c
  4049   001BE2  EFF7  F00D         	goto	u2420
  4050   001BE6  EFF5  F00D         	goto	u2421
  4051   001BEA                     u2421:
  4052   001BEA  EFF8  F00D         	goto	l2592
  4053   001BEE                     u2420:
  4054   001BEE  8E0E               	bsf	(___xxtofl@arg+3)^0,7,c
  4055   001BF0                     l2592:
  4056   001BF0  C00B  F001         	movff	___xxtofl@arg,?___xxtofl
  4057   001BF4  C00C  F002         	movff	___xxtofl@arg+1,?___xxtofl+1
  4058   001BF8  C00D  F003         	movff	___xxtofl@arg+2,?___xxtofl+2
  4059   001BFC  C00E  F004         	movff	___xxtofl@arg+3,?___xxtofl+3
  4060   001C00                     l944:
  4061   001C00  0012               	return		;funcret
  4062   001C02                     __end_of___xxtofl:
  4063                           	callstack 0
  4064                           
  4065 ;; *************** function ___fltol *****************
  4066 ;; Defined at:
  4067 ;;		line 43 in file "C:\Program Files\Microchip\xc8\v2.50\pic\sources\c99\common\fltol.c"
  4068 ;; Parameters:    Size  Location     Type
  4069 ;;  f1              4   55[COMRAM] unsigned char 
  4070 ;; Auto vars:     Size  Location     Type
  4071 ;;  exp1            1   64[COMRAM] unsigned char 
  4072 ;;  sign1           1   63[COMRAM] unsigned char 
  4073 ;; Return value:  Size  Location     Type
  4074 ;;                  4   55[COMRAM] long 
  4075 ;; Registers used:
  4076 ;;		wreg, status,2, status,0
  4077 ;; Tracked objects:
  4078 ;;		On entry : 0/0
  4079 ;;		On exit  : 0/0
  4080 ;;		Unchanged: 0/0
  4081 ;; Data sizes:     COMRAM   BANK0   BANK1   BANK2   BANK3   BANK4   BANK5   BANK6   BANK7
  4082 ;;      Params:         4       0       0       0       0       0       0       0       0
  4083 ;;      Locals:         2       0       0       0       0       0       0       0       0
  4084 ;;      Temps:          4       0       0       0       0       0       0       0       0
  4085 ;;      Totals:        10       0       0       0       0       0       0       0       0
  4086 ;;Total ram usage:       10 bytes
  4087 ;; Hardware stack levels used: 1
  4088 ;; Hardware stack levels required when called: 1
  4089 ;; This function calls:
  4090 ;;		Nothing
  4091 ;; This function is called by:
  4092 ;;		_mapping
  4093 ;; This function uses a non-reentrant model
  4094 ;;
  4095                           
  4096                           	psect	text16
  4097   001D5C                     __ptext16:
  4098                           	callstack 0
  4099   001D5C                     ___fltol:
  4100                           	callstack 27
  4101   001D5C  343A               	rlcf	(___fltol@f1+2)^0,w,c
  4102   001D5E  343B               	rlcf	(___fltol@f1+3)^0,w,c
  4103   001D60  6E41               	movwf	___fltol@exp1^0,c
  4104   001D62  5041               	movf	___fltol@exp1^0,w,c
  4105   001D64  A4D8               	btfss	status,2,c
  4106   001D66  EFB7  F00E         	goto	u2261
  4107   001D6A  EFB9  F00E         	goto	u2260
  4108   001D6E                     u2261:
  4109   001D6E  EFC3  F00E         	goto	l2512
  4110   001D72                     u2260:
  4111   001D72                     l2508:
  4112   001D72  0E00               	movlw	0
  4113   001D74  6E38               	movwf	?___fltol^0,c
  4114   001D76  0E00               	movlw	0
  4115   001D78  6E39               	movwf	(?___fltol+1)^0,c
  4116   001D7A  0E00               	movlw	0
  4117   001D7C  6E3A               	movwf	(?___fltol+2)^0,c
  4118   001D7E  0E00               	movlw	0
  4119   001D80  6E3B               	movwf	(?___fltol+3)^0,c
  4120   001D82  EF30  F00F         	goto	l583
  4121   001D86                     l2512:
  4122   001D86  C038  F03C         	movff	___fltol@f1,??___fltol
  4123   001D8A  C039  F03D         	movff	___fltol@f1+1,??___fltol+1
  4124   001D8E  C03A  F03E         	movff	___fltol@f1+2,??___fltol+2
  4125   001D92  C03B  F03F         	movff	___fltol@f1+3,??___fltol+3
  4126   001D96  0E20               	movlw	32
  4127   001D98  EFD3  F00E         	goto	u2270
  4128   001D9C                     u2275:
  4129   001D9C  90D8               	bcf	status,0,c
  4130   001D9E  323F               	rrcf	(??___fltol+3)^0,f,c
  4131   001DA0  323E               	rrcf	(??___fltol+2)^0,f,c
  4132   001DA2  323D               	rrcf	(??___fltol+1)^0,f,c
  4133   001DA4  323C               	rrcf	??___fltol^0,f,c
  4134   001DA6                     u2270:
  4135   001DA6  2EE8               	decfsz	wreg,f,c
  4136   001DA8  EFCE  F00E         	goto	u2275
  4137   001DAC  503C               	movf	??___fltol^0,w,c
  4138   001DAE  6E40               	movwf	___fltol@sign1^0,c
  4139   001DB0  8E3A               	bsf	(___fltol@f1+2)^0,7,c
  4140   001DB2  0EFF               	movlw	255
  4141   001DB4  1638               	andwf	___fltol@f1^0,f,c
  4142   001DB6  0EFF               	movlw	255
  4143   001DB8  1639               	andwf	(___fltol@f1+1)^0,f,c
  4144   001DBA  0EFF               	movlw	255
  4145   001DBC  163A               	andwf	(___fltol@f1+2)^0,f,c
  4146   001DBE  0E00               	movlw	0
  4147   001DC0  163B               	andwf	(___fltol@f1+3)^0,f,c
  4148   001DC2  0E96               	movlw	150
  4149   001DC4  5E41               	subwf	___fltol@exp1^0,f,c
  4150   001DC6  BE41               	btfsc	___fltol@exp1^0,7,c
  4151   001DC8  EFEA  F00E         	goto	u2280
  4152   001DCC  EFE8  F00E         	goto	u2281
  4153   001DD0                     u2281:
  4154   001DD0  EF00  F00F         	goto	l2532
  4155   001DD4                     u2280:
  4156   001DD4  5041               	movf	___fltol@exp1^0,w,c
  4157   001DD6  0A80               	xorlw	128
  4158   001DD8  0F97               	addlw	151
  4159   001DDA  B0D8               	btfsc	status,0,c
  4160   001DDC  EFF2  F00E         	goto	u2291
  4161   001DE0  EFF4  F00E         	goto	u2290
  4162   001DE4                     u2291:
  4163   001DE4  EFF6  F00E         	goto	l2528
  4164   001DE8                     u2290:
  4165   001DE8  EFB9  F00E         	goto	l2508
  4166   001DEC                     l2528:
  4167   001DEC  90D8               	bcf	status,0,c
  4168   001DEE  323B               	rrcf	(___fltol@f1+3)^0,f,c
  4169   001DF0  323A               	rrcf	(___fltol@f1+2)^0,f,c
  4170   001DF2  3239               	rrcf	(___fltol@f1+1)^0,f,c
  4171   001DF4  3238               	rrcf	___fltol@f1^0,f,c
  4172   001DF6  3E41               	incfsz	___fltol@exp1^0,f,c
  4173   001DF8  EFF6  F00E         	goto	l2528
  4174   001DFC  EF18  F00F         	goto	l2542
  4175   001E00                     l2532:
  4176   001E00  0E1F               	movlw	31
  4177   001E02  6441               	cpfsgt	___fltol@exp1^0,c
  4178   001E04  EF06  F00F         	goto	u2301
  4179   001E08  EF08  F00F         	goto	u2300
  4180   001E0C                     u2301:
  4181   001E0C  EF10  F00F         	goto	l2540
  4182   001E10                     u2300:
  4183   001E10  EFB9  F00E         	goto	l2508
  4184   001E14                     l2538:
  4185   001E14  90D8               	bcf	status,0,c
  4186   001E16  3638               	rlcf	___fltol@f1^0,f,c
  4187   001E18  3639               	rlcf	(___fltol@f1+1)^0,f,c
  4188   001E1A  363A               	rlcf	(___fltol@f1+2)^0,f,c
  4189   001E1C  363B               	rlcf	(___fltol@f1+3)^0,f,c
  4190   001E1E  0641               	decf	___fltol@exp1^0,f,c
  4191   001E20                     l2540:
  4192   001E20  5041               	movf	___fltol@exp1^0,w,c
  4193   001E22  A4D8               	btfss	status,2,c
  4194   001E24  EF16  F00F         	goto	u2311
  4195   001E28  EF18  F00F         	goto	u2310
  4196   001E2C                     u2311:
  4197   001E2C  EF0A  F00F         	goto	l2538
  4198   001E30                     u2310:
  4199   001E30                     l2542:
  4200   001E30  5040               	movf	___fltol@sign1^0,w,c
  4201   001E32  B4D8               	btfsc	status,2,c
  4202   001E34  EF1E  F00F         	goto	u2321
  4203   001E38  EF20  F00F         	goto	u2320
  4204   001E3C                     u2321:
  4205   001E3C  EF28  F00F         	goto	l2546
  4206   001E40                     u2320:
  4207   001E40  1E3B               	comf	(___fltol@f1+3)^0,f,c
  4208   001E42  1E3A               	comf	(___fltol@f1+2)^0,f,c
  4209   001E44  1E39               	comf	(___fltol@f1+1)^0,f,c
  4210   001E46  6C38               	negf	___fltol@f1^0,c
  4211   001E48  0E00               	movlw	0
  4212   001E4A  2239               	addwfc	(___fltol@f1+1)^0,f,c
  4213   001E4C  223A               	addwfc	(___fltol@f1+2)^0,f,c
  4214   001E4E  223B               	addwfc	(___fltol@f1+3)^0,f,c
  4215   001E50                     l2546:
  4216   001E50  C038  F038         	movff	___fltol@f1,?___fltol
  4217   001E54  C039  F039         	movff	___fltol@f1+1,?___fltol+1
  4218   001E58  C03A  F03A         	movff	___fltol@f1+2,?___fltol+2
  4219   001E5C  C03B  F03B         	movff	___fltol@f1+3,?___fltol+3
  4220   001E60                     l583:
  4221   001E60  0012               	return		;funcret
  4222   001E62                     __end_of___fltol:
  4223                           	callstack 0
  4224                           
  4225 ;; *************** function ___flsub *****************
  4226 ;; Defined at:
  4227 ;;		line 245 in file "C:\Program Files\Microchip\xc8\v2.50\pic\sources\c99\common\sprcadd.c"
  4228 ;; Parameters:    Size  Location     Type
  4229 ;;  b               4   55[COMRAM] long 
  4230 ;;  a               4   59[COMRAM] long 
  4231 ;; Auto vars:     Size  Location     Type
  4232 ;;		None
  4233 ;; Return value:  Size  Location     Type
  4234 ;;                  4   55[COMRAM] long 
  4235 ;; Registers used:
  4236 ;;		wreg, status,2, status,0, cstack
  4237 ;; Tracked objects:
  4238 ;;		On entry : 0/0
  4239 ;;		On exit  : 0/0
  4240 ;;		Unchanged: 0/0
  4241 ;; Data sizes:     COMRAM   BANK0   BANK1   BANK2   BANK3   BANK4   BANK5   BANK6   BANK7
  4242 ;;      Params:         8       0       0       0       0       0       0       0       0
  4243 ;;      Locals:         0       0       0       0       0       0       0       0       0
  4244 ;;      Temps:          0       0       0       0       0       0       0       0       0
  4245 ;;      Totals:         8       0       0       0       0       0       0       0       0
  4246 ;;Total ram usage:        8 bytes
  4247 ;; Hardware stack levels used: 1
  4248 ;; Hardware stack levels required when called: 2
  4249 ;; This function calls:
  4250 ;;		___fladd
  4251 ;; This function is called by:
  4252 ;;		_mapping
  4253 ;; This function uses a non-reentrant model
  4254 ;;
  4255                           
  4256                           	psect	text17
  4257   0021E4                     __ptext17:
  4258                           	callstack 0
  4259   0021E4                     ___flsub:
  4260                           	callstack 26
  4261   0021E4  0E00               	movlw	0
  4262   0021E6  1A3C               	xorwf	___flsub@a^0,f,c
  4263   0021E8  0E00               	movlw	0
  4264   0021EA  1A3D               	xorwf	(___flsub@a+1)^0,f,c
  4265   0021EC  0E00               	movlw	0
  4266   0021EE  1A3E               	xorwf	(___flsub@a+2)^0,f,c
  4267   0021F0  0E80               	movlw	128
  4268   0021F2  1A3F               	xorwf	(___flsub@a+3)^0,f,c
  4269   0021F4  C038  F028         	movff	___flsub@b,___fladd@b
  4270   0021F8  C039  F029         	movff	___flsub@b+1,___fladd@b+1
  4271   0021FC  C03A  F02A         	movff	___flsub@b+2,___fladd@b+2
  4272   002200  C03B  F02B         	movff	___flsub@b+3,___fladd@b+3
  4273   002204  C03C  F02C         	movff	___flsub@a,___fladd@a
  4274   002208  C03D  F02D         	movff	___flsub@a+1,___fladd@a+1
  4275   00220C  C03E  F02E         	movff	___flsub@a+2,___fladd@a+2
  4276   002210  C03F  F02F         	movff	___flsub@a+3,___fladd@a+3
  4277   002214  EC34  F004         	call	___fladd	;wreg free
  4278   002218  C028  F038         	movff	?___fladd,?___flsub
  4279   00221C  C029  F039         	movff	?___fladd+1,?___flsub+1
  4280   002220  C02A  F03A         	movff	?___fladd+2,?___flsub+2
  4281   002224  C02B  F03B         	movff	?___fladd+3,?___flsub+3
  4282   002228  0012               	return		;funcret
  4283   00222A                     __end_of___flsub:
  4284                           	callstack 0
  4285                           
  4286 ;; *************** function ___fladd *****************
  4287 ;; Defined at:
  4288 ;;		line 10 in file "C:\Program Files\Microchip\xc8\v2.50\pic\sources\c99\common\sprcadd.c"
  4289 ;; Parameters:    Size  Location     Type
  4290 ;;  b               4   39[COMRAM] long 
  4291 ;;  a               4   43[COMRAM] long 
  4292 ;; Auto vars:     Size  Location     Type
  4293 ;;  grs             1   54[COMRAM] unsigned char 
  4294 ;;  bexp            1   53[COMRAM] unsigned char 
  4295 ;;  aexp            1   52[COMRAM] unsigned char 
  4296 ;;  signs           1   51[COMRAM] unsigned char 
  4297 ;; Return value:  Size  Location     Type
  4298 ;;                  4   39[COMRAM] unsigned char 
  4299 ;; Registers used:
  4300 ;;		wreg, status,2, status,0
  4301 ;; Tracked objects:
  4302 ;;		On entry : 0/0
  4303 ;;		On exit  : 0/0
  4304 ;;		Unchanged: 0/0
  4305 ;; Data sizes:     COMRAM   BANK0   BANK1   BANK2   BANK3   BANK4   BANK5   BANK6   BANK7
  4306 ;;      Params:         8       0       0       0       0       0       0       0       0
  4307 ;;      Locals:         4       0       0       0       0       0       0       0       0
  4308 ;;      Temps:          4       0       0       0       0       0       0       0       0
  4309 ;;      Totals:        16       0       0       0       0       0       0       0       0
  4310 ;;Total ram usage:       16 bytes
  4311 ;; Hardware stack levels used: 1
  4312 ;; Hardware stack levels required when called: 1
  4313 ;; This function calls:
  4314 ;;		Nothing
  4315 ;; This function is called by:
  4316 ;;		_mapping
  4317 ;;		___flsub
  4318 ;; This function uses a non-reentrant model
  4319 ;;
  4320                           
  4321                           	psect	text18
  4322   000868                     __ptext18:
  4323                           	callstack 0
  4324   000868                     ___fladd:
  4325                           	callstack 26
  4326   000868  502B               	movf	(___fladd@b+3)^0,w,c
  4327   00086A  0B80               	andlw	128
  4328   00086C  6E34               	movwf	___fladd@signs^0,c
  4329   00086E  502B               	movf	(___fladd@b+3)^0,w,c
  4330   000870  242B               	addwf	(___fladd@b+3)^0,w,c
  4331   000872  6E36               	movwf	___fladd@bexp^0,c
  4332   000874  AE2A               	btfss	(___fladd@b+2)^0,7,c
  4333   000876  EF3F  F004         	goto	u1411
  4334   00087A  EF41  F004         	goto	u1410
  4335   00087E                     u1411:
  4336   00087E  EF42  F004         	goto	l2034
  4337   000882                     u1410:
  4338   000882  8036               	bsf	___fladd@bexp^0,0,c
  4339   000884                     l2034:
  4340   000884  5036               	movf	___fladd@bexp^0,w,c
  4341   000886  B4D8               	btfsc	status,2,c
  4342   000888  EF48  F004         	goto	u1421
  4343   00088C  EF4A  F004         	goto	u1420
  4344   000890                     u1421:
  4345   000890  EF5E  F004         	goto	l2044
  4346   000894                     u1420:
  4347   000894  2836               	incf	___fladd@bexp^0,w,c
  4348   000896  A4D8               	btfss	status,2,c
  4349   000898  EF50  F004         	goto	u1431
  4350   00089C  EF52  F004         	goto	u1430
  4351   0008A0                     u1431:
  4352   0008A0  EF5A  F004         	goto	l2040
  4353   0008A4                     u1430:
  4354   0008A4  0E00               	movlw	0
  4355   0008A6  6E28               	movwf	___fladd@b^0,c
  4356   0008A8  0E00               	movlw	0
  4357   0008AA  6E29               	movwf	(___fladd@b+1)^0,c
  4358   0008AC  0E00               	movlw	0
  4359   0008AE  6E2A               	movwf	(___fladd@b+2)^0,c
  4360   0008B0  0E00               	movlw	0
  4361   0008B2  6E2B               	movwf	(___fladd@b+3)^0,c
  4362   0008B4                     l2040:
  4363   0008B4  8E2A               	bsf	(___fladd@b+2)^0,7,c
  4364   0008B6  6A2B               	clrf	(___fladd@b+3)^0,c
  4365   0008B8  EF66  F004         	goto	l2046
  4366   0008BC                     l2044:
  4367   0008BC  0E00               	movlw	0
  4368   0008BE  6E28               	movwf	___fladd@b^0,c
  4369   0008C0  0E00               	movlw	0
  4370   0008C2  6E29               	movwf	(___fladd@b+1)^0,c
  4371   0008C4  0E00               	movlw	0
  4372   0008C6  6E2A               	movwf	(___fladd@b+2)^0,c
  4373   0008C8  0E00               	movlw	0
  4374   0008CA  6E2B               	movwf	(___fladd@b+3)^0,c
  4375   0008CC                     l2046:
  4376   0008CC  502F               	movf	(___fladd@a+3)^0,w,c
  4377   0008CE  0B80               	andlw	128
  4378   0008D0  6E35               	movwf	___fladd@aexp^0,c
  4379   0008D2  5034               	movf	___fladd@signs^0,w,c
  4380   0008D4  1835               	xorwf	___fladd@aexp^0,w,c
  4381   0008D6  B4D8               	btfsc	status,2,c
  4382   0008D8  EF70  F004         	goto	u1441
  4383   0008DC  EF72  F004         	goto	u1440
  4384   0008E0                     u1441:
  4385   0008E0  EF73  F004         	goto	l2052
  4386   0008E4                     u1440:
  4387   0008E4  8C34               	bsf	___fladd@signs^0,6,c
  4388   0008E6                     l2052:
  4389   0008E6  502F               	movf	(___fladd@a+3)^0,w,c
  4390   0008E8  242F               	addwf	(___fladd@a+3)^0,w,c
  4391   0008EA  6E35               	movwf	___fladd@aexp^0,c
  4392   0008EC  AE2E               	btfss	(___fladd@a+2)^0,7,c
  4393   0008EE  EF7B  F004         	goto	u1451
  4394   0008F2  EF7D  F004         	goto	u1450
  4395   0008F6                     u1451:
  4396   0008F6  EF7E  F004         	goto	l2058
  4397   0008FA                     u1450:
  4398   0008FA  8035               	bsf	___fladd@aexp^0,0,c
  4399   0008FC                     l2058:
  4400   0008FC  5035               	movf	___fladd@aexp^0,w,c
  4401   0008FE  B4D8               	btfsc	status,2,c
  4402   000900  EF84  F004         	goto	u1461
  4403   000904  EF86  F004         	goto	u1460
  4404   000908                     u1461:
  4405   000908  EF9A  F004         	goto	l2068
  4406   00090C                     u1460:
  4407   00090C  2835               	incf	___fladd@aexp^0,w,c
  4408   00090E  A4D8               	btfss	status,2,c
  4409   000910  EF8C  F004         	goto	u1471
  4410   000914  EF8E  F004         	goto	u1470
  4411   000918                     u1471:
  4412   000918  EF96  F004         	goto	l2064
  4413   00091C                     u1470:
  4414   00091C  0E00               	movlw	0
  4415   00091E  6E2C               	movwf	___fladd@a^0,c
  4416   000920  0E00               	movlw	0
  4417   000922  6E2D               	movwf	(___fladd@a+1)^0,c
  4418   000924  0E00               	movlw	0
  4419   000926  6E2E               	movwf	(___fladd@a+2)^0,c
  4420   000928  0E00               	movlw	0
  4421   00092A  6E2F               	movwf	(___fladd@a+3)^0,c
  4422   00092C                     l2064:
  4423   00092C  8E2E               	bsf	(___fladd@a+2)^0,7,c
  4424   00092E  6A2F               	clrf	(___fladd@a+3)^0,c
  4425   000930  EFA2  F004         	goto	l2070
  4426   000934                     l2068:
  4427   000934  0E00               	movlw	0
  4428   000936  6E2C               	movwf	___fladd@a^0,c
  4429   000938  0E00               	movlw	0
  4430   00093A  6E2D               	movwf	(___fladd@a+1)^0,c
  4431   00093C  0E00               	movlw	0
  4432   00093E  6E2E               	movwf	(___fladd@a+2)^0,c
  4433   000940  0E00               	movlw	0
  4434   000942  6E2F               	movwf	(___fladd@a+3)^0,c
  4435   000944                     l2070:
  4436   000944  5036               	movf	___fladd@bexp^0,w,c
  4437   000946  5C35               	subwf	___fladd@aexp^0,w,c
  4438   000948  B0D8               	btfsc	status,0,c
  4439   00094A  EFA9  F004         	goto	u1481
  4440   00094E  EFAB  F004         	goto	u1480
  4441   000952                     u1481:
  4442   000952  EFD2  F004         	goto	l2106
  4443   000956                     u1480:
  4444   000956  AC34               	btfss	___fladd@signs^0,6,c
  4445   000958  EFB0  F004         	goto	u1491
  4446   00095C  EFB2  F004         	goto	u1490
  4447   000960                     u1491:
  4448   000960  EFB4  F004         	goto	l2076
  4449   000964                     u1490:
  4450   000964  0E80               	movlw	128
  4451   000966  1A34               	xorwf	___fladd@signs^0,f,c
  4452   000968                     l2076:
  4453   000968  C036  F037         	movff	___fladd@bexp,___fladd@grs
  4454   00096C  C035  F036         	movff	___fladd@aexp,___fladd@bexp
  4455   000970  C037  F035         	movff	___fladd@grs,___fladd@aexp
  4456   000974  C028  F037         	movff	___fladd@b,___fladd@grs
  4457   000978  C02C  F028         	movff	___fladd@a,___fladd@b
  4458   00097C  C037  F02C         	movff	___fladd@grs,___fladd@a
  4459   000980  C029  F037         	movff	___fladd@b+1,___fladd@grs
  4460   000984  C02D  F029         	movff	___fladd@a+1,___fladd@b+1
  4461   000988  C037  F02D         	movff	___fladd@grs,___fladd@a+1
  4462   00098C  C02A  F037         	movff	___fladd@b+2,___fladd@grs
  4463   000990  C02E  F02A         	movff	___fladd@a+2,___fladd@b+2
  4464   000994  C037  F02E         	movff	___fladd@grs,___fladd@a+2
  4465   000998  C02B  F037         	movff	___fladd@b+3,___fladd@grs
  4466   00099C  C02F  F02B         	movff	___fladd@a+3,___fladd@b+3
  4467   0009A0  C037  F02F         	movff	___fladd@grs,___fladd@a+3
  4468   0009A4                     l2106:
  4469   0009A4  6A37               	clrf	___fladd@grs^0,c
  4470   0009A6  5036               	movf	___fladd@bexp^0,w,c
  4471   0009A8  C035  F030         	movff	___fladd@aexp,??___fladd
  4472   0009AC  6A31               	clrf	(??___fladd+1)^0,c
  4473   0009AE  5E30               	subwf	??___fladd^0,f,c
  4474   0009B0  0E00               	movlw	0
  4475   0009B2  5A31               	subwfb	(??___fladd+1)^0,f,c
  4476   0009B4  BE31               	btfsc	(??___fladd+1)^0,7,c
  4477   0009B6  EFE6  F004         	goto	u1501
  4478   0009BA  5031               	movf	(??___fladd+1)^0,w,c
  4479   0009BC  E109               	bnz	u1500
  4480   0009BE  0E1A               	movlw	26
  4481   0009C0  5C30               	subwf	??___fladd^0,w,c
  4482   0009C2  A0D8               	btfss	status,0,c
  4483   0009C4  EFE6  F004         	goto	u1501
  4484   0009C8  EFE8  F004         	goto	u1500
  4485   0009CC                     u1501:
  4486   0009CC  EF1F  F005         	goto	l815
  4487   0009D0                     u1500:
  4488   0009D0  5028               	movf	___fladd@b^0,w,c
  4489   0009D2  1029               	iorwf	(___fladd@b+1)^0,w,c
  4490   0009D4  102A               	iorwf	(___fladd@b+2)^0,w,c
  4491   0009D6  102B               	iorwf	(___fladd@b+3)^0,w,c
  4492   0009D8  A4D8               	btfss	status,2,c
  4493   0009DA  EFF1  F004         	goto	u1511
  4494   0009DE  EFF4  F004         	goto	u1510
  4495   0009E2                     u1511:
  4496   0009E2  0E01               	movlw	1
  4497   0009E4  EFF5  F004         	goto	u1520
  4498   0009E8                     u1510:
  4499   0009E8  0E00               	movlw	0
  4500   0009EA                     u1520:
  4501   0009EA  6E37               	movwf	___fladd@grs^0,c
  4502   0009EC  0E00               	movlw	0
  4503   0009EE  6E28               	movwf	___fladd@b^0,c
  4504   0009F0  0E00               	movlw	0
  4505   0009F2  6E29               	movwf	(___fladd@b+1)^0,c
  4506   0009F4  0E00               	movlw	0
  4507   0009F6  6E2A               	movwf	(___fladd@b+2)^0,c
  4508   0009F8  0E00               	movlw	0
  4509   0009FA  6E2B               	movwf	(___fladd@b+3)^0,c
  4510   0009FC  C035  F036         	movff	___fladd@aexp,___fladd@bexp
  4511   000A00  EF28  F005         	goto	l814
  4512   000A04                     l816:
  4513   000A04  A037               	btfss	___fladd@grs^0,0,c
  4514   000A06  EF07  F005         	goto	u1531
  4515   000A0A  EF09  F005         	goto	u1530
  4516   000A0E                     u1531:
  4517   000A0E  EF0F  F005         	goto	l2116
  4518   000A12                     u1530:
  4519   000A12  90D8               	bcf	status,0,c
  4520   000A14  3037               	rrcf	___fladd@grs^0,w,c
  4521   000A16  0901               	iorlw	1
  4522   000A18  6E37               	movwf	___fladd@grs^0,c
  4523   000A1A  EF11  F005         	goto	l2118
  4524   000A1E                     l2116:
  4525   000A1E  90D8               	bcf	status,0,c
  4526   000A20  3237               	rrcf	___fladd@grs^0,f,c
  4527   000A22                     l2118:
  4528   000A22  A028               	btfss	___fladd@b^0,0,c
  4529   000A24  EF16  F005         	goto	u1541
  4530   000A28  EF18  F005         	goto	u1540
  4531   000A2C                     u1541:
  4532   000A2C  EF19  F005         	goto	l2122
  4533   000A30                     u1540:
  4534   000A30  8E37               	bsf	___fladd@grs^0,7,c
  4535   000A32                     l2122:
  4536   000A32  342B               	rlcf	(___fladd@b+3)^0,w,c
  4537   000A34  322B               	rrcf	(___fladd@b+3)^0,f,c
  4538   000A36  322A               	rrcf	(___fladd@b+2)^0,f,c
  4539   000A38  3229               	rrcf	(___fladd@b+1)^0,f,c
  4540   000A3A  3228               	rrcf	___fladd@b^0,f,c
  4541   000A3C  2A36               	incf	___fladd@bexp^0,f,c
  4542   000A3E                     l815:
  4543   000A3E  5035               	movf	___fladd@aexp^0,w,c
  4544   000A40  5C36               	subwf	___fladd@bexp^0,w,c
  4545   000A42  A0D8               	btfss	status,0,c
  4546   000A44  EF26  F005         	goto	u1551
  4547   000A48  EF28  F005         	goto	u1550
  4548   000A4C                     u1551:
  4549   000A4C  EF02  F005         	goto	l816
  4550   000A50                     u1550:
  4551   000A50                     l814:
  4552   000A50  BC34               	btfsc	___fladd@signs^0,6,c
  4553   000A52  EF2D  F005         	goto	u1561
  4554   000A56  EF2F  F005         	goto	u1560
  4555   000A5A                     u1561:
  4556   000A5A  EF6F  F005         	goto	l2150
  4557   000A5E                     u1560:
  4558   000A5E  5036               	movf	___fladd@bexp^0,w,c
  4559   000A60  A4D8               	btfss	status,2,c
  4560   000A62  EF35  F005         	goto	u1571
  4561   000A66  EF37  F005         	goto	u1570
  4562   000A6A                     u1571:
  4563   000A6A  EF41  F005         	goto	l2132
  4564   000A6E                     u1570:
  4565   000A6E  0E00               	movlw	0
  4566   000A70  6E28               	movwf	?___fladd^0,c
  4567   000A72  0E00               	movlw	0
  4568   000A74  6E29               	movwf	(?___fladd+1)^0,c
  4569   000A76  0E00               	movlw	0
  4570   000A78  6E2A               	movwf	(?___fladd+2)^0,c
  4571   000A7A  0E00               	movlw	0
  4572   000A7C  6E2B               	movwf	(?___fladd+3)^0,c
  4573   000A7E  EF8E  F006         	goto	l823
  4574   000A82                     l2132:
  4575   000A82  502C               	movf	___fladd@a^0,w,c
  4576   000A84  2628               	addwf	___fladd@b^0,f,c
  4577   000A86  502D               	movf	(___fladd@a+1)^0,w,c
  4578   000A88  2229               	addwfc	(___fladd@b+1)^0,f,c
  4579   000A8A  502E               	movf	(___fladd@a+2)^0,w,c
  4580   000A8C  222A               	addwfc	(___fladd@b+2)^0,f,c
  4581   000A8E  502F               	movf	(___fladd@a+3)^0,w,c
  4582   000A90  222B               	addwfc	(___fladd@b+3)^0,f,c
  4583   000A92  A02B               	btfss	(___fladd@b+3)^0,0,c
  4584   000A94  EF4E  F005         	goto	u1581
  4585   000A98  EF50  F005         	goto	u1580
  4586   000A9C                     u1581:
  4587   000A9C  EFFC  F005         	goto	l828
  4588   000AA0                     u1580:
  4589   000AA0  A037               	btfss	___fladd@grs^0,0,c
  4590   000AA2  EF55  F005         	goto	u1591
  4591   000AA6  EF57  F005         	goto	u1590
  4592   000AAA                     u1591:
  4593   000AAA  EF5D  F005         	goto	l2140
  4594   000AAE                     u1590:
  4595   000AAE  90D8               	bcf	status,0,c
  4596   000AB0  3037               	rrcf	___fladd@grs^0,w,c
  4597   000AB2  0901               	iorlw	1
  4598   000AB4  6E37               	movwf	___fladd@grs^0,c
  4599   000AB6  EF5F  F005         	goto	l2142
  4600   000ABA                     l2140:
  4601   000ABA  90D8               	bcf	status,0,c
  4602   000ABC  3237               	rrcf	___fladd@grs^0,f,c
  4603   000ABE                     l2142:
  4604   000ABE  A028               	btfss	___fladd@b^0,0,c
  4605   000AC0  EF64  F005         	goto	u1601
  4606   000AC4  EF66  F005         	goto	u1600
  4607   000AC8                     u1601:
  4608   000AC8  EF67  F005         	goto	l2146
  4609   000ACC                     u1600:
  4610   000ACC  8E37               	bsf	___fladd@grs^0,7,c
  4611   000ACE                     l2146:
  4612   000ACE  342B               	rlcf	(___fladd@b+3)^0,w,c
  4613   000AD0  322B               	rrcf	(___fladd@b+3)^0,f,c
  4614   000AD2  322A               	rrcf	(___fladd@b+2)^0,f,c
  4615   000AD4  3229               	rrcf	(___fladd@b+1)^0,f,c
  4616   000AD6  3228               	rrcf	___fladd@b^0,f,c
  4617   000AD8  2A36               	incf	___fladd@bexp^0,f,c
  4618   000ADA  EFFC  F005         	goto	l828
  4619   000ADE                     l2150:
  4620   000ADE  502C               	movf	___fladd@a^0,w,c
  4621   000AE0  5C28               	subwf	___fladd@b^0,w,c
  4622   000AE2  502D               	movf	(___fladd@a+1)^0,w,c
  4623   000AE4  5829               	subwfb	(___fladd@b+1)^0,w,c
  4624   000AE6  502E               	movf	(___fladd@a+2)^0,w,c
  4625   000AE8  582A               	subwfb	(___fladd@b+2)^0,w,c
  4626   000AEA  502B               	movf	(___fladd@b+3)^0,w,c
  4627   000AEC  0A80               	xorlw	128
  4628   000AEE  6E30               	movwf	??___fladd^0,c
  4629   000AF0  502F               	movf	(___fladd@a+3)^0,w,c
  4630   000AF2  0A80               	xorlw	128
  4631   000AF4  5830               	subwfb	??___fladd^0,w,c
  4632   000AF6  B0D8               	btfsc	status,0,c
  4633   000AF8  EF80  F005         	goto	u1611
  4634   000AFC  EF82  F005         	goto	u1610
  4635   000B00                     u1611:
  4636   000B00  EFAD  F005         	goto	l2160
  4637   000B04                     u1610:
  4638   000B04  5028               	movf	___fladd@b^0,w,c
  4639   000B06  5C2C               	subwf	___fladd@a^0,w,c
  4640   000B08  6E30               	movwf	??___fladd^0,c
  4641   000B0A  5029               	movf	(___fladd@b+1)^0,w,c
  4642   000B0C  582D               	subwfb	(___fladd@a+1)^0,w,c
  4643   000B0E  6E31               	movwf	(??___fladd+1)^0,c
  4644   000B10  502A               	movf	(___fladd@b+2)^0,w,c
  4645   000B12  582E               	subwfb	(___fladd@a+2)^0,w,c
  4646   000B14  6E32               	movwf	(??___fladd+2)^0,c
  4647   000B16  502B               	movf	(___fladd@b+3)^0,w,c
  4648   000B18  582F               	subwfb	(___fladd@a+3)^0,w,c
  4649   000B1A  6E33               	movwf	(??___fladd+3)^0,c
  4650   000B1C  0EFF               	movlw	255
  4651   000B1E  2430               	addwf	??___fladd^0,w,c
  4652   000B20  6E28               	movwf	___fladd@b^0,c
  4653   000B22  0EFF               	movlw	255
  4654   000B24  2031               	addwfc	(??___fladd+1)^0,w,c
  4655   000B26  6E29               	movwf	(___fladd@b+1)^0,c
  4656   000B28  0EFF               	movlw	255
  4657   000B2A  2032               	addwfc	(??___fladd+2)^0,w,c
  4658   000B2C  6E2A               	movwf	(___fladd@b+2)^0,c
  4659   000B2E  0EFF               	movlw	255
  4660   000B30  2033               	addwfc	(??___fladd+3)^0,w,c
  4661   000B32  6E2B               	movwf	(___fladd@b+3)^0,c
  4662   000B34  0E80               	movlw	128
  4663   000B36  1A34               	xorwf	___fladd@signs^0,f,c
  4664   000B38  6C37               	negf	___fladd@grs^0,c
  4665   000B3A  5037               	movf	___fladd@grs^0,w,c
  4666   000B3C  A4D8               	btfss	status,2,c
  4667   000B3E  EFA3  F005         	goto	u1621
  4668   000B42  EFA5  F005         	goto	u1620
  4669   000B46                     u1621:
  4670   000B46  EFB5  F005         	goto	l831
  4671   000B4A                     u1620:
  4672   000B4A  0E01               	movlw	1
  4673   000B4C  2628               	addwf	___fladd@b^0,f,c
  4674   000B4E  0E00               	movlw	0
  4675   000B50  2229               	addwfc	(___fladd@b+1)^0,f,c
  4676   000B52  222A               	addwfc	(___fladd@b+2)^0,f,c
  4677   000B54  222B               	addwfc	(___fladd@b+3)^0,f,c
  4678   000B56  EFB5  F005         	goto	l831
  4679   000B5A                     l2160:
  4680   000B5A  502C               	movf	___fladd@a^0,w,c
  4681   000B5C  5E28               	subwf	___fladd@b^0,f,c
  4682   000B5E  502D               	movf	(___fladd@a+1)^0,w,c
  4683   000B60  5A29               	subwfb	(___fladd@b+1)^0,f,c
  4684   000B62  502E               	movf	(___fladd@a+2)^0,w,c
  4685   000B64  5A2A               	subwfb	(___fladd@b+2)^0,f,c
  4686   000B66  502F               	movf	(___fladd@a+3)^0,w,c
  4687   000B68  5A2B               	subwfb	(___fladd@b+3)^0,f,c
  4688   000B6A                     l831:
  4689   000B6A  5028               	movf	___fladd@b^0,w,c
  4690   000B6C  1029               	iorwf	(___fladd@b+1)^0,w,c
  4691   000B6E  102A               	iorwf	(___fladd@b+2)^0,w,c
  4692   000B70  102B               	iorwf	(___fladd@b+3)^0,w,c
  4693   000B72  A4D8               	btfss	status,2,c
  4694   000B74  EFBE  F005         	goto	u1631
  4695   000B78  EFC0  F005         	goto	u1630
  4696   000B7C                     u1631:
  4697   000B7C  EFF5  F005         	goto	l2184
  4698   000B80                     u1630:
  4699   000B80  5037               	movf	___fladd@grs^0,w,c
  4700   000B82  A4D8               	btfss	status,2,c
  4701   000B84  EFC6  F005         	goto	u1641
  4702   000B88  EFC8  F005         	goto	u1640
  4703   000B8C                     u1641:
  4704   000B8C  EFF5  F005         	goto	l2184
  4705   000B90                     u1640:
  4706   000B90  0E00               	movlw	0
  4707   000B92  6E28               	movwf	?___fladd^0,c
  4708   000B94  0E00               	movlw	0
  4709   000B96  6E29               	movwf	(?___fladd+1)^0,c
  4710   000B98  0E00               	movlw	0
  4711   000B9A  6E2A               	movwf	(?___fladd+2)^0,c
  4712   000B9C  0E00               	movlw	0
  4713   000B9E  6E2B               	movwf	(?___fladd+3)^0,c
  4714   000BA0  EF8E  F006         	goto	l823
  4715   000BA4                     l2168:
  4716   000BA4  90D8               	bcf	status,0,c
  4717   000BA6  3628               	rlcf	___fladd@b^0,f,c
  4718   000BA8  3629               	rlcf	(___fladd@b+1)^0,f,c
  4719   000BAA  362A               	rlcf	(___fladd@b+2)^0,f,c
  4720   000BAC  362B               	rlcf	(___fladd@b+3)^0,f,c
  4721   000BAE  AE37               	btfss	___fladd@grs^0,7,c
  4722   000BB0  EFDC  F005         	goto	u1651
  4723   000BB4  EFDE  F005         	goto	u1650
  4724   000BB8                     u1651:
  4725   000BB8  EFDF  F005         	goto	l2174
  4726   000BBC                     u1650:
  4727   000BBC  8028               	bsf	___fladd@b^0,0,c
  4728   000BBE                     l2174:
  4729   000BBE  A037               	btfss	___fladd@grs^0,0,c
  4730   000BC0  EFE4  F005         	goto	u1661
  4731   000BC4  EFE6  F005         	goto	u1660
  4732   000BC8                     u1661:
  4733   000BC8  EFEA  F005         	goto	l2178
  4734   000BCC                     u1660:
  4735   000BCC  80D8               	bsf	status,0,c
  4736   000BCE  3637               	rlcf	___fladd@grs^0,f,c
  4737   000BD0  EFEC  F005         	goto	l2180
  4738   000BD4                     l2178:
  4739   000BD4  90D8               	bcf	status,0,c
  4740   000BD6  3637               	rlcf	___fladd@grs^0,f,c
  4741   000BD8                     l2180:
  4742   000BD8  5036               	movf	___fladd@bexp^0,w,c
  4743   000BDA  B4D8               	btfsc	status,2,c
  4744   000BDC  EFF2  F005         	goto	u1671
  4745   000BE0  EFF4  F005         	goto	u1670
  4746   000BE4                     u1671:
  4747   000BE4  EFF5  F005         	goto	l2184
  4748   000BE8                     u1670:
  4749   000BE8  0636               	decf	___fladd@bexp^0,f,c
  4750   000BEA                     l2184:
  4751   000BEA  AE2A               	btfss	(___fladd@b+2)^0,7,c
  4752   000BEC  EFFA  F005         	goto	u1681
  4753   000BF0  EFFC  F005         	goto	u1680
  4754   000BF4                     u1681:
  4755   000BF4  EFD2  F005         	goto	l2168
  4756   000BF8                     u1680:
  4757   000BF8                     l828:
  4758   000BF8  6A35               	clrf	___fladd@aexp^0,c
  4759   000BFA  AE37               	btfss	___fladd@grs^0,7,c
  4760   000BFC  EF02  F006         	goto	u1691
  4761   000C00  EF04  F006         	goto	u1690
  4762   000C04                     u1691:
  4763   000C04  EF1C  F006         	goto	l840
  4764   000C08                     u1690:
  4765   000C08  C037  F030         	movff	___fladd@grs,??___fladd
  4766   000C0C  0E7F               	movlw	127
  4767   000C0E  1630               	andwf	??___fladd^0,f,c
  4768   000C10  B4D8               	btfsc	status,2,c
  4769   000C12  EF0D  F006         	goto	u1701
  4770   000C16  EF0F  F006         	goto	u1700
  4771   000C1A                     u1701:
  4772   000C1A  EF13  F006         	goto	l841
  4773   000C1E                     u1700:
  4774   000C1E                     l2188:
  4775   000C1E  0E01               	movlw	1
  4776   000C20  6E35               	movwf	___fladd@aexp^0,c
  4777   000C22  EF1C  F006         	goto	l840
  4778   000C26                     l841:
  4779   000C26  A028               	btfss	___fladd@b^0,0,c
  4780   000C28  EF18  F006         	goto	u1711
  4781   000C2C  EF1A  F006         	goto	u1710
  4782   000C30                     u1711:
  4783   000C30  EF1C  F006         	goto	l840
  4784   000C34                     u1710:
  4785   000C34  EF0F  F006         	goto	l2188
  4786   000C38                     l840:
  4787   000C38  5035               	movf	___fladd@aexp^0,w,c
  4788   000C3A  B4D8               	btfsc	status,2,c
  4789   000C3C  EF22  F006         	goto	u1721
  4790   000C40  EF24  F006         	goto	u1720
  4791   000C44                     u1721:
  4792   000C44  EF4F  F006         	goto	l2200
  4793   000C48                     u1720:
  4794   000C48  0E01               	movlw	1
  4795   000C4A  2628               	addwf	___fladd@b^0,f,c
  4796   000C4C  0E00               	movlw	0
  4797   000C4E  2229               	addwfc	(___fladd@b+1)^0,f,c
  4798   000C50  222A               	addwfc	(___fladd@b+2)^0,f,c
  4799   000C52  222B               	addwfc	(___fladd@b+3)^0,f,c
  4800   000C54  A02B               	btfss	(___fladd@b+3)^0,0,c
  4801   000C56  EF2F  F006         	goto	u1731
  4802   000C5A  EF31  F006         	goto	u1730
  4803   000C5E                     u1731:
  4804   000C5E  EF4F  F006         	goto	l2200
  4805   000C62                     u1730:
  4806   000C62  C028  F030         	movff	___fladd@b,??___fladd
  4807   000C66  C029  F031         	movff	___fladd@b+1,??___fladd+1
  4808   000C6A  C02A  F032         	movff	___fladd@b+2,??___fladd+2
  4809   000C6E  C02B  F033         	movff	___fladd@b+3,??___fladd+3
  4810   000C72  3433               	rlcf	(??___fladd+3)^0,w,c
  4811   000C74  3233               	rrcf	(??___fladd+3)^0,f,c
  4812   000C76  3232               	rrcf	(??___fladd+2)^0,f,c
  4813   000C78  3231               	rrcf	(??___fladd+1)^0,f,c
  4814   000C7A  3230               	rrcf	??___fladd^0,f,c
  4815   000C7C  C030  F028         	movff	??___fladd,___fladd@b
  4816   000C80  C031  F029         	movff	??___fladd+1,___fladd@b+1
  4817   000C84  C032  F02A         	movff	??___fladd+2,___fladd@b+2
  4818   000C88  C033  F02B         	movff	??___fladd+3,___fladd@b+3
  4819   000C8C  2836               	incf	___fladd@bexp^0,w,c
  4820   000C8E  B4D8               	btfsc	status,2,c
  4821   000C90  EF4C  F006         	goto	u1741
  4822   000C94  EF4E  F006         	goto	u1740
  4823   000C98                     u1741:
  4824   000C98  EF4F  F006         	goto	l2200
  4825   000C9C                     u1740:
  4826   000C9C  2A36               	incf	___fladd@bexp^0,f,c
  4827   000C9E                     l2200:
  4828   000C9E  2836               	incf	___fladd@bexp^0,w,c
  4829   000CA0  B4D8               	btfsc	status,2,c
  4830   000CA2  EF55  F006         	goto	u1751
  4831   000CA6  EF57  F006         	goto	u1750
  4832   000CAA                     u1751:
  4833   000CAA  EF5F  F006         	goto	l2204
  4834   000CAE                     u1750:
  4835   000CAE  5036               	movf	___fladd@bexp^0,w,c
  4836   000CB0  A4D8               	btfss	status,2,c
  4837   000CB2  EF5D  F006         	goto	u1761
  4838   000CB6  EF5F  F006         	goto	u1760
  4839   000CBA                     u1761:
  4840   000CBA  EF70  F006         	goto	l847
  4841   000CBE                     u1760:
  4842   000CBE                     l2204:
  4843   000CBE  0E00               	movlw	0
  4844   000CC0  6E28               	movwf	___fladd@b^0,c
  4845   000CC2  0E00               	movlw	0
  4846   000CC4  6E29               	movwf	(___fladd@b+1)^0,c
  4847   000CC6  0E00               	movlw	0
  4848   000CC8  6E2A               	movwf	(___fladd@b+2)^0,c
  4849   000CCA  0E00               	movlw	0
  4850   000CCC  6E2B               	movwf	(___fladd@b+3)^0,c
  4851   000CCE  5036               	movf	___fladd@bexp^0,w,c
  4852   000CD0  A4D8               	btfss	status,2,c
  4853   000CD2  EF6D  F006         	goto	u1771
  4854   000CD6  EF6F  F006         	goto	u1770
  4855   000CDA                     u1771:
  4856   000CDA  EF70  F006         	goto	l847
  4857   000CDE                     u1770:
  4858   000CDE  6A34               	clrf	___fladd@signs^0,c
  4859   000CE0                     l847:
  4860   000CE0  A036               	btfss	___fladd@bexp^0,0,c
  4861   000CE2  EF75  F006         	goto	u1781
  4862   000CE6  EF77  F006         	goto	u1780
  4863   000CEA                     u1781:
  4864   000CEA  EF7A  F006         	goto	l2210
  4865   000CEE                     u1780:
  4866   000CEE  8E2A               	bsf	(___fladd@b+2)^0,7,c
  4867   000CF0  EF7B  F006         	goto	l2212
  4868   000CF4                     l2210:
  4869   000CF4  9E2A               	bcf	(___fladd@b+2)^0,7,c
  4870   000CF6                     l2212:
  4871   000CF6  90D8               	bcf	status,0,c
  4872   000CF8  3036               	rrcf	___fladd@bexp^0,w,c
  4873   000CFA  6E2B               	movwf	(___fladd@b+3)^0,c
  4874   000CFC  AE34               	btfss	___fladd@signs^0,7,c
  4875   000CFE  EF83  F006         	goto	u1791
  4876   000D02  EF85  F006         	goto	u1790
  4877   000D06                     u1791:
  4878   000D06  EF86  F006         	goto	l2218
  4879   000D0A                     u1790:
  4880   000D0A  8E2B               	bsf	(___fladd@b+3)^0,7,c
  4881   000D0C                     l2218:
  4882   000D0C  C028  F028         	movff	___fladd@b,?___fladd
  4883   000D10  C029  F029         	movff	___fladd@b+1,?___fladd+1
  4884   000D14  C02A  F02A         	movff	___fladd@b+2,?___fladd+2
  4885   000D18  C02B  F02B         	movff	___fladd@b+3,?___fladd+3
  4886   000D1C                     l823:
  4887   000D1C  0012               	return		;funcret
  4888   000D1E                     __end_of___fladd:
  4889                           	callstack 0
  4890                           
  4891 ;; *************** function ___flmul *****************
  4892 ;; Defined at:
  4893 ;;		line 8 in file "C:\Program Files\Microchip\xc8\v2.50\pic\sources\c99\common\sprcmul.c"
  4894 ;; Parameters:    Size  Location     Type
  4895 ;;  b               4   14[COMRAM] unsigned char 
  4896 ;;  a               4   18[COMRAM] unsigned char 
  4897 ;; Auto vars:     Size  Location     Type
  4898 ;;  prod            4   33[COMRAM] struct .
  4899 ;;  grs             4   27[COMRAM] unsigned long 
  4900 ;;  temp            2   37[COMRAM] struct .
  4901 ;;  bexp            1   32[COMRAM] unsigned char 
  4902 ;;  aexp            1   31[COMRAM] unsigned char 
  4903 ;;  sign            1   26[COMRAM] unsigned char 
  4904 ;; Return value:  Size  Location     Type
  4905 ;;                  4   14[COMRAM] unsigned char 
  4906 ;; Registers used:
  4907 ;;		wreg, status,2, status,0, prodl, prodh
  4908 ;; Tracked objects:
  4909 ;;		On entry : 0/0
  4910 ;;		On exit  : 0/0
  4911 ;;		Unchanged: 0/0
  4912 ;; Data sizes:     COMRAM   BANK0   BANK1   BANK2   BANK3   BANK4   BANK5   BANK6   BANK7
  4913 ;;      Params:         8       0       0       0       0       0       0       0       0
  4914 ;;      Locals:        13       0       0       0       0       0       0       0       0
  4915 ;;      Temps:          4       0       0       0       0       0       0       0       0
  4916 ;;      Totals:        25       0       0       0       0       0       0       0       0
  4917 ;;Total ram usage:       25 bytes
  4918 ;; Hardware stack levels used: 1
  4919 ;; Hardware stack levels required when called: 1
  4920 ;; This function calls:
  4921 ;;		Nothing
  4922 ;; This function is called by:
  4923 ;;		_mapping
  4924 ;; This function uses a non-reentrant model
  4925 ;;
  4926                           
  4927                           	psect	text19
  4928   000D1E                     __ptext19:
  4929                           	callstack 0
  4930   000D1E                     ___flmul:
  4931                           	callstack 27
  4932   000D1E  5012               	movf	(___flmul@b+3)^0,w,c
  4933   000D20  0B80               	andlw	128
  4934   000D22  6E1B               	movwf	___flmul@sign^0,c
  4935   000D24  5012               	movf	(___flmul@b+3)^0,w,c
  4936   000D26  2412               	addwf	(___flmul@b+3)^0,w,c
  4937   000D28  6E21               	movwf	___flmul@bexp^0,c
  4938   000D2A  AE11               	btfss	(___flmul@b+2)^0,7,c
  4939   000D2C  EF9A  F006         	goto	u2071
  4940   000D30  EF9C  F006         	goto	u2070
  4941   000D34                     u2071:
  4942   000D34  EF9D  F006         	goto	l2378
  4943   000D38                     u2070:
  4944   000D38  8021               	bsf	___flmul@bexp^0,0,c
  4945   000D3A                     l2378:
  4946   000D3A  5021               	movf	___flmul@bexp^0,w,c
  4947   000D3C  B4D8               	btfsc	status,2,c
  4948   000D3E  EFA3  F006         	goto	u2081
  4949   000D42  EFA5  F006         	goto	u2080
  4950   000D46                     u2081:
  4951   000D46  EFB8  F006         	goto	l2386
  4952   000D4A                     u2080:
  4953   000D4A  2821               	incf	___flmul@bexp^0,w,c
  4954   000D4C  A4D8               	btfss	status,2,c
  4955   000D4E  EFAB  F006         	goto	u2091
  4956   000D52  EFAD  F006         	goto	u2090
  4957   000D56                     u2091:
  4958   000D56  EFB5  F006         	goto	l2384
  4959   000D5A                     u2090:
  4960   000D5A  0E00               	movlw	0
  4961   000D5C  6E0F               	movwf	___flmul@b^0,c
  4962   000D5E  0E00               	movlw	0
  4963   000D60  6E10               	movwf	(___flmul@b+1)^0,c
  4964   000D62  0E00               	movlw	0
  4965   000D64  6E11               	movwf	(___flmul@b+2)^0,c
  4966   000D66  0E00               	movlw	0
  4967   000D68  6E12               	movwf	(___flmul@b+3)^0,c
  4968   000D6A                     l2384:
  4969   000D6A  8E11               	bsf	(___flmul@b+2)^0,7,c
  4970   000D6C  EFC0  F006         	goto	l2388
  4971   000D70                     l2386:
  4972   000D70  0E00               	movlw	0
  4973   000D72  6E0F               	movwf	___flmul@b^0,c
  4974   000D74  0E00               	movlw	0
  4975   000D76  6E10               	movwf	(___flmul@b+1)^0,c
  4976   000D78  0E00               	movlw	0
  4977   000D7A  6E11               	movwf	(___flmul@b+2)^0,c
  4978   000D7C  0E00               	movlw	0
  4979   000D7E  6E12               	movwf	(___flmul@b+3)^0,c
  4980   000D80                     l2388:
  4981   000D80  5016               	movf	(___flmul@a+3)^0,w,c
  4982   000D82  0B80               	andlw	128
  4983   000D84  1A1B               	xorwf	___flmul@sign^0,f,c
  4984   000D86  5016               	movf	(___flmul@a+3)^0,w,c
  4985   000D88  2416               	addwf	(___flmul@a+3)^0,w,c
  4986   000D8A  6E20               	movwf	___flmul@aexp^0,c
  4987   000D8C  AE15               	btfss	(___flmul@a+2)^0,7,c
  4988   000D8E  EFCB  F006         	goto	u2101
  4989   000D92  EFCD  F006         	goto	u2100
  4990   000D96                     u2101:
  4991   000D96  EFCE  F006         	goto	l2396
  4992   000D9A                     u2100:
  4993   000D9A  8020               	bsf	___flmul@aexp^0,0,c
  4994   000D9C                     l2396:
  4995   000D9C  5020               	movf	___flmul@aexp^0,w,c
  4996   000D9E  B4D8               	btfsc	status,2,c
  4997   000DA0  EFD4  F006         	goto	u2111
  4998   000DA4  EFD6  F006         	goto	u2110
  4999   000DA8                     u2111:
  5000   000DA8  EFE9  F006         	goto	l2404
  5001   000DAC                     u2110:
  5002   000DAC  2820               	incf	___flmul@aexp^0,w,c
  5003   000DAE  A4D8               	btfss	status,2,c
  5004   000DB0  EFDC  F006         	goto	u2121
  5005   000DB4  EFDE  F006         	goto	u2120
  5006   000DB8                     u2121:
  5007   000DB8  EFE6  F006         	goto	l2402
  5008   000DBC                     u2120:
  5009   000DBC  0E00               	movlw	0
  5010   000DBE  6E13               	movwf	___flmul@a^0,c
  5011   000DC0  0E00               	movlw	0
  5012   000DC2  6E14               	movwf	(___flmul@a+1)^0,c
  5013   000DC4  0E00               	movlw	0
  5014   000DC6  6E15               	movwf	(___flmul@a+2)^0,c
  5015   000DC8  0E00               	movlw	0
  5016   000DCA  6E16               	movwf	(___flmul@a+3)^0,c
  5017   000DCC                     l2402:
  5018   000DCC  8E15               	bsf	(___flmul@a+2)^0,7,c
  5019   000DCE  EFF1  F006         	goto	l900
  5020   000DD2                     l2404:
  5021   000DD2  0E00               	movlw	0
  5022   000DD4  6E13               	movwf	___flmul@a^0,c
  5023   000DD6  0E00               	movlw	0
  5024   000DD8  6E14               	movwf	(___flmul@a+1)^0,c
  5025   000DDA  0E00               	movlw	0
  5026   000DDC  6E15               	movwf	(___flmul@a+2)^0,c
  5027   000DDE  0E00               	movlw	0
  5028   000DE0  6E16               	movwf	(___flmul@a+3)^0,c
  5029   000DE2                     l900:
  5030   000DE2  5020               	movf	___flmul@aexp^0,w,c
  5031   000DE4  B4D8               	btfsc	status,2,c
  5032   000DE6  EFF7  F006         	goto	u2131
  5033   000DEA  EFF9  F006         	goto	u2130
  5034   000DEE                     u2131:
  5035   000DEE  EF01  F007         	goto	l2408
  5036   000DF2                     u2130:
  5037   000DF2  5021               	movf	___flmul@bexp^0,w,c
  5038   000DF4  A4D8               	btfss	status,2,c
  5039   000DF6  EFFF  F006         	goto	u2141
  5040   000DFA  EF01  F007         	goto	u2140
  5041   000DFE                     u2141:
  5042   000DFE  EF0B  F007         	goto	l2412
  5043   000E02                     u2140:
  5044   000E02                     l2408:
  5045   000E02  0E00               	movlw	0
  5046   000E04  6E0F               	movwf	?___flmul^0,c
  5047   000E06  0E00               	movlw	0
  5048   000E08  6E10               	movwf	(?___flmul+1)^0,c
  5049   000E0A  0E00               	movlw	0
  5050   000E0C  6E11               	movwf	(?___flmul+2)^0,c
  5051   000E0E  0E00               	movlw	0
  5052   000E10  6E12               	movwf	(?___flmul+3)^0,c
  5053   000E12  EFA1  F008         	goto	l904
  5054   000E16                     l2412:
  5055   000E16  5015               	movf	(___flmul@a+2)^0,w,c
  5056   000E18  020F               	mulwf	___flmul@b^0,c
  5057   000E1A  CFF3 F026          	movff	prodl,___flmul@temp
  5058   000E1E  CFF4 F027          	movff	prodh,___flmul@temp+1
  5059   000E22  5026               	movf	___flmul@temp^0,w,c
  5060   000E24  6E1C               	movwf	___flmul@grs^0,c
  5061   000E26  6A1D               	clrf	(___flmul@grs+1)^0,c
  5062   000E28  6A1E               	clrf	(___flmul@grs+2)^0,c
  5063   000E2A  6A1F               	clrf	(___flmul@grs+3)^0,c
  5064   000E2C  5027               	movf	(___flmul@temp+1)^0,w,c
  5065   000E2E  6E22               	movwf	___flmul@prod^0,c
  5066   000E30  6A23               	clrf	(___flmul@prod+1)^0,c
  5067   000E32  6A24               	clrf	(___flmul@prod+2)^0,c
  5068   000E34  6A25               	clrf	(___flmul@prod+3)^0,c
  5069   000E36  5014               	movf	(___flmul@a+1)^0,w,c
  5070   000E38  0210               	mulwf	(___flmul@b+1)^0,c
  5071   000E3A  CFF3 F026          	movff	prodl,___flmul@temp
  5072   000E3E  CFF4 F027          	movff	prodh,___flmul@temp+1
  5073   000E42  5026               	movf	___flmul@temp^0,w,c
  5074   000E44  261C               	addwf	___flmul@grs^0,f,c
  5075   000E46  0E00               	movlw	0
  5076   000E48  221D               	addwfc	(___flmul@grs+1)^0,f,c
  5077   000E4A  221E               	addwfc	(___flmul@grs+2)^0,f,c
  5078   000E4C  221F               	addwfc	(___flmul@grs+3)^0,f,c
  5079   000E4E  5027               	movf	(___flmul@temp+1)^0,w,c
  5080   000E50  2622               	addwf	___flmul@prod^0,f,c
  5081   000E52  0E00               	movlw	0
  5082   000E54  2223               	addwfc	(___flmul@prod+1)^0,f,c
  5083   000E56  2224               	addwfc	(___flmul@prod+2)^0,f,c
  5084   000E58  2225               	addwfc	(___flmul@prod+3)^0,f,c
  5085   000E5A  5013               	movf	___flmul@a^0,w,c
  5086   000E5C  0211               	mulwf	(___flmul@b+2)^0,c
  5087   000E5E  CFF3 F026          	movff	prodl,___flmul@temp
  5088   000E62  CFF4 F027          	movff	prodh,___flmul@temp+1
  5089   000E66  5026               	movf	___flmul@temp^0,w,c
  5090   000E68  261C               	addwf	___flmul@grs^0,f,c
  5091   000E6A  0E00               	movlw	0
  5092   000E6C  221D               	addwfc	(___flmul@grs+1)^0,f,c
  5093   000E6E  221E               	addwfc	(___flmul@grs+2)^0,f,c
  5094   000E70  221F               	addwfc	(___flmul@grs+3)^0,f,c
  5095   000E72  5027               	movf	(___flmul@temp+1)^0,w,c
  5096   000E74  2622               	addwf	___flmul@prod^0,f,c
  5097   000E76  0E00               	movlw	0
  5098   000E78  2223               	addwfc	(___flmul@prod+1)^0,f,c
  5099   000E7A  2224               	addwfc	(___flmul@prod+2)^0,f,c
  5100   000E7C  2225               	addwfc	(___flmul@prod+3)^0,f,c
  5101   000E7E  C01E  F01F         	movff	___flmul@grs+2,___flmul@grs+3
  5102   000E82  C01D  F01E         	movff	___flmul@grs+1,___flmul@grs+2
  5103   000E86  C01C  F01D         	movff	___flmul@grs,___flmul@grs+1
  5104   000E8A  6A1C               	clrf	___flmul@grs^0,c
  5105   000E8C  5013               	movf	___flmul@a^0,w,c
  5106   000E8E  0210               	mulwf	(___flmul@b+1)^0,c
  5107   000E90  CFF3 F026          	movff	prodl,___flmul@temp
  5108   000E94  CFF4 F027          	movff	prodh,___flmul@temp+1
  5109   000E98  5026               	movf	___flmul@temp^0,w,c
  5110   000E9A  261C               	addwf	___flmul@grs^0,f,c
  5111   000E9C  5027               	movf	(___flmul@temp+1)^0,w,c
  5112   000E9E  221D               	addwfc	(___flmul@grs+1)^0,f,c
  5113   000EA0  0E00               	movlw	0
  5114   000EA2  221E               	addwfc	(___flmul@grs+2)^0,f,c
  5115   000EA4  0E00               	movlw	0
  5116   000EA6  221F               	addwfc	(___flmul@grs+3)^0,f,c
  5117   000EA8  5014               	movf	(___flmul@a+1)^0,w,c
  5118   000EAA  020F               	mulwf	___flmul@b^0,c
  5119   000EAC  CFF3 F026          	movff	prodl,___flmul@temp
  5120   000EB0  CFF4 F027          	movff	prodh,___flmul@temp+1
  5121   000EB4  5026               	movf	___flmul@temp^0,w,c
  5122   000EB6  261C               	addwf	___flmul@grs^0,f,c
  5123   000EB8  5027               	movf	(___flmul@temp+1)^0,w,c
  5124   000EBA  221D               	addwfc	(___flmul@grs+1)^0,f,c
  5125   000EBC  0E00               	movlw	0
  5126   000EBE  221E               	addwfc	(___flmul@grs+2)^0,f,c
  5127   000EC0  0E00               	movlw	0
  5128   000EC2  221F               	addwfc	(___flmul@grs+3)^0,f,c
  5129   000EC4  C01E  F01F         	movff	___flmul@grs+2,___flmul@grs+3
  5130   000EC8  C01D  F01E         	movff	___flmul@grs+1,___flmul@grs+2
  5131   000ECC  C01C  F01D         	movff	___flmul@grs,___flmul@grs+1
  5132   000ED0  6A1C               	clrf	___flmul@grs^0,c
  5133   000ED2  5013               	movf	___flmul@a^0,w,c
  5134   000ED4  020F               	mulwf	___flmul@b^0,c
  5135   000ED6  CFF3 F026          	movff	prodl,___flmul@temp
  5136   000EDA  CFF4 F027          	movff	prodh,___flmul@temp+1
  5137   000EDE  5026               	movf	___flmul@temp^0,w,c
  5138   000EE0  261C               	addwf	___flmul@grs^0,f,c
  5139   000EE2  5027               	movf	(___flmul@temp+1)^0,w,c
  5140   000EE4  221D               	addwfc	(___flmul@grs+1)^0,f,c
  5141   000EE6  0E00               	movlw	0
  5142   000EE8  221E               	addwfc	(___flmul@grs+2)^0,f,c
  5143   000EEA  0E00               	movlw	0
  5144   000EEC  221F               	addwfc	(___flmul@grs+3)^0,f,c
  5145   000EEE  5015               	movf	(___flmul@a+2)^0,w,c
  5146   000EF0  0210               	mulwf	(___flmul@b+1)^0,c
  5147   000EF2  CFF3 F026          	movff	prodl,___flmul@temp
  5148   000EF6  CFF4 F027          	movff	prodh,___flmul@temp+1
  5149   000EFA  5026               	movf	___flmul@temp^0,w,c
  5150   000EFC  2622               	addwf	___flmul@prod^0,f,c
  5151   000EFE  5027               	movf	(___flmul@temp+1)^0,w,c
  5152   000F00  2223               	addwfc	(___flmul@prod+1)^0,f,c
  5153   000F02  0E00               	movlw	0
  5154   000F04  2224               	addwfc	(___flmul@prod+2)^0,f,c
  5155   000F06  0E00               	movlw	0
  5156   000F08  2225               	addwfc	(___flmul@prod+3)^0,f,c
  5157   000F0A  5014               	movf	(___flmul@a+1)^0,w,c
  5158   000F0C  0211               	mulwf	(___flmul@b+2)^0,c
  5159   000F0E  CFF3 F026          	movff	prodl,___flmul@temp
  5160   000F12  CFF4 F027          	movff	prodh,___flmul@temp+1
  5161   000F16  5026               	movf	___flmul@temp^0,w,c
  5162   000F18  2622               	addwf	___flmul@prod^0,f,c
  5163   000F1A  5027               	movf	(___flmul@temp+1)^0,w,c
  5164   000F1C  2223               	addwfc	(___flmul@prod+1)^0,f,c
  5165   000F1E  0E00               	movlw	0
  5166   000F20  2224               	addwfc	(___flmul@prod+2)^0,f,c
  5167   000F22  0E00               	movlw	0
  5168   000F24  2225               	addwfc	(___flmul@prod+3)^0,f,c
  5169   000F26  5015               	movf	(___flmul@a+2)^0,w,c
  5170   000F28  0211               	mulwf	(___flmul@b+2)^0,c
  5171   000F2A  CFF3 F026          	movff	prodl,___flmul@temp
  5172   000F2E  CFF4 F027          	movff	prodh,___flmul@temp+1
  5173   000F32  5026               	movf	___flmul@temp^0,w,c
  5174   000F34  6E17               	movwf	??___flmul^0,c
  5175   000F36  5027               	movf	(___flmul@temp+1)^0,w,c
  5176   000F38  6E18               	movwf	(??___flmul+1)^0,c
  5177   000F3A  6A19               	clrf	(??___flmul+2)^0,c
  5178   000F3C  6A1A               	clrf	(??___flmul+3)^0,c
  5179   000F3E  C019  F01A         	movff	??___flmul+2,??___flmul+3
  5180   000F42  C018  F019         	movff	??___flmul+1,??___flmul+2
  5181   000F46  C017  F018         	movff	??___flmul,??___flmul+1
  5182   000F4A  6A17               	clrf	??___flmul^0,c
  5183   000F4C  5017               	movf	??___flmul^0,w,c
  5184   000F4E  2622               	addwf	___flmul@prod^0,f,c
  5185   000F50  5018               	movf	(??___flmul+1)^0,w,c
  5186   000F52  2223               	addwfc	(___flmul@prod+1)^0,f,c
  5187   000F54  5019               	movf	(??___flmul+2)^0,w,c
  5188   000F56  2224               	addwfc	(___flmul@prod+2)^0,f,c
  5189   000F58  501A               	movf	(??___flmul+3)^0,w,c
  5190   000F5A  2225               	addwfc	(___flmul@prod+3)^0,f,c
  5191   000F5C  C01C  F017         	movff	___flmul@grs,??___flmul
  5192   000F60  C01D  F018         	movff	___flmul@grs+1,??___flmul+1
  5193   000F64  C01E  F019         	movff	___flmul@grs+2,??___flmul+2
  5194   000F68  C01F  F01A         	movff	___flmul@grs+3,??___flmul+3
  5195   000F6C  0E19               	movlw	25
  5196   000F6E  EFBE  F007         	goto	u2150
  5197   000F72                     u2155:
  5198   000F72  90D8               	bcf	status,0,c
  5199   000F74  321A               	rrcf	(??___flmul+3)^0,f,c
  5200   000F76  3219               	rrcf	(??___flmul+2)^0,f,c
  5201   000F78  3218               	rrcf	(??___flmul+1)^0,f,c
  5202   000F7A  3217               	rrcf	??___flmul^0,f,c
  5203   000F7C                     u2150:
  5204   000F7C  2EE8               	decfsz	wreg,f,c
  5205   000F7E  EFB9  F007         	goto	u2155
  5206   000F82  5017               	movf	??___flmul^0,w,c
  5207   000F84  2622               	addwf	___flmul@prod^0,f,c
  5208   000F86  5018               	movf	(??___flmul+1)^0,w,c
  5209   000F88  2223               	addwfc	(___flmul@prod+1)^0,f,c
  5210   000F8A  5019               	movf	(??___flmul+2)^0,w,c
  5211   000F8C  2224               	addwfc	(___flmul@prod+2)^0,f,c
  5212   000F8E  501A               	movf	(??___flmul+3)^0,w,c
  5213   000F90  2225               	addwfc	(___flmul@prod+3)^0,f,c
  5214   000F92  C01E  F01F         	movff	___flmul@grs+2,___flmul@grs+3
  5215   000F96  C01D  F01E         	movff	___flmul@grs+1,___flmul@grs+2
  5216   000F9A  C01C  F01D         	movff	___flmul@grs,___flmul@grs+1
  5217   000F9E  6A1C               	clrf	___flmul@grs^0,c
  5218   000FA0  5020               	movf	___flmul@aexp^0,w,c
  5219   000FA2  C021  F017         	movff	___flmul@bexp,??___flmul
  5220   000FA6  6A18               	clrf	(??___flmul+1)^0,c
  5221   000FA8  2617               	addwf	??___flmul^0,f,c
  5222   000FAA  0E00               	movlw	0
  5223   000FAC  2218               	addwfc	(??___flmul+1)^0,f,c
  5224   000FAE  0E82               	movlw	130
  5225   000FB0  2417               	addwf	??___flmul^0,w,c
  5226   000FB2  6E26               	movwf	___flmul@temp^0,c
  5227   000FB4  0EFF               	movlw	255
  5228   000FB6  2018               	addwfc	(??___flmul+1)^0,w,c
  5229   000FB8  6E27               	movwf	(___flmul@temp+1)^0,c
  5230   000FBA  EFF4  F007         	goto	l2460
  5231   000FBE                     l2454:
  5232   000FBE  90D8               	bcf	status,0,c
  5233   000FC0  3622               	rlcf	___flmul@prod^0,f,c
  5234   000FC2  3623               	rlcf	(___flmul@prod+1)^0,f,c
  5235   000FC4  3624               	rlcf	(___flmul@prod+2)^0,f,c
  5236   000FC6  3625               	rlcf	(___flmul@prod+3)^0,f,c
  5237   000FC8  AE1F               	btfss	(___flmul@grs+3)^0,7,c
  5238   000FCA  EFE9  F007         	goto	u2161
  5239   000FCE  EFEB  F007         	goto	u2160
  5240   000FD2                     u2161:
  5241   000FD2  EFEC  F007         	goto	l907
  5242   000FD6                     u2160:
  5243   000FD6  8022               	bsf	___flmul@prod^0,0,c
  5244   000FD8                     l907:
  5245   000FD8  90D8               	bcf	status,0,c
  5246   000FDA  361C               	rlcf	___flmul@grs^0,f,c
  5247   000FDC  361D               	rlcf	(___flmul@grs+1)^0,f,c
  5248   000FDE  361E               	rlcf	(___flmul@grs+2)^0,f,c
  5249   000FE0  361F               	rlcf	(___flmul@grs+3)^0,f,c
  5250   000FE2  0626               	decf	___flmul@temp^0,f,c
  5251   000FE4  A0D8               	btfss	status,0,c
  5252   000FE6  0627               	decf	(___flmul@temp+1)^0,f,c
  5253   000FE8                     l2460:
  5254   000FE8  AE24               	btfss	(___flmul@prod+2)^0,7,c
  5255   000FEA  EFF9  F007         	goto	u2171
  5256   000FEE  EFFB  F007         	goto	u2170
  5257   000FF2                     u2171:
  5258   000FF2  EFDF  F007         	goto	l2454
  5259   000FF6                     u2170:
  5260   000FF6  6A20               	clrf	___flmul@aexp^0,c
  5261   000FF8  AE1F               	btfss	(___flmul@grs+3)^0,7,c
  5262   000FFA  EF01  F008         	goto	u2181
  5263   000FFE  EF03  F008         	goto	u2180
  5264   001002                     u2181:
  5265   001002  EF27  F008         	goto	l909
  5266   001006                     u2180:
  5267   001006  0EFF               	movlw	255
  5268   001008  141C               	andwf	___flmul@grs^0,w,c
  5269   00100A  6E17               	movwf	??___flmul^0,c
  5270   00100C  0EFF               	movlw	255
  5271   00100E  141D               	andwf	(___flmul@grs+1)^0,w,c
  5272   001010  6E18               	movwf	(??___flmul+1)^0,c
  5273   001012  0EFF               	movlw	255
  5274   001014  141E               	andwf	(___flmul@grs+2)^0,w,c
  5275   001016  6E19               	movwf	(??___flmul+2)^0,c
  5276   001018  0E7F               	movlw	127
  5277   00101A  141F               	andwf	(___flmul@grs+3)^0,w,c
  5278   00101C  6E1A               	movwf	(??___flmul+3)^0,c
  5279   00101E  5017               	movf	??___flmul^0,w,c
  5280   001020  1018               	iorwf	(??___flmul+1)^0,w,c
  5281   001022  1019               	iorwf	(??___flmul+2)^0,w,c
  5282   001024  101A               	iorwf	(??___flmul+3)^0,w,c
  5283   001026  B4D8               	btfsc	status,2,c
  5284   001028  EF18  F008         	goto	u2191
  5285   00102C  EF1A  F008         	goto	u2190
  5286   001030                     u2191:
  5287   001030  EF1E  F008         	goto	l910
  5288   001034                     u2190:
  5289   001034                     l2464:
  5290   001034  0E01               	movlw	1
  5291   001036  6E20               	movwf	___flmul@aexp^0,c
  5292   001038  EF27  F008         	goto	l909
  5293   00103C                     l910:
  5294   00103C  A022               	btfss	___flmul@prod^0,0,c
  5295   00103E  EF23  F008         	goto	u2201
  5296   001042  EF25  F008         	goto	u2200
  5297   001046                     u2201:
  5298   001046  EF27  F008         	goto	l909
  5299   00104A                     u2200:
  5300   00104A  EF1A  F008         	goto	l2464
  5301   00104E                     l909:
  5302   00104E  5020               	movf	___flmul@aexp^0,w,c
  5303   001050  B4D8               	btfsc	status,2,c
  5304   001052  EF2D  F008         	goto	u2211
  5305   001056  EF2F  F008         	goto	u2210
  5306   00105A                     u2211:
  5307   00105A  EF53  F008         	goto	l2476
  5308   00105E                     u2210:
  5309   00105E  0E01               	movlw	1
  5310   001060  2622               	addwf	___flmul@prod^0,f,c
  5311   001062  0E00               	movlw	0
  5312   001064  2223               	addwfc	(___flmul@prod+1)^0,f,c
  5313   001066  2224               	addwfc	(___flmul@prod+2)^0,f,c
  5314   001068  2225               	addwfc	(___flmul@prod+3)^0,f,c
  5315   00106A  A025               	btfss	(___flmul@prod+3)^0,0,c
  5316   00106C  EF3A  F008         	goto	u2221
  5317   001070  EF3C  F008         	goto	u2220
  5318   001074                     u2221:
  5319   001074  EF53  F008         	goto	l2476
  5320   001078                     u2220:
  5321   001078  C022  F017         	movff	___flmul@prod,??___flmul
  5322   00107C  C023  F018         	movff	___flmul@prod+1,??___flmul+1
  5323   001080  C024  F019         	movff	___flmul@prod+2,??___flmul+2
  5324   001084  C025  F01A         	movff	___flmul@prod+3,??___flmul+3
  5325   001088  341A               	rlcf	(??___flmul+3)^0,w,c
  5326   00108A  321A               	rrcf	(??___flmul+3)^0,f,c
  5327   00108C  3219               	rrcf	(??___flmul+2)^0,f,c
  5328   00108E  3218               	rrcf	(??___flmul+1)^0,f,c
  5329   001090  3217               	rrcf	??___flmul^0,f,c
  5330   001092  C017  F022         	movff	??___flmul,___flmul@prod
  5331   001096  C018  F023         	movff	??___flmul+1,___flmul@prod+1
  5332   00109A  C019  F024         	movff	??___flmul+2,___flmul@prod+2
  5333   00109E  C01A  F025         	movff	??___flmul+3,___flmul@prod+3
  5334   0010A2  4A26               	infsnz	___flmul@temp^0,f,c
  5335   0010A4  2A27               	incf	(___flmul@temp+1)^0,f,c
  5336   0010A6                     l2476:
  5337   0010A6  BE27               	btfsc	(___flmul@temp+1)^0,7,c
  5338   0010A8  EF5E  F008         	goto	u2231
  5339   0010AC  5027               	movf	(___flmul@temp+1)^0,w,c
  5340   0010AE  E108               	bnz	u2230
  5341   0010B0  2826               	incf	___flmul@temp^0,w,c
  5342   0010B2  A0D8               	btfss	status,0,c
  5343   0010B4  EF5E  F008         	goto	u2231
  5344   0010B8  EF60  F008         	goto	u2230
  5345   0010BC                     u2231:
  5346   0010BC  EF6A  F008         	goto	l2480
  5347   0010C0                     u2230:
  5348   0010C0  0E00               	movlw	0
  5349   0010C2  6E22               	movwf	___flmul@prod^0,c
  5350   0010C4  0E00               	movlw	0
  5351   0010C6  6E23               	movwf	(___flmul@prod+1)^0,c
  5352   0010C8  0E80               	movlw	128
  5353   0010CA  6E24               	movwf	(___flmul@prod+2)^0,c
  5354   0010CC  0E7F               	movlw	127
  5355   0010CE  6E25               	movwf	(___flmul@prod+3)^0,c
  5356   0010D0  EF97  F008         	goto	l2494
  5357   0010D4                     l2480:
  5358   0010D4  BE27               	btfsc	(___flmul@temp+1)^0,7,c
  5359   0010D6  EF77  F008         	goto	u2240
  5360   0010DA  5027               	movf	(___flmul@temp+1)^0,w,c
  5361   0010DC  E106               	bnz	u2241
  5362   0010DE  0426               	decf	___flmul@temp^0,w,c
  5363   0010E0  B0D8               	btfsc	status,0,c
  5364   0010E2  EF75  F008         	goto	u2241
  5365   0010E6  EF77  F008         	goto	u2240
  5366   0010EA                     u2241:
  5367   0010EA  EF82  F008         	goto	l917
  5368   0010EE                     u2240:
  5369   0010EE  0E00               	movlw	0
  5370   0010F0  6E22               	movwf	___flmul@prod^0,c
  5371   0010F2  0E00               	movlw	0
  5372   0010F4  6E23               	movwf	(___flmul@prod+1)^0,c
  5373   0010F6  0E00               	movlw	0
  5374   0010F8  6E24               	movwf	(___flmul@prod+2)^0,c
  5375   0010FA  0E00               	movlw	0
  5376   0010FC  6E25               	movwf	(___flmul@prod+3)^0,c
  5377   0010FE  6A1B               	clrf	___flmul@sign^0,c
  5378   001100  EF97  F008         	goto	l2494
  5379   001104                     l917:
  5380   001104  C026  F021         	movff	___flmul@temp,___flmul@bexp
  5381   001108  0EFF               	movlw	255
  5382   00110A  1622               	andwf	___flmul@prod^0,f,c
  5383   00110C  0EFF               	movlw	255
  5384   00110E  1623               	andwf	(___flmul@prod+1)^0,f,c
  5385   001110  0E7F               	movlw	127
  5386   001112  1624               	andwf	(___flmul@prod+2)^0,f,c
  5387   001114  0E00               	movlw	0
  5388   001116  1625               	andwf	(___flmul@prod+3)^0,f,c
  5389   001118  A021               	btfss	___flmul@bexp^0,0,c
  5390   00111A  EF91  F008         	goto	u2251
  5391   00111E  EF93  F008         	goto	u2250
  5392   001122                     u2251:
  5393   001122  EF94  F008         	goto	l2492
  5394   001126                     u2250:
  5395   001126  8E24               	bsf	(___flmul@prod+2)^0,7,c
  5396   001128                     l2492:
  5397   001128  90D8               	bcf	status,0,c
  5398   00112A  3021               	rrcf	___flmul@bexp^0,w,c
  5399   00112C  6E25               	movwf	(___flmul@prod+3)^0,c
  5400   00112E                     l2494:
  5401   00112E  501B               	movf	___flmul@sign^0,w,c
  5402   001130  1225               	iorwf	(___flmul@prod+3)^0,f,c
  5403   001132  C022  F00F         	movff	___flmul@prod,?___flmul
  5404   001136  C023  F010         	movff	___flmul@prod+1,?___flmul+1
  5405   00113A  C024  F011         	movff	___flmul@prod+2,?___flmul+2
  5406   00113E  C025  F012         	movff	___flmul@prod+3,?___flmul+3
  5407   001142                     l904:
  5408   001142  0012               	return		;funcret
  5409   001144                     __end_of___flmul:
  5410                           	callstack 0
  5411                           
  5412 ;; *************** function ___fldiv *****************
  5413 ;; Defined at:
  5414 ;;		line 11 in file "C:\Program Files\Microchip\xc8\v2.50\pic\sources\c99\common\sprcdiv.c"
  5415 ;; Parameters:    Size  Location     Type
  5416 ;;  b               4   63[COMRAM] unsigned char 
  5417 ;;  a               4   67[COMRAM] unsigned char 
  5418 ;; Auto vars:     Size  Location     Type
  5419 ;;  grs             4   82[COMRAM] unsigned long 
  5420 ;;  rem             4   75[COMRAM] unsigned long 
  5421 ;;  new_exp         2   80[COMRAM] short 
  5422 ;;  aexp            1   87[COMRAM] unsigned char 
  5423 ;;  bexp            1   86[COMRAM] unsigned char 
  5424 ;;  sign            1   79[COMRAM] unsigned char 
  5425 ;; Return value:  Size  Location     Type
  5426 ;;                  4   63[COMRAM] unsigned char 
  5427 ;; Registers used:
  5428 ;;		wreg, status,2, status,0
  5429 ;; Tracked objects:
  5430 ;;		On entry : 0/0
  5431 ;;		On exit  : 0/0
  5432 ;;		Unchanged: 0/0
  5433 ;; Data sizes:     COMRAM   BANK0   BANK1   BANK2   BANK3   BANK4   BANK5   BANK6   BANK7
  5434 ;;      Params:         8       0       0       0       0       0       0       0       0
  5435 ;;      Locals:        13       0       0       0       0       0       0       0       0
  5436 ;;      Temps:          4       0       0       0       0       0       0       0       0
  5437 ;;      Totals:        25       0       0       0       0       0       0       0       0
  5438 ;;Total ram usage:       25 bytes
  5439 ;; Hardware stack levels used: 1
  5440 ;; Hardware stack levels required when called: 1
  5441 ;; This function calls:
  5442 ;;		Nothing
  5443 ;; This function is called by:
  5444 ;;		_mapping
  5445 ;; This function uses a non-reentrant model
  5446 ;;
  5447                           
  5448                           	psect	text20
  5449   001144                     __ptext20:
  5450                           	callstack 0
  5451   001144                     ___fldiv:
  5452                           	callstack 27
  5453   001144  5043               	movf	(___fldiv@b+3)^0,w,c
  5454   001146  0B80               	andlw	128
  5455   001148  6E50               	movwf	___fldiv@sign^0,c
  5456   00114A  5043               	movf	(___fldiv@b+3)^0,w,c
  5457   00114C  2443               	addwf	(___fldiv@b+3)^0,w,c
  5458   00114E  6E57               	movwf	___fldiv@bexp^0,c
  5459   001150  AE42               	btfss	(___fldiv@b+2)^0,7,c
  5460   001152  EFAD  F008         	goto	u1841
  5461   001156  EFAF  F008         	goto	u1840
  5462   00115A                     u1841:
  5463   00115A  EFB0  F008         	goto	l2242
  5464   00115E                     u1840:
  5465   00115E  8057               	bsf	___fldiv@bexp^0,0,c
  5466   001160                     l2242:
  5467   001160  5057               	movf	___fldiv@bexp^0,w,c
  5468   001162  B4D8               	btfsc	status,2,c
  5469   001164  EFB6  F008         	goto	u1851
  5470   001168  EFB8  F008         	goto	u1850
  5471   00116C                     u1851:
  5472   00116C  EFCC  F008         	goto	l2252
  5473   001170                     u1850:
  5474   001170  2857               	incf	___fldiv@bexp^0,w,c
  5475   001172  A4D8               	btfss	status,2,c
  5476   001174  EFBE  F008         	goto	u1861
  5477   001178  EFC0  F008         	goto	u1860
  5478   00117C                     u1861:
  5479   00117C  EFC8  F008         	goto	l2248
  5480   001180                     u1860:
  5481   001180  0E00               	movlw	0
  5482   001182  6E40               	movwf	___fldiv@b^0,c
  5483   001184  0E00               	movlw	0
  5484   001186  6E41               	movwf	(___fldiv@b+1)^0,c
  5485   001188  0E00               	movlw	0
  5486   00118A  6E42               	movwf	(___fldiv@b+2)^0,c
  5487   00118C  0E00               	movlw	0
  5488   00118E  6E43               	movwf	(___fldiv@b+3)^0,c
  5489   001190                     l2248:
  5490   001190  8E42               	bsf	(___fldiv@b+2)^0,7,c
  5491   001192  6A43               	clrf	(___fldiv@b+3)^0,c
  5492   001194  EFD4  F008         	goto	l2254
  5493   001198                     l2252:
  5494   001198  0E00               	movlw	0
  5495   00119A  6E40               	movwf	___fldiv@b^0,c
  5496   00119C  0E00               	movlw	0
  5497   00119E  6E41               	movwf	(___fldiv@b+1)^0,c
  5498   0011A0  0E00               	movlw	0
  5499   0011A2  6E42               	movwf	(___fldiv@b+2)^0,c
  5500   0011A4  0E00               	movlw	0
  5501   0011A6  6E43               	movwf	(___fldiv@b+3)^0,c
  5502   0011A8                     l2254:
  5503   0011A8  5047               	movf	(___fldiv@a+3)^0,w,c
  5504   0011AA  0B80               	andlw	128
  5505   0011AC  1A50               	xorwf	___fldiv@sign^0,f,c
  5506   0011AE  5047               	movf	(___fldiv@a+3)^0,w,c
  5507   0011B0  2447               	addwf	(___fldiv@a+3)^0,w,c
  5508   0011B2  6E58               	movwf	___fldiv@aexp^0,c
  5509   0011B4  AE46               	btfss	(___fldiv@a+2)^0,7,c
  5510   0011B6  EFDF  F008         	goto	u1871
  5511   0011BA  EFE1  F008         	goto	u1870
  5512   0011BE                     u1871:
  5513   0011BE  EFE2  F008         	goto	l2262
  5514   0011C2                     u1870:
  5515   0011C2  8058               	bsf	___fldiv@aexp^0,0,c
  5516   0011C4                     l2262:
  5517   0011C4  5058               	movf	___fldiv@aexp^0,w,c
  5518   0011C6  B4D8               	btfsc	status,2,c
  5519   0011C8  EFE8  F008         	goto	u1881
  5520   0011CC  EFEA  F008         	goto	u1880
  5521   0011D0                     u1881:
  5522   0011D0  EFFE  F008         	goto	l2272
  5523   0011D4                     u1880:
  5524   0011D4  2858               	incf	___fldiv@aexp^0,w,c
  5525   0011D6  A4D8               	btfss	status,2,c
  5526   0011D8  EFF0  F008         	goto	u1891
  5527   0011DC  EFF2  F008         	goto	u1890
  5528   0011E0                     u1891:
  5529   0011E0  EFFA  F008         	goto	l2268
  5530   0011E4                     u1890:
  5531   0011E4  0E00               	movlw	0
  5532   0011E6  6E44               	movwf	___fldiv@a^0,c
  5533   0011E8  0E00               	movlw	0
  5534   0011EA  6E45               	movwf	(___fldiv@a+1)^0,c
  5535   0011EC  0E00               	movlw	0
  5536   0011EE  6E46               	movwf	(___fldiv@a+2)^0,c
  5537   0011F0  0E00               	movlw	0
  5538   0011F2  6E47               	movwf	(___fldiv@a+3)^0,c
  5539   0011F4                     l2268:
  5540   0011F4  8E46               	bsf	(___fldiv@a+2)^0,7,c
  5541   0011F6  6A47               	clrf	(___fldiv@a+3)^0,c
  5542   0011F8  EF06  F009         	goto	l2274
  5543   0011FC                     l2272:
  5544   0011FC  0E00               	movlw	0
  5545   0011FE  6E44               	movwf	___fldiv@a^0,c
  5546   001200  0E00               	movlw	0
  5547   001202  6E45               	movwf	(___fldiv@a+1)^0,c
  5548   001204  0E00               	movlw	0
  5549   001206  6E46               	movwf	(___fldiv@a+2)^0,c
  5550   001208  0E00               	movlw	0
  5551   00120A  6E47               	movwf	(___fldiv@a+3)^0,c
  5552   00120C                     l2274:
  5553   00120C  5044               	movf	___fldiv@a^0,w,c
  5554   00120E  1045               	iorwf	(___fldiv@a+1)^0,w,c
  5555   001210  1046               	iorwf	(___fldiv@a+2)^0,w,c
  5556   001212  1047               	iorwf	(___fldiv@a+3)^0,w,c
  5557   001214  A4D8               	btfss	status,2,c
  5558   001216  EF0F  F009         	goto	u1901
  5559   00121A  EF11  F009         	goto	u1900
  5560   00121E                     u1901:
  5561   00121E  EF29  F009         	goto	l2286
  5562   001222                     u1900:
  5563   001222  0E00               	movlw	0
  5564   001224  6E40               	movwf	___fldiv@b^0,c
  5565   001226  0E00               	movlw	0
  5566   001228  6E41               	movwf	(___fldiv@b+1)^0,c
  5567   00122A  0E00               	movlw	0
  5568   00122C  6E42               	movwf	(___fldiv@b+2)^0,c
  5569   00122E  0E00               	movlw	0
  5570   001230  6E43               	movwf	(___fldiv@b+3)^0,c
  5571   001232  0E80               	movlw	128
  5572   001234  1242               	iorwf	(___fldiv@b+2)^0,f,c
  5573   001236  0E7F               	movlw	127
  5574   001238  1243               	iorwf	(___fldiv@b+3)^0,f,c
  5575   00123A                     l2280:
  5576   00123A  5050               	movf	___fldiv@sign^0,w,c
  5577   00123C  1243               	iorwf	(___fldiv@b+3)^0,f,c
  5578   00123E  C040  F040         	movff	___fldiv@b,?___fldiv
  5579   001242  C041  F041         	movff	___fldiv@b+1,?___fldiv+1
  5580   001246  C042  F042         	movff	___fldiv@b+2,?___fldiv+2
  5581   00124A  C043  F043         	movff	___fldiv@b+3,?___fldiv+3
  5582   00124E  EF69  F00A         	goto	l868
  5583   001252                     l2286:
  5584   001252  5057               	movf	___fldiv@bexp^0,w,c
  5585   001254  A4D8               	btfss	status,2,c
  5586   001256  EF2F  F009         	goto	u1911
  5587   00125A  EF31  F009         	goto	u1910
  5588   00125E                     u1911:
  5589   00125E  EF3B  F009         	goto	l2294
  5590   001262                     u1910:
  5591   001262  0E00               	movlw	0
  5592   001264  6E40               	movwf	?___fldiv^0,c
  5593   001266  0E00               	movlw	0
  5594   001268  6E41               	movwf	(?___fldiv+1)^0,c
  5595   00126A  0E00               	movlw	0
  5596   00126C  6E42               	movwf	(?___fldiv+2)^0,c
  5597   00126E  0E00               	movlw	0
  5598   001270  6E43               	movwf	(?___fldiv+3)^0,c
  5599   001272  EF69  F00A         	goto	l868
  5600   001276                     l2294:
  5601   001276  5058               	movf	___fldiv@aexp^0,w,c
  5602   001278  C057  F048         	movff	___fldiv@bexp,??___fldiv
  5603   00127C  6A49               	clrf	(??___fldiv+1)^0,c
  5604   00127E  5E48               	subwf	??___fldiv^0,f,c
  5605   001280  0E00               	movlw	0
  5606   001282  5A49               	subwfb	(??___fldiv+1)^0,f,c
  5607   001284  0E7F               	movlw	127
  5608   001286  2448               	addwf	??___fldiv^0,w,c
  5609   001288  6E51               	movwf	___fldiv@new_exp^0,c
  5610   00128A  0E00               	movlw	0
  5611   00128C  2049               	addwfc	(??___fldiv+1)^0,w,c
  5612   00128E  6E52               	movwf	(___fldiv@new_exp+1)^0,c
  5613   001290  C040  F04C         	movff	___fldiv@b,___fldiv@rem
  5614   001294  C041  F04D         	movff	___fldiv@b+1,___fldiv@rem+1
  5615   001298  C042  F04E         	movff	___fldiv@b+2,___fldiv@rem+2
  5616   00129C  C043  F04F         	movff	___fldiv@b+3,___fldiv@rem+3
  5617   0012A0  0E00               	movlw	0
  5618   0012A2  6E40               	movwf	___fldiv@b^0,c
  5619   0012A4  0E00               	movlw	0
  5620   0012A6  6E41               	movwf	(___fldiv@b+1)^0,c
  5621   0012A8  0E00               	movlw	0
  5622   0012AA  6E42               	movwf	(___fldiv@b+2)^0,c
  5623   0012AC  0E00               	movlw	0
  5624   0012AE  6E43               	movwf	(___fldiv@b+3)^0,c
  5625   0012B0  0E00               	movlw	0
  5626   0012B2  6E53               	movwf	___fldiv@grs^0,c
  5627   0012B4  0E00               	movlw	0
  5628   0012B6  6E54               	movwf	(___fldiv@grs+1)^0,c
  5629   0012B8  0E00               	movlw	0
  5630   0012BA  6E55               	movwf	(___fldiv@grs+2)^0,c
  5631   0012BC  0E00               	movlw	0
  5632   0012BE  6E56               	movwf	(___fldiv@grs+3)^0,c
  5633   0012C0  6A58               	clrf	___fldiv@aexp^0,c
  5634   0012C2  EF9B  F009         	goto	l870
  5635   0012C6                     l2304:
  5636   0012C6  5058               	movf	___fldiv@aexp^0,w,c
  5637   0012C8  B4D8               	btfsc	status,2,c
  5638   0012CA  EF69  F009         	goto	u1921
  5639   0012CE  EF6B  F009         	goto	u1920
  5640   0012D2                     u1921:
  5641   0012D2  EF82  F009         	goto	l2312
  5642   0012D6                     u1920:
  5643   0012D6  90D8               	bcf	status,0,c
  5644   0012D8  364C               	rlcf	___fldiv@rem^0,f,c
  5645   0012DA  364D               	rlcf	(___fldiv@rem+1)^0,f,c
  5646   0012DC  364E               	rlcf	(___fldiv@rem+2)^0,f,c
  5647   0012DE  364F               	rlcf	(___fldiv@rem+3)^0,f,c
  5648   0012E0  90D8               	bcf	status,0,c
  5649   0012E2  3640               	rlcf	___fldiv@b^0,f,c
  5650   0012E4  3641               	rlcf	(___fldiv@b+1)^0,f,c
  5651   0012E6  3642               	rlcf	(___fldiv@b+2)^0,f,c
  5652   0012E8  3643               	rlcf	(___fldiv@b+3)^0,f,c
  5653   0012EA  AE56               	btfss	(___fldiv@grs+3)^0,7,c
  5654   0012EC  EF7A  F009         	goto	u1931
  5655   0012F0  EF7C  F009         	goto	u1930
  5656   0012F4                     u1931:
  5657   0012F4  EF7D  F009         	goto	l873
  5658   0012F8                     u1930:
  5659   0012F8  8040               	bsf	___fldiv@b^0,0,c
  5660   0012FA                     l873:
  5661   0012FA  90D8               	bcf	status,0,c
  5662   0012FC  3653               	rlcf	___fldiv@grs^0,f,c
  5663   0012FE  3654               	rlcf	(___fldiv@grs+1)^0,f,c
  5664   001300  3655               	rlcf	(___fldiv@grs+2)^0,f,c
  5665   001302  3656               	rlcf	(___fldiv@grs+3)^0,f,c
  5666   001304                     l2312:
  5667   001304  5044               	movf	___fldiv@a^0,w,c
  5668   001306  5C4C               	subwf	___fldiv@rem^0,w,c
  5669   001308  5045               	movf	(___fldiv@a+1)^0,w,c
  5670   00130A  584D               	subwfb	(___fldiv@rem+1)^0,w,c
  5671   00130C  5046               	movf	(___fldiv@a+2)^0,w,c
  5672   00130E  584E               	subwfb	(___fldiv@rem+2)^0,w,c
  5673   001310  5047               	movf	(___fldiv@a+3)^0,w,c
  5674   001312  584F               	subwfb	(___fldiv@rem+3)^0,w,c
  5675   001314  A0D8               	btfss	status,0,c
  5676   001316  EF8F  F009         	goto	u1941
  5677   00131A  EF91  F009         	goto	u1940
  5678   00131E                     u1941:
  5679   00131E  EF9A  F009         	goto	l2318
  5680   001322                     u1940:
  5681   001322  8C56               	bsf	(___fldiv@grs+3)^0,6,c
  5682   001324  5044               	movf	___fldiv@a^0,w,c
  5683   001326  5E4C               	subwf	___fldiv@rem^0,f,c
  5684   001328  5045               	movf	(___fldiv@a+1)^0,w,c
  5685   00132A  5A4D               	subwfb	(___fldiv@rem+1)^0,f,c
  5686   00132C  5046               	movf	(___fldiv@a+2)^0,w,c
  5687   00132E  5A4E               	subwfb	(___fldiv@rem+2)^0,f,c
  5688   001330  5047               	movf	(___fldiv@a+3)^0,w,c
  5689   001332  5A4F               	subwfb	(___fldiv@rem+3)^0,f,c
  5690   001334                     l2318:
  5691   001334  2A58               	incf	___fldiv@aexp^0,f,c
  5692   001336                     l870:
  5693   001336  0E19               	movlw	25
  5694   001338  6458               	cpfsgt	___fldiv@aexp^0,c
  5695   00133A  EFA1  F009         	goto	u1951
  5696   00133E  EFA3  F009         	goto	u1950
  5697   001342                     u1951:
  5698   001342  EF63  F009         	goto	l2304
  5699   001346                     u1950:
  5700   001346  504C               	movf	___fldiv@rem^0,w,c
  5701   001348  104D               	iorwf	(___fldiv@rem+1)^0,w,c
  5702   00134A  104E               	iorwf	(___fldiv@rem+2)^0,w,c
  5703   00134C  104F               	iorwf	(___fldiv@rem+3)^0,w,c
  5704   00134E  B4D8               	btfsc	status,2,c
  5705   001350  EFAC  F009         	goto	u1961
  5706   001354  EFAE  F009         	goto	u1960
  5707   001358                     u1961:
  5708   001358  EFC6  F009         	goto	l2330
  5709   00135C                     u1960:
  5710   00135C  8053               	bsf	___fldiv@grs^0,0,c
  5711   00135E  EFC6  F009         	goto	l2330
  5712   001362                     l2324:
  5713   001362  90D8               	bcf	status,0,c
  5714   001364  3640               	rlcf	___fldiv@b^0,f,c
  5715   001366  3641               	rlcf	(___fldiv@b+1)^0,f,c
  5716   001368  3642               	rlcf	(___fldiv@b+2)^0,f,c
  5717   00136A  3643               	rlcf	(___fldiv@b+3)^0,f,c
  5718   00136C  AE56               	btfss	(___fldiv@grs+3)^0,7,c
  5719   00136E  EFBB  F009         	goto	u1971
  5720   001372  EFBD  F009         	goto	u1970
  5721   001376                     u1971:
  5722   001376  EFBE  F009         	goto	l879
  5723   00137A                     u1970:
  5724   00137A  8040               	bsf	___fldiv@b^0,0,c
  5725   00137C                     l879:
  5726   00137C  90D8               	bcf	status,0,c
  5727   00137E  3653               	rlcf	___fldiv@grs^0,f,c
  5728   001380  3654               	rlcf	(___fldiv@grs+1)^0,f,c
  5729   001382  3655               	rlcf	(___fldiv@grs+2)^0,f,c
  5730   001384  3656               	rlcf	(___fldiv@grs+3)^0,f,c
  5731   001386  0651               	decf	___fldiv@new_exp^0,f,c
  5732   001388  A0D8               	btfss	status,0,c
  5733   00138A  0652               	decf	(___fldiv@new_exp+1)^0,f,c
  5734   00138C                     l2330:
  5735   00138C  AE42               	btfss	(___fldiv@b+2)^0,7,c
  5736   00138E  EFCB  F009         	goto	u1981
  5737   001392  EFCD  F009         	goto	u1980
  5738   001396                     u1981:
  5739   001396  EFB1  F009         	goto	l2324
  5740   00139A                     u1980:
  5741   00139A  6A58               	clrf	___fldiv@aexp^0,c
  5742   00139C  AE56               	btfss	(___fldiv@grs+3)^0,7,c
  5743   00139E  EFD3  F009         	goto	u1991
  5744   0013A2  EFD5  F009         	goto	u1990
  5745   0013A6                     u1991:
  5746   0013A6  EFF9  F009         	goto	l881
  5747   0013AA                     u1990:
  5748   0013AA  0EFF               	movlw	255
  5749   0013AC  1453               	andwf	___fldiv@grs^0,w,c
  5750   0013AE  6E48               	movwf	??___fldiv^0,c
  5751   0013B0  0EFF               	movlw	255
  5752   0013B2  1454               	andwf	(___fldiv@grs+1)^0,w,c
  5753   0013B4  6E49               	movwf	(??___fldiv+1)^0,c
  5754   0013B6  0EFF               	movlw	255
  5755   0013B8  1455               	andwf	(___fldiv@grs+2)^0,w,c
  5756   0013BA  6E4A               	movwf	(??___fldiv+2)^0,c
  5757   0013BC  0E7F               	movlw	127
  5758   0013BE  1456               	andwf	(___fldiv@grs+3)^0,w,c
  5759   0013C0  6E4B               	movwf	(??___fldiv+3)^0,c
  5760   0013C2  5048               	movf	??___fldiv^0,w,c
  5761   0013C4  1049               	iorwf	(??___fldiv+1)^0,w,c
  5762   0013C6  104A               	iorwf	(??___fldiv+2)^0,w,c
  5763   0013C8  104B               	iorwf	(??___fldiv+3)^0,w,c
  5764   0013CA  B4D8               	btfsc	status,2,c
  5765   0013CC  EFEA  F009         	goto	u2001
  5766   0013D0  EFEC  F009         	goto	u2000
  5767   0013D4                     u2001:
  5768   0013D4  EFF0  F009         	goto	l882
  5769   0013D8                     u2000:
  5770   0013D8                     l2334:
  5771   0013D8  0E01               	movlw	1
  5772   0013DA  6E58               	movwf	___fldiv@aexp^0,c
  5773   0013DC  EFF9  F009         	goto	l881
  5774   0013E0                     l882:
  5775   0013E0  A040               	btfss	___fldiv@b^0,0,c
  5776   0013E2  EFF5  F009         	goto	u2011
  5777   0013E6  EFF7  F009         	goto	u2010
  5778   0013EA                     u2011:
  5779   0013EA  EFF9  F009         	goto	l881
  5780   0013EE                     u2010:
  5781   0013EE  EFEC  F009         	goto	l2334
  5782   0013F2                     l881:
  5783   0013F2  5058               	movf	___fldiv@aexp^0,w,c
  5784   0013F4  B4D8               	btfsc	status,2,c
  5785   0013F6  EFFF  F009         	goto	u2021
  5786   0013FA  EF01  F00A         	goto	u2020
  5787   0013FE                     u2021:
  5788   0013FE  EF25  F00A         	goto	l2346
  5789   001402                     u2020:
  5790   001402  0E01               	movlw	1
  5791   001404  2640               	addwf	___fldiv@b^0,f,c
  5792   001406  0E00               	movlw	0
  5793   001408  2241               	addwfc	(___fldiv@b+1)^0,f,c
  5794   00140A  2242               	addwfc	(___fldiv@b+2)^0,f,c
  5795   00140C  2243               	addwfc	(___fldiv@b+3)^0,f,c
  5796   00140E  A043               	btfss	(___fldiv@b+3)^0,0,c
  5797   001410  EF0C  F00A         	goto	u2031
  5798   001414  EF0E  F00A         	goto	u2030
  5799   001418                     u2031:
  5800   001418  EF25  F00A         	goto	l2346
  5801   00141C                     u2030:
  5802   00141C  C040  F048         	movff	___fldiv@b,??___fldiv
  5803   001420  C041  F049         	movff	___fldiv@b+1,??___fldiv+1
  5804   001424  C042  F04A         	movff	___fldiv@b+2,??___fldiv+2
  5805   001428  C043  F04B         	movff	___fldiv@b+3,??___fldiv+3
  5806   00142C  344B               	rlcf	(??___fldiv+3)^0,w,c
  5807   00142E  324B               	rrcf	(??___fldiv+3)^0,f,c
  5808   001430  324A               	rrcf	(??___fldiv+2)^0,f,c
  5809   001432  3249               	rrcf	(??___fldiv+1)^0,f,c
  5810   001434  3248               	rrcf	??___fldiv^0,f,c
  5811   001436  C048  F040         	movff	??___fldiv,___fldiv@b
  5812   00143A  C049  F041         	movff	??___fldiv+1,___fldiv@b+1
  5813   00143E  C04A  F042         	movff	??___fldiv+2,___fldiv@b+2
  5814   001442  C04B  F043         	movff	??___fldiv+3,___fldiv@b+3
  5815   001446  4A51               	infsnz	___fldiv@new_exp^0,f,c
  5816   001448  2A52               	incf	(___fldiv@new_exp+1)^0,f,c
  5817   00144A                     l2346:
  5818   00144A  BE52               	btfsc	(___fldiv@new_exp+1)^0,7,c
  5819   00144C  EF30  F00A         	goto	u2041
  5820   001450  5052               	movf	(___fldiv@new_exp+1)^0,w,c
  5821   001452  E108               	bnz	u2040
  5822   001454  2851               	incf	___fldiv@new_exp^0,w,c
  5823   001456  A0D8               	btfss	status,0,c
  5824   001458  EF30  F00A         	goto	u2041
  5825   00145C  EF32  F00A         	goto	u2040
  5826   001460                     u2041:
  5827   001460  EF3D  F00A         	goto	l2350
  5828   001464                     u2040:
  5829   001464  0E00               	movlw	0
  5830   001466  6E52               	movwf	(___fldiv@new_exp+1)^0,c
  5831   001468  6851               	setf	___fldiv@new_exp^0,c
  5832   00146A  0E00               	movlw	0
  5833   00146C  6E40               	movwf	___fldiv@b^0,c
  5834   00146E  0E00               	movlw	0
  5835   001470  6E41               	movwf	(___fldiv@b+1)^0,c
  5836   001472  0E00               	movlw	0
  5837   001474  6E42               	movwf	(___fldiv@b+2)^0,c
  5838   001476  0E00               	movlw	0
  5839   001478  6E43               	movwf	(___fldiv@b+3)^0,c
  5840   00147A                     l2350:
  5841   00147A  BE52               	btfsc	(___fldiv@new_exp+1)^0,7,c
  5842   00147C  EF4A  F00A         	goto	u2050
  5843   001480  5052               	movf	(___fldiv@new_exp+1)^0,w,c
  5844   001482  E106               	bnz	u2051
  5845   001484  0451               	decf	___fldiv@new_exp^0,w,c
  5846   001486  B0D8               	btfsc	status,0,c
  5847   001488  EF48  F00A         	goto	u2051
  5848   00148C  EF4A  F00A         	goto	u2050
  5849   001490                     u2051:
  5850   001490  EF57  F00A         	goto	l2356
  5851   001494                     u2050:
  5852   001494  0E00               	movlw	0
  5853   001496  6E52               	movwf	(___fldiv@new_exp+1)^0,c
  5854   001498  0E00               	movlw	0
  5855   00149A  6E51               	movwf	___fldiv@new_exp^0,c
  5856   00149C  0E00               	movlw	0
  5857   00149E  6E40               	movwf	___fldiv@b^0,c
  5858   0014A0  0E00               	movlw	0
  5859   0014A2  6E41               	movwf	(___fldiv@b+1)^0,c
  5860   0014A4  0E00               	movlw	0
  5861   0014A6  6E42               	movwf	(___fldiv@b+2)^0,c
  5862   0014A8  0E00               	movlw	0
  5863   0014AA  6E43               	movwf	(___fldiv@b+3)^0,c
  5864   0014AC  6A50               	clrf	___fldiv@sign^0,c
  5865   0014AE                     l2356:
  5866   0014AE  C051  F057         	movff	___fldiv@new_exp,___fldiv@bexp
  5867   0014B2  A057               	btfss	___fldiv@bexp^0,0,c
  5868   0014B4  EF5E  F00A         	goto	u2061
  5869   0014B8  EF60  F00A         	goto	u2060
  5870   0014BC                     u2061:
  5871   0014BC  EF63  F00A         	goto	l2362
  5872   0014C0                     u2060:
  5873   0014C0  8E42               	bsf	(___fldiv@b+2)^0,7,c
  5874   0014C2  EF64  F00A         	goto	l2364
  5875   0014C6                     l2362:
  5876   0014C6  9E42               	bcf	(___fldiv@b+2)^0,7,c
  5877   0014C8                     l2364:
  5878   0014C8  90D8               	bcf	status,0,c
  5879   0014CA  3057               	rrcf	___fldiv@bexp^0,w,c
  5880   0014CC  6E43               	movwf	(___fldiv@b+3)^0,c
  5881   0014CE  EF1D  F009         	goto	l2280
  5882   0014D2                     l868:
  5883   0014D2  0012               	return		;funcret
  5884   0014D4                     __end_of___fldiv:
  5885                           	callstack 0
  5886                           
  5887 ;; *************** function _SPI_Tx *****************
  5888 ;; Defined at:
  5889 ;;		line 93 in file "SPI.c"
  5890 ;; Parameters:    Size  Location     Type
  5891 ;;  dato            1    wreg     unsigned char 
  5892 ;; Auto vars:     Size  Location     Type
  5893 ;;  dato            1    0[COMRAM] unsigned char 
  5894 ;; Return value:  Size  Location     Type
  5895 ;;                  1    wreg      void 
  5896 ;; Registers used:
  5897 ;;		wreg
  5898 ;; Tracked objects:
  5899 ;;		On entry : 0/0
  5900 ;;		On exit  : 0/0
  5901 ;;		Unchanged: 0/0
  5902 ;; Data sizes:     COMRAM   BANK0   BANK1   BANK2   BANK3   BANK4   BANK5   BANK6   BANK7
  5903 ;;      Params:         0       0       0       0       0       0       0       0       0
  5904 ;;      Locals:         1       0       0       0       0       0       0       0       0
  5905 ;;      Temps:          0       0       0       0       0       0       0       0       0
  5906 ;;      Totals:         1       0       0       0       0       0       0       0       0
  5907 ;;Total ram usage:        1 bytes
  5908 ;; Hardware stack levels used: 1
  5909 ;; Hardware stack levels required when called: 1
  5910 ;; This function calls:
  5911 ;;		Nothing
  5912 ;; This function is called by:
  5913 ;;		_freeMov
  5914 ;; This function uses a non-reentrant model
  5915 ;;
  5916                           
  5917                           	psect	text21
  5918   002376                     __ptext21:
  5919                           	callstack 0
  5920   002376                     _SPI_Tx:
  5921                           	callstack 28
  5922                           
  5923                           ;incstack = 0
  5924                           ;SPI_Tx@dato stored from wreg
  5925   002376  6E01               	movwf	SPI_Tx@dato^0,c
  5926   002378                     
  5927                           ;SPI.c: 94:     SSPBUF = dato;
  5928   002378  C001  FFC9         	movff	SPI_Tx@dato,4041	;volatile
  5929   00237C  0012               	return		;funcret
  5930   00237E                     __end_of_SPI_Tx:
  5931                           	callstack 0
  5932                           
  5933 ;; *************** function _SPI_Init_Master *****************
  5934 ;; Defined at:
  5935 ;;		line 4 in file "SPI.c"
  5936 ;; Parameters:    Size  Location     Type
  5937 ;;  reloj           1    wreg     unsigned char 
  5938 ;;  modo            1    0[COMRAM] unsigned char 
  5939 ;;  smp             1    1[COMRAM] unsigned char 
  5940 ;; Auto vars:     Size  Location     Type
  5941 ;;  reloj           1    2[COMRAM] unsigned char 
  5942 ;; Return value:  Size  Location     Type
  5943 ;;                  1    wreg      void 
  5944 ;; Registers used:
  5945 ;;		wreg, status,2, status,0
  5946 ;; Tracked objects:
  5947 ;;		On entry : 0/0
  5948 ;;		On exit  : 0/0
  5949 ;;		Unchanged: 0/0
  5950 ;; Data sizes:     COMRAM   BANK0   BANK1   BANK2   BANK3   BANK4   BANK5   BANK6   BANK7
  5951 ;;      Params:         2       0       0       0       0       0       0       0       0
  5952 ;;      Locals:         1       0       0       0       0       0       0       0       0
  5953 ;;      Temps:          0       0       0       0       0       0       0       0       0
  5954 ;;      Totals:         3       0       0       0       0       0       0       0       0
  5955 ;;Total ram usage:        3 bytes
  5956 ;; Hardware stack levels used: 1
  5957 ;; Hardware stack levels required when called: 1
  5958 ;; This function calls:
  5959 ;;		Nothing
  5960 ;; This function is called by:
  5961 ;;		_main
  5962 ;; This function uses a non-reentrant model
  5963 ;;
  5964                           
  5965                           	psect	text22
  5966   001FAE                     __ptext22:
  5967                           	callstack 0
  5968   001FAE                     _SPI_Init_Master:
  5969                           	callstack 29
  5970                           
  5971                           ;incstack = 0
  5972                           ;SPI_Init_Master@reloj stored from wreg
  5973   001FAE  6E03               	movwf	SPI_Init_Master@reloj^0,c
  5974   001FB0                     
  5975                           ;SPI.c: 7:     ADCON1 = 0x0F;
  5976   001FB0  0E0F               	movlw	15
  5977   001FB2  6EC1               	movwf	193,c	;volatile
  5978   001FB4                     
  5979                           ;SPI.c: 10:     TRISBbits.RB0 = 1;
  5980   001FB4  8093               	bsf	147,0,c	;volatile
  5981   001FB6                     
  5982                           ;SPI.c: 11:     TRISBbits.RB1 = 0;
  5983   001FB6  9293               	bcf	147,1,c	;volatile
  5984   001FB8                     
  5985                           ;SPI.c: 12:     TRISAbits.RA5 = 0;
  5986   001FB8  9A92               	bcf	146,5,c	;volatile
  5987   001FBA                     
  5988                           ;SPI.c: 13:     TRISCbits.RC7 = 0;
  5989   001FBA  9E94               	bcf	148,7,c	;volatile
  5990   001FBC                     
  5991                           ;SPI.c: 16:     SSPCON1bits.SSPM = reloj;
  5992   001FBC  50C6               	movf	198,w,c	;volatile
  5993   001FBE  1803               	xorwf	SPI_Init_Master@reloj^0,w,c
  5994   001FC0  0BF0               	andlw	-16
  5995   001FC2  1803               	xorwf	SPI_Init_Master@reloj^0,w,c
  5996   001FC4  6EC6               	movwf	198,c	;volatile
  5997   001FC6                     
  5998                           ;SPI.c: 24:     if (modo == '1'){
  5999   001FC6  0E31               	movlw	49
  6000   001FC8  1801               	xorwf	SPI_Init_Master@modo^0,w,c
  6001   001FCA  A4D8               	btfss	status,2,c
  6002   001FCC  EFEA  F00F         	goto	u2481
  6003   001FD0  EFEC  F00F         	goto	u2480
  6004   001FD4                     u2481:
  6005   001FD4  EFF0  F00F         	goto	l2786
  6006   001FD8                     u2480:
  6007   001FD8                     
  6008                           ;SPI.c: 25:         SSPCON1bits.CKP = 1;
  6009   001FD8  88C6               	bsf	198,4,c	;volatile
  6010                           
  6011                           ;SPI.c: 26:         SSPSTATbits.CKE = 1;
  6012   001FDA  8CC7               	bsf	199,6,c	;volatile
  6013                           
  6014                           ;SPI.c: 27:     }
  6015   001FDC  EF15  F010         	goto	l192
  6016   001FE0                     l2786:
  6017   001FE0  0E32               	movlw	50
  6018   001FE2  1801               	xorwf	SPI_Init_Master@modo^0,w,c
  6019   001FE4  A4D8               	btfss	status,2,c
  6020   001FE6  EFF7  F00F         	goto	u2491
  6021   001FEA  EFF9  F00F         	goto	u2490
  6022   001FEE                     u2491:
  6023   001FEE  EFFD  F00F         	goto	l2790
  6024   001FF2                     u2490:
  6025   001FF2                     
  6026                           ;SPI.c: 29:         SSPCON1bits.CKP = 0;
  6027   001FF2  98C6               	bcf	198,4,c	;volatile
  6028                           
  6029                           ;SPI.c: 30:         SSPSTATbits.CKE = 1;
  6030   001FF4  8CC7               	bsf	199,6,c	;volatile
  6031                           
  6032                           ;SPI.c: 31:     }
  6033   001FF6  EF15  F010         	goto	l192
  6034   001FFA                     l2790:
  6035   001FFA  0E33               	movlw	51
  6036   001FFC  1801               	xorwf	SPI_Init_Master@modo^0,w,c
  6037   001FFE  A4D8               	btfss	status,2,c
  6038   002000  EF04  F010         	goto	u2501
  6039   002004  EF06  F010         	goto	u2500
  6040   002008                     u2501:
  6041   002008  EF0A  F010         	goto	l2794
  6042   00200C                     u2500:
  6043   00200C                     
  6044                           ;SPI.c: 33:         SSPCON1bits.CKP = 1;
  6045   00200C  88C6               	bsf	198,4,c	;volatile
  6046                           
  6047                           ;SPI.c: 34:         SSPSTATbits.CKE = 0;
  6048   00200E  9CC7               	bcf	199,6,c	;volatile
  6049                           
  6050                           ;SPI.c: 35:     }
  6051   002010  EF15  F010         	goto	l192
  6052   002014                     l2794:
  6053   002014  0E34               	movlw	52
  6054   002016  1801               	xorwf	SPI_Init_Master@modo^0,w,c
  6055   002018  A4D8               	btfss	status,2,c
  6056   00201A  EF11  F010         	goto	u2511
  6057   00201E  EF13  F010         	goto	u2510
  6058   002022                     u2511:
  6059   002022  EF15  F010         	goto	l192
  6060   002026                     u2510:
  6061   002026                     
  6062                           ;SPI.c: 37:         SSPCON1bits.CKP = 0;
  6063   002026  98C6               	bcf	198,4,c	;volatile
  6064                           
  6065                           ;SPI.c: 38:         SSPSTATbits.CKE = 0;
  6066   002028  9CC7               	bcf	199,6,c	;volatile
  6067   00202A                     l192:
  6068                           
  6069                           ;SPI.c: 42:     SSPSTATbits.SMP = smp;
  6070   00202A  B002               	btfsc	SPI_Init_Master@smp^0,0,c
  6071   00202C  D002               	bra	u2525
  6072   00202E  9EC7               	bcf	199,7,c	;volatile
  6073   002030  D001               	bra	u2526
  6074   002032                     u2525:
  6075   002032  8EC7               	bsf	199,7,c	;volatile
  6076   002034                     u2526:
  6077                           
  6078                           ;SPI.c: 46:     SSPCON1bits.SSPEN = 1;
  6079   002034  8AC6               	bsf	198,5,c	;volatile
  6080   002036  0012               	return		;funcret
  6081   002038                     __end_of_SPI_Init_Master:
  6082                           	callstack 0
  6083                           
  6084 ;; *************** function _PWM_Init_Ports *****************
  6085 ;; Defined at:
  6086 ;;		line 85 in file "pwm_soft.c"
  6087 ;; Parameters:    Size  Location     Type
  6088 ;;		None
  6089 ;; Auto vars:     Size  Location     Type
  6090 ;;		None
  6091 ;; Return value:  Size  Location     Type
  6092 ;;                  1    wreg      void 
  6093 ;; Registers used:
  6094 ;;		None
  6095 ;; Tracked objects:
  6096 ;;		On entry : 0/0
  6097 ;;		On exit  : 0/0
  6098 ;;		Unchanged: 0/0
  6099 ;; Data sizes:     COMRAM   BANK0   BANK1   BANK2   BANK3   BANK4   BANK5   BANK6   BANK7
  6100 ;;      Params:         0       0       0       0       0       0       0       0       0
  6101 ;;      Locals:         0       0       0       0       0       0       0       0       0
  6102 ;;      Temps:          0       0       0       0       0       0       0       0       0
  6103 ;;      Totals:         0       0       0       0       0       0       0       0       0
  6104 ;;Total ram usage:        0 bytes
  6105 ;; Hardware stack levels used: 1
  6106 ;; Hardware stack levels required when called: 1
  6107 ;; This function calls:
  6108 ;;		Nothing
  6109 ;; This function is called by:
  6110 ;;		_main
  6111 ;; This function uses a non-reentrant model
  6112 ;;
  6113                           
  6114                           	psect	text23
  6115   002368                     __ptext23:
  6116                           	callstack 0
  6117   002368                     _PWM_Init_Ports:
  6118                           	callstack 29
  6119   002368                     
  6120                           ;pwm_soft.c: 104:     TRISDbits.RD0 = 0;
  6121   002368  9095               	bcf	149,0,c	;volatile
  6122                           
  6123                           ;pwm_soft.c: 105:     LATDbits.LD0 = 0;
  6124   00236A  908C               	bcf	140,0,c	;volatile
  6125                           
  6126                           ;pwm_soft.c: 108:     TRISDbits.RD1 = 0;
  6127   00236C  9295               	bcf	149,1,c	;volatile
  6128                           
  6129                           ;pwm_soft.c: 109:     LATDbits.LD1 = 0;
  6130   00236E  928C               	bcf	140,1,c	;volatile
  6131                           
  6132                           ;pwm_soft.c: 112:     TRISDbits.RD2 = 0;
  6133   002370  9495               	bcf	149,2,c	;volatile
  6134                           
  6135                           ;pwm_soft.c: 113:     LATDbits.LD2 = 0;
  6136   002372  948C               	bcf	140,2,c	;volatile
  6137   002374  0012               	return		;funcret
  6138   002376                     __end_of_PWM_Init_Ports:
  6139                           	callstack 0
  6140                           
  6141 ;; *************** function _PWM_Init *****************
  6142 ;; Defined at:
  6143 ;;		line 69 in file "pwm_soft.c"
  6144 ;; Parameters:    Size  Location     Type
  6145 ;;		None
  6146 ;; Auto vars:     Size  Location     Type
  6147 ;;		None
  6148 ;; Return value:  Size  Location     Type
  6149 ;;                  1    wreg      void 
  6150 ;; Registers used:
  6151 ;;		wreg, status,2
  6152 ;; Tracked objects:
  6153 ;;		On entry : 0/0
  6154 ;;		On exit  : 0/0
  6155 ;;		Unchanged: 0/0
  6156 ;; Data sizes:     COMRAM   BANK0   BANK1   BANK2   BANK3   BANK4   BANK5   BANK6   BANK7
  6157 ;;      Params:         0       0       0       0       0       0       0       0       0
  6158 ;;      Locals:         0       0       0       0       0       0       0       0       0
  6159 ;;      Temps:          0       0       0       0       0       0       0       0       0
  6160 ;;      Totals:         0       0       0       0       0       0       0       0       0
  6161 ;;Total ram usage:        0 bytes
  6162 ;; Hardware stack levels used: 1
  6163 ;; Hardware stack levels required when called: 1
  6164 ;; This function calls:
  6165 ;;		Nothing
  6166 ;; This function is called by:
  6167 ;;		_main
  6168 ;; This function uses a non-reentrant model
  6169 ;;
  6170                           
  6171                           	psect	text24
  6172   002308                     __ptext24:
  6173                           	callstack 0
  6174   002308                     _PWM_Init:
  6175                           	callstack 29
  6176   002308                     
  6177                           ;pwm_soft.c: 71:     INTCONbits.GIE = 0;
  6178   002308  9EF2               	bcf	242,7,c	;volatile
  6179                           
  6180                           ;pwm_soft.c: 72:     INTCONbits.PEIE = 0;
  6181   00230A  9CF2               	bcf	242,6,c	;volatile
  6182                           
  6183                           ;pwm_soft.c: 73:     RCONbits.IPEN = 1;
  6184   00230C  8ED0               	bsf	208,7,c	;volatile
  6185                           
  6186                           ;pwm_soft.c: 74:     INTCON2bits.TMR0IP = 1;
  6187   00230E  84F1               	bsf	241,2,c	;volatile
  6188                           
  6189                           ;pwm_soft.c: 75:     INTCONbits.TMR0IF = 0;
  6190   002310  94F2               	bcf	242,2,c	;volatile
  6191                           
  6192                           ;pwm_soft.c: 76:     INTCONbits.TMR0IE = 1;
  6193   002312  8AF2               	bsf	242,5,c	;volatile
  6194   002314                     
  6195                           ;pwm_soft.c: 77:     T0CON = 0x48;
  6196   002314  0E48               	movlw	72
  6197   002316  6ED5               	movwf	213,c	;volatile
  6198   002318                     
  6199                           ;pwm_soft.c: 78:     INTCONbits.TMR0IF = 1;
  6200   002318  84F2               	bsf	242,2,c	;volatile
  6201   00231A                     
  6202                           ;pwm_soft.c: 79:     INTCONbits.GIE = 1;
  6203   00231A  8EF2               	bsf	242,7,c	;volatile
  6204   00231C                     
  6205                           ;pwm_soft.c: 80:     INTCONbits.PEIE = 1;
  6206   00231C  8CF2               	bsf	242,6,c	;volatile
  6207   00231E                     
  6208                           ;pwm_soft.c: 81:     T0CONbits.TMR0ON = 1;
  6209   00231E  8ED5               	bsf	213,7,c	;volatile
  6210                           
  6211                           ;pwm_soft.c: 82:     TMR0 = 0;
  6212   002320  0E00               	movlw	0
  6213   002322  6ED7               	movwf	215,c	;volatile
  6214   002324  0E00               	movlw	0
  6215   002326  6ED6               	movwf	214,c	;volatile
  6216   002328  0012               	return		;funcret
  6217   00232A                     __end_of_PWM_Init:
  6218                           	callstack 0
  6219                           
  6220 ;; *************** function _INT_TMR0 *****************
  6221 ;; Defined at:
  6222 ;;		line 15 in file "pwm_soft.c"
  6223 ;; Parameters:    Size  Location     Type
  6224 ;;		None
  6225 ;; Auto vars:     Size  Location     Type
  6226 ;;		None
  6227 ;; Return value:  Size  Location     Type
  6228 ;;                  1    wreg      void 
  6229 ;; Registers used:
  6230 ;;		wreg, status,2, status,0
  6231 ;; Tracked objects:
  6232 ;;		On entry : 0/0
  6233 ;;		On exit  : 0/0
  6234 ;;		Unchanged: 0/0
  6235 ;; Data sizes:     COMRAM   BANK0   BANK1   BANK2   BANK3   BANK4   BANK5   BANK6   BANK7
  6236 ;;      Params:         0       0       0       0       0       0       0       0       0
  6237 ;;      Locals:         0       0       0       0       0       0       0       0       0
  6238 ;;      Temps:          0       0       0       0       0       0       0       0       0
  6239 ;;      Totals:         0       0       0       0       0       0       0       0       0
  6240 ;;Total ram usage:        0 bytes
  6241 ;; Hardware stack levels used: 1
  6242 ;; This function calls:
  6243 ;;		Nothing
  6244 ;; This function is called by:
  6245 ;;		Interrupt level 2
  6246 ;; This function uses a non-reentrant model
  6247 ;;
  6248                           
  6249                           	psect	intcode
  6250   000008                     __pintcode:
  6251                           	callstack 0
  6252   000008                     _INT_TMR0:
  6253                           	callstack 25
  6254                           
  6255                           ;incstack = 0
  6256   000008  825F               	bsf	int$flags,1,c	;set compiler interrupt flag (level 2)
  6257   00000A  ED86  F00F         	call	int_func,f	;refresh shadow registers
  6258                           
  6259                           	psect	intcode_body
  6260   001F0C                     __pintcode_body:
  6261                           	callstack 25
  6262   001F0C                     int_func:
  6263                           	callstack 25
  6264   001F0C  0006               	pop		; remove dummy address from shadow register refresh
  6265   001F0E                     
  6266                           ;pwm_soft.c: 17:     if(INTCONbits.TMR0IF)
  6267   001F0E  A4F2               	btfss	242,2,c	;volatile
  6268   001F10  EF8C  F00F         	goto	i2u266_41
  6269   001F14  EF8E  F00F         	goto	i2u266_40
  6270   001F18                     i2u266_41:
  6271   001F18  EFD5  F00F         	goto	i2l268
  6272   001F1C                     i2u266_40:
  6273   001F1C                     
  6274                           ;pwm_soft.c: 18:     {;pwm_soft.c: 19:         contador = contador + 7;
  6275   001F1C  0E07               	movlw	7
  6276   001F1E  0100               	movlb	0	; () banked
  6277   001F20  25A6               	addwf	_contador& (0+255),w,b
  6278   001F22  6FA6               	movwf	_contador& (0+255),b
  6279   001F24  0E00               	movlw	0
  6280   001F26  21A7               	addwfc	(_contador+1)& (0+255),w,b
  6281   001F28  6FA7               	movwf	(_contador+1)& (0+255),b
  6282                           
  6283                           ;pwm_soft.c: 20:         if(contador > 256){
  6284   001F2A  05A6               	decf	_contador& (0+255),w,b
  6285   001F2C  0E01               	movlw	1
  6286   001F2E  59A7               	subwfb	(_contador+1)& (0+255),w,b
  6287   001F30  A0D8               	btfss	status,0,c
  6288   001F32  EF9D  F00F         	goto	i2u267_41
  6289   001F36  EF9F  F00F         	goto	i2u267_40
  6290   001F3A                     i2u267_41:
  6291   001F3A  EFA3  F00F         	goto	i2l2964
  6292   001F3E                     i2u267_40:
  6293   001F3E                     
  6294                           ; BSR set to: 0
  6295                           ;pwm_soft.c: 21:             contador = 0;
  6296   001F3E  0E00               	movlw	0
  6297   001F40  6FA7               	movwf	(_contador+1)& (0+255),b
  6298   001F42  0E00               	movlw	0
  6299   001F44  6FA6               	movwf	_contador& (0+255),b
  6300   001F46                     i2l2964:
  6301                           
  6302                           ; BSR set to: 0
  6303                           ;pwm_soft.c: 40:         if(contador < pwm_value[4]){LATDbits.LD0 = 1;} else{LATDbits.LD
      +                          0 = 0;}
  6304   001F46  5188               	movf	(_pwm_value+8)& (0+255),w,b
  6305   001F48  5DA6               	subwf	_contador& (0+255),w,b
  6306   001F4A  5189               	movf	(_pwm_value+9)& (0+255),w,b
  6307   001F4C  59A7               	subwfb	(_contador+1)& (0+255),w,b
  6308   001F4E  B0D8               	btfsc	status,0,c
  6309   001F50  EFAC  F00F         	goto	i2u268_41
  6310   001F54  EFAE  F00F         	goto	i2u268_40
  6311   001F58                     i2u268_41:
  6312   001F58  EFB1  F00F         	goto	i2l262
  6313   001F5C                     i2u268_40:
  6314   001F5C                     
  6315                           ; BSR set to: 0
  6316   001F5C  808C               	bsf	140,0,c	;volatile
  6317   001F5E  EFB2  F00F         	goto	i2l2968
  6318   001F62                     i2l262:
  6319                           
  6320                           ; BSR set to: 0
  6321   001F62  908C               	bcf	140,0,c	;volatile
  6322   001F64                     i2l2968:
  6323                           
  6324                           ; BSR set to: 0
  6325                           ;pwm_soft.c: 44:         if(contador < pwm_value[5]){LATDbits.LD1 = 1;} else{LATDbits.LD
      +                          1 = 0;}
  6326   001F64  518A               	movf	(_pwm_value+10)& (0+255),w,b
  6327   001F66  5DA6               	subwf	_contador& (0+255),w,b
  6328   001F68  518B               	movf	(_pwm_value+11)& (0+255),w,b
  6329   001F6A  59A7               	subwfb	(_contador+1)& (0+255),w,b
  6330   001F6C  B0D8               	btfsc	status,0,c
  6331   001F6E  EFBB  F00F         	goto	i2u269_41
  6332   001F72  EFBD  F00F         	goto	i2u269_40
  6333   001F76                     i2u269_41:
  6334   001F76  EFC0  F00F         	goto	i2l264
  6335   001F7A                     i2u269_40:
  6336   001F7A                     
  6337                           ; BSR set to: 0
  6338   001F7A  828C               	bsf	140,1,c	;volatile
  6339   001F7C  EFC1  F00F         	goto	i2l2972
  6340   001F80                     i2l264:
  6341                           
  6342                           ; BSR set to: 0
  6343   001F80  928C               	bcf	140,1,c	;volatile
  6344   001F82                     i2l2972:
  6345                           
  6346                           ; BSR set to: 0
  6347                           ;pwm_soft.c: 48:         if(contador < pwm_value[6]){LATDbits.LD2 = 1;} else{LATDbits.LD
      +                          2 = 0;}
  6348   001F82  518C               	movf	(_pwm_value+12)& (0+255),w,b
  6349   001F84  5DA6               	subwf	_contador& (0+255),w,b
  6350   001F86  518D               	movf	(_pwm_value+13)& (0+255),w,b
  6351   001F88  59A7               	subwfb	(_contador+1)& (0+255),w,b
  6352   001F8A  B0D8               	btfsc	status,0,c
  6353   001F8C  EFCA  F00F         	goto	i2u270_41
  6354   001F90  EFCC  F00F         	goto	i2u270_40
  6355   001F94                     i2u270_41:
  6356   001F94  EFCF  F00F         	goto	i2l266
  6357   001F98                     i2u270_40:
  6358   001F98                     
  6359                           ; BSR set to: 0
  6360   001F98  848C               	bsf	140,2,c	;volatile
  6361   001F9A  EFD0  F00F         	goto	i2l2976
  6362   001F9E                     i2l266:
  6363                           
  6364                           ; BSR set to: 0
  6365   001F9E  948C               	bcf	140,2,c	;volatile
  6366   001FA0                     i2l2976:
  6367                           
  6368                           ; BSR set to: 0
  6369                           ;pwm_soft.c: 63:         TMR0 = 0;
  6370   001FA0  0E00               	movlw	0
  6371   001FA2  6ED7               	movwf	215,c	;volatile
  6372   001FA4  0E00               	movlw	0
  6373   001FA6  6ED6               	movwf	214,c	;volatile
  6374   001FA8                     
  6375                           ; BSR set to: 0
  6376                           ;pwm_soft.c: 64:         INTCONbits.TMR0IF = 0;
  6377   001FA8  94F2               	bcf	242,2,c	;volatile
  6378   001FAA                     i2l268:
  6379   001FAA  925F               	bcf	int$flags,1,c	;clear compiler interrupt flag (level 2)
  6380   001FAC  0011               	retfie		f
  6381   001FAE                     __end_of_INT_TMR0:
  6382                           	callstack 0
  6383                           
  6384                           	psect	rparam
  6385   000001                     ___rparam_used  equ	1
  6386   000000                     ___param_bank   equ	0
  6387   000000                     __Lparam        equ	__Lrparam
  6388   000000                     __Hparam        equ	__Hrparam
  6389                           
  6390                           	psect	temp
  6391   00005F                     btemp:
  6392                           	callstack 0
  6393   00005F                     	ds	1
  6394   00005F                     int$flags       set	btemp
  6395   000060                     wtemp8          set	btemp+1
  6396   000060                     ttemp5          set	btemp+1
  6397   000063                     ttemp6          set	btemp+4
  6398   000067                     ttemp7          set	btemp+8
  6399                           
  6400                           	psect	config
  6401                           
  6402                           ;Config register CONFIG1L @ 0x300000
  6403                           ;	PLL Prescaler Selection bits
  6404                           ;	PLLDIV = 5, Divide by 5 (20 MHz oscillator input)
  6405                           ;	System Clock Postscaler Selection bits
  6406                           ;	CPUDIV = OSC1_PLL2, [Primary Oscillator Src: /1][96 MHz PLL Src: /2]
  6407                           ;	USB Clock Selection bit (used in Full-Speed USB mode only; UCFG:FSEN = 1)
  6408                           ;	USBDIV = 1, USB clock source comes directly from the primary oscillator block with no 
      +                          postscale
  6409   300000                     	org	3145728
  6410   300000  04                 	db	4
  6411                           
  6412                           ;Config register CONFIG1H @ 0x300001
  6413                           ;	Oscillator Selection bits
  6414                           ;	FOSC = HSPLL_HS, HS oscillator, PLL enabled (HSPLL)
  6415                           ;	Fail-Safe Clock Monitor Enable bit
  6416                           ;	FCMEN = OFF, Fail-Safe Clock Monitor disabled
  6417                           ;	Internal/External Oscillator Switchover bit
  6418                           ;	IESO = OFF, Oscillator Switchover mode disabled
  6419   300001                     	org	3145729
  6420   300001  0E                 	db	14
  6421                           
  6422                           ;Config register CONFIG2L @ 0x300002
  6423                           ;	Power-up Timer Enable bit
  6424                           ;	PWRT = OFF, PWRT disabled
  6425                           ;	Brown-out Reset Enable bits
  6426                           ;	BOR = OFF, Brown-out Reset disabled in hardware and software
  6427                           ;	Brown-out Reset Voltage bits
  6428                           ;	BORV = 3, Minimum setting 2.05V
  6429                           ;	USB Voltage Regulator Enable bit
  6430                           ;	VREGEN = OFF, USB voltage regulator disabled
  6431   300002                     	org	3145730
  6432   300002  19                 	db	25
  6433                           
  6434                           ;Config register CONFIG2H @ 0x300003
  6435                           ;	Watchdog Timer Enable bit
  6436                           ;	WDT = OFF, WDT disabled (control is placed on the SWDTEN bit)
  6437                           ;	Watchdog Timer Postscale Select bits
  6438                           ;	WDTPS = 32768, 1:32768
  6439   300003                     	org	3145731
  6440   300003  1E                 	db	30
  6441                           
  6442                           ; Padding undefined space
  6443   300004                     	org	3145732
  6444   300004  FF                 	db	255
  6445                           
  6446                           ;Config register CONFIG3H @ 0x300005
  6447                           ;	CCP2 MUX bit
  6448                           ;	CCP2MX = ON, CCP2 input/output is multiplexed with RC1
  6449                           ;	PORTB A/D Enable bit
  6450                           ;	PBADEN = ON, PORTB<4:0> pins are configured as analog input channels on Reset
  6451                           ;	Low-Power Timer 1 Oscillator Enable bit
  6452                           ;	LPT1OSC = OFF, Timer1 configured for higher power operation
  6453                           ;	MCLR Pin Enable bit
  6454                           ;	MCLRE = ON, MCLR pin enabled; RE3 input pin disabled
  6455   300005                     	org	3145733
  6456   300005  83                 	db	131
  6457                           
  6458                           ;Config register CONFIG4L @ 0x300006
  6459                           ;	Stack Full/Underflow Reset Enable bit
  6460                           ;	STVREN = ON, Stack full/underflow will cause Reset
  6461                           ;	Single-Supply ICSP Enable bit
  6462                           ;	LVP = ON, Single-Supply ICSP enabled
  6463                           ;	Dedicated In-Circuit Debug/Programming Port (ICPORT) Enable bit
  6464                           ;	ICPRT = OFF, ICPORT disabled
  6465                           ;	Extended Instruction Set Enable bit
  6466                           ;	XINST = OFF, Instruction set extension and Indexed Addressing mode disabled (Legacy mo
      +                          de)
  6467                           ;	Background Debugger Enable bit
  6468                           ;	DEBUG = 0x1, unprogrammed default
  6469   300006                     	org	3145734
  6470   300006  85                 	db	133
  6471                           
  6472                           ; Padding undefined space
  6473   300007                     	org	3145735
  6474   300007  FF                 	db	255
  6475                           
  6476                           ;Config register CONFIG5L @ 0x300008
  6477                           ;	Code Protection bit
  6478                           ;	CP0 = OFF, Block 0 (000800-001FFFh) is not code-protected
  6479                           ;	Code Protection bit
  6480                           ;	CP1 = OFF, Block 1 (002000-003FFFh) is not code-protected
  6481                           ;	Code Protection bit
  6482                           ;	CP2 = OFF, Block 2 (004000-005FFFh) is not code-protected
  6483                           ;	Code Protection bit
  6484                           ;	CP3 = OFF, Block 3 (006000-007FFFh) is not code-protected
  6485   300008                     	org	3145736
  6486   300008  0F                 	db	15
  6487                           
  6488                           ;Config register CONFIG5H @ 0x300009
  6489                           ;	Boot Block Code Protection bit
  6490                           ;	CPB = OFF, Boot block (000000-0007FFh) is not code-protected
  6491                           ;	Data EEPROM Code Protection bit
  6492                           ;	CPD = OFF, Data EEPROM is not code-protected
  6493   300009                     	org	3145737
  6494   300009  C0                 	db	192
  6495                           
  6496                           ;Config register CONFIG6L @ 0x30000A
  6497                           ;	Write Protection bit
  6498                           ;	WRT0 = OFF, Block 0 (000800-001FFFh) is not write-protected
  6499                           ;	Write Protection bit
  6500                           ;	WRT1 = OFF, Block 1 (002000-003FFFh) is not write-protected
  6501                           ;	Write Protection bit
  6502                           ;	WRT2 = OFF, Block 2 (004000-005FFFh) is not write-protected
  6503                           ;	Write Protection bit
  6504                           ;	WRT3 = OFF, Block 3 (006000-007FFFh) is not write-protected
  6505   30000A                     	org	3145738
  6506   30000A  0F                 	db	15
  6507                           
  6508                           ;Config register CONFIG6H @ 0x30000B
  6509                           ;	Configuration Register Write Protection bit
  6510                           ;	WRTC = OFF, Configuration registers (300000-3000FFh) are not write-protected
  6511                           ;	Boot Block Write Protection bit
  6512                           ;	WRTB = OFF, Boot block (000000-0007FFh) is not write-protected
  6513                           ;	Data EEPROM Write Protection bit
  6514                           ;	WRTD = OFF, Data EEPROM is not write-protected
  6515   30000B                     	org	3145739
  6516   30000B  E0                 	db	224
  6517                           
  6518                           ;Config register CONFIG7L @ 0x30000C
  6519                           ;	Table Read Protection bit
  6520                           ;	EBTR0 = OFF, Block 0 (000800-001FFFh) is not protected from table reads executed in ot
      +                          her blocks
  6521                           ;	Table Read Protection bit
  6522                           ;	EBTR1 = OFF, Block 1 (002000-003FFFh) is not protected from table reads executed in ot
      +                          her blocks
  6523                           ;	Table Read Protection bit
  6524                           ;	EBTR2 = OFF, Block 2 (004000-005FFFh) is not protected from table reads executed in ot
      +                          her blocks
  6525                           ;	Table Read Protection bit
  6526                           ;	EBTR3 = OFF, Block 3 (006000-007FFFh) is not protected from table reads executed in ot
      +                          her blocks
  6527   30000C                     	org	3145740
  6528   30000C  0F                 	db	15
  6529                           
  6530                           ;Config register CONFIG7H @ 0x30000D
  6531                           ;	Boot Block Table Read Protection bit
  6532                           ;	EBTRB = OFF, Boot block (000000-0007FFh) is not protected from table reads executed in
      +                           other blocks
  6533   30000D                     	org	3145741
  6534   30000D  40                 	db	64
  6535                           tosu	equ	0xFFF
  6536                           tosh	equ	0xFFE
  6537                           tosl	equ	0xFFD
  6538                           stkptr	equ	0xFFC
  6539                           pclatu	equ	0xFFB
  6540                           pclath	equ	0xFFA
  6541                           pcl	equ	0xFF9
  6542                           tblptru	equ	0xFF8
  6543                           tblptrh	equ	0xFF7
  6544                           tblptrl	equ	0xFF6
  6545                           tablat	equ	0xFF5
  6546                           prodh	equ	0xFF4
  6547                           prodl	equ	0xFF3
  6548                           indf0	equ	0xFEF
  6549                           postinc0	equ	0xFEE
  6550                           postdec0	equ	0xFED
  6551                           preinc0	equ	0xFEC
  6552                           plusw0	equ	0xFEB
  6553                           fsr0h	equ	0xFEA
  6554                           fsr0l	equ	0xFE9
  6555                           wreg	equ	0xFE8
  6556                           indf1	equ	0xFE7
  6557                           postinc1	equ	0xFE6
  6558                           postdec1	equ	0xFE5
  6559                           preinc1	equ	0xFE4
  6560                           plusw1	equ	0xFE3
  6561                           fsr1h	equ	0xFE2
  6562                           fsr1l	equ	0xFE1
  6563                           bsr	equ	0xFE0
  6564                           indf2	equ	0xFDF
  6565                           postinc2	equ	0xFDE
  6566                           postdec2	equ	0xFDD
  6567                           preinc2	equ	0xFDC
  6568                           plusw2	equ	0xFDB
  6569                           fsr2h	equ	0xFDA
  6570                           fsr2l	equ	0xFD9
  6571                           status	equ	0xFD8

Data Sizes:
    Strings     102
    Constant    0
    Data        2
    BSS         109
    Persistent  0
    Stack       0

Auto Spaces:
    Space          Size  Autos    Used
    COMRAM           94     93      94
    BANK0           160     28     138
    BANK1           256      0       0
    BANK2           256      0       0
    BANK3           256      0       0
    BANK4           256      0       0
    BANK5           256      0       0
    BANK6           256      0       0
    BANK7           256      0       0

Pointer List with Targets:

    f$.$buffer	PTR unsigned char  size(1) Largest target is 16
		 -> DATA_LCD(BANK0[16]), 

    f$.$source	PTR const unsigned char  size(2) Largest target is 0

    fputc@fp	PTR struct _IO_FILE size(1) Largest target is 11
		 -> sprintf@f(COMRAM[11]), 

    fputc@fp$.$buffer	PTR unsigned char  size(1) Largest target is 16
		 -> DATA_LCD(BANK0[16]), 

    fputc@fp$.$source	PTR const unsigned char  size(2) Largest target is 0

    S1596$buffer	PTR unsigned char  size(1) Largest target is 16
		 -> DATA_LCD(BANK0[16]), 

    S1596$source	PTR const unsigned char  size(2) Largest target is 0

    sprintf@ap	PTR void [1] size(1) Largest target is 2
		 -> ?_sprintf(COMRAM[2]), 

    sprintf@fmt	PTR const unsigned char  size(1) Largest target is 17
		 -> STR_1(CODE[13]), STR_10(CODE[5]), STR_2(CODE[14]), STR_3(CODE[17]), 
		 -> STR_4(CODE[9]), STR_5(CODE[11]), STR_6(CODE[7]), STR_7(CODE[11]), 
		 -> STR_8(CODE[9]), STR_9(CODE[6]), 

    sprintf@s	PTR unsigned char  size(1) Largest target is 16
		 -> DATA_LCD(BANK0[16]), 

    vfpfcnvrt@ap	PTR PTR void  size(1) Largest target is 1
		 -> sprintf@ap(COMRAM[1]), 

    vfpfcnvrt@fmt	PTR PTR unsigned char  size(1) Largest target is 1
		 -> vfprintf@cfmt(COMRAM[1]), 

    vfpfcnvrt@fp	PTR struct _IO_FILE size(1) Largest target is 11
		 -> sprintf@f(COMRAM[11]), 

    vfprintf@ap	PTR PTR void  size(1) Largest target is 1
		 -> sprintf@ap(COMRAM[1]), 

    vfprintf@cfmt	PTR unsigned char  size(1) Largest target is 17
		 -> STR_1(CODE[13]), STR_10(CODE[5]), STR_2(CODE[14]), STR_3(CODE[17]), 
		 -> STR_4(CODE[9]), STR_5(CODE[11]), STR_6(CODE[7]), STR_7(CODE[11]), 
		 -> STR_8(CODE[9]), STR_9(CODE[6]), 

    vfprintf@fmt	PTR const unsigned char  size(1) Largest target is 17
		 -> STR_1(CODE[13]), STR_10(CODE[5]), STR_2(CODE[14]), STR_3(CODE[17]), 
		 -> STR_4(CODE[9]), STR_5(CODE[11]), STR_6(CODE[7]), STR_7(CODE[11]), 
		 -> STR_8(CODE[9]), STR_9(CODE[6]), 

    vfprintf@fp	PTR struct _IO_FILE size(1) Largest target is 11
		 -> sprintf@f(COMRAM[11]), 

    writeString_LCD@dato_LCD	PTR const unsigned char  size(1) Largest target is 16
		 -> DATA_LCD(BANK0[16]), 


Critical Paths under _main in COMRAM

    _main->_freeMov
    _writeString_LCD->_writeChar_LCD
    _sprintf->_vfprintf
    _vfprintf->_vfpfcnvrt
    _vfpfcnvrt->_fputc
    _init_LCD->_set_Cursor_LCD
    _mapping->___fldiv
    ___fltol->___fladd
    ___flsub->___fladd
    ___fladd->___flmul
    ___flmul->___xxtofl
    ___fldiv->___flsub

Critical Paths under _INT_TMR0 in COMRAM

    None.

Critical Paths under _main in BANK0

    _freeMov->_mapping

Critical Paths under _INT_TMR0 in BANK0

    None.

Critical Paths under _main in BANK1

    None.

Critical Paths under _INT_TMR0 in BANK1

    None.

Critical Paths under _main in BANK2

    None.

Critical Paths under _INT_TMR0 in BANK2

    None.

Critical Paths under _main in BANK3

    None.

Critical Paths under _INT_TMR0 in BANK3

    None.

Critical Paths under _main in BANK4

    None.

Critical Paths under _INT_TMR0 in BANK4

    None.

Critical Paths under _main in BANK5

    None.

Critical Paths under _INT_TMR0 in BANK5

    None.

Critical Paths under _main in BANK6

    None.

Critical Paths under _INT_TMR0 in BANK6

    None.

Critical Paths under _main in BANK7

    None.

Critical Paths under _INT_TMR0 in BANK7

    None.

Call Graph Tables:

 ---------------------------------------------------------------------------------
 (Depth) Function   	        Calls       Base Space   Used Autos Params    Refs
 ---------------------------------------------------------------------------------
 (0) _main                                                 2     2      0    8733
                                             91 COMRAM     2     2      0
                           _PWM_Init
                     _PWM_Init_Ports
                    _SPI_Init_Master
                          _clear_LCD
                            _freeMov
                           _init_ADC
                           _init_LCD
                     _set_Cursor_LCD
                            _sprintf
                    _writeString_LCD
 ---------------------------------------------------------------------------------
 (1) _writeString_LCD                                      3     2      1     129
                                              1 COMRAM     3     2      1
                      _writeChar_LCD
 ---------------------------------------------------------------------------------
 (2) _writeChar_LCD                                        1     1      0      29
                                              0 COMRAM     1     1      0
 ---------------------------------------------------------------------------------
 (1) _sprintf                                             16    14      2     702
                                             15 COMRAM    14    12      2
                           _vfprintf
 ---------------------------------------------------------------------------------
 (2) _vfprintf                                             4     1      3     485
                                             11 COMRAM     4     1      3
                          _vfpfcnvrt
 ---------------------------------------------------------------------------------
 (3) _vfpfcnvrt                                            7     4      3     363
                                              8 COMRAM     3     0      3
                              _fputc
 ---------------------------------------------------------------------------------
 (4) _fputc                                                8     5      3     228
                                              0 COMRAM     8     5      3
                              _putch
 ---------------------------------------------------------------------------------
 (5) _putch                                                1     1      0       0
 ---------------------------------------------------------------------------------
 (1) _init_LCD                                             2     2      0      84
                                              3 COMRAM     2     2      0
                          _clear_LCD
                     _set_Cursor_LCD
 ---------------------------------------------------------------------------------
 (1) _set_Cursor_LCD                                       3     2      1      84
                                              0 COMRAM     3     2      1
 ---------------------------------------------------------------------------------
 (2) _clear_LCD                                            1     1      0       0
                                              0 COMRAM     1     1      0
 ---------------------------------------------------------------------------------
 (1) _init_ADC                                             1     1      0      29
                                              0 COMRAM     1     1      0
 ---------------------------------------------------------------------------------
 (1) _freeMov                                              3     3      0    7564
                                             88 COMRAM     3     3      0
                             _SPI_Tx
                            _mapping
                           _read_ADC
 ---------------------------------------------------------------------------------
 (2) _read_ADC                                             4     2      2      58
                                              0 COMRAM     4     2      2
 ---------------------------------------------------------------------------------
 (2) _mapping                                             28    10     18    7453
                                              0 BANK0     28    10     18
                            ___fladd
                            ___fldiv
                            ___flmul
                            ___flsub
                            ___fltol
                           ___xxtofl
 ---------------------------------------------------------------------------------
 (3) ___xxtofl                                            14    10      4     337
                                              0 COMRAM    14    10      4
 ---------------------------------------------------------------------------------
 (3) ___fltol                                             10     6      4     230
                                             55 COMRAM    10     6      4
                            ___fladd (ARG)
                            ___flmul (ARG)
                           ___xxtofl (ARG)
 ---------------------------------------------------------------------------------
 (3) ___flsub                                              8     0      8    2039
                                             55 COMRAM     8     0      8
                            ___fladd
                            ___flmul (ARG)
 ---------------------------------------------------------------------------------
 (4) ___fladd                                             16     8      8    1988
                                             39 COMRAM    16     8      8
                            ___flmul (ARG)
                           ___xxtofl (ARG)
 ---------------------------------------------------------------------------------
 (3) ___flmul                                             25    17      8    1470
                                             14 COMRAM    25    17      8
                           ___xxtofl (ARG)
 ---------------------------------------------------------------------------------
 (3) ___fldiv                                             25    17      8    1123
                                             63 COMRAM    25    17      8
                            ___flsub (ARG)
 ---------------------------------------------------------------------------------
 (2) _SPI_Tx                                               1     1      0      29
                                              0 COMRAM     1     1      0
 ---------------------------------------------------------------------------------
 (1) _SPI_Init_Master                                      3     1      2     141
                                              0 COMRAM     3     1      2
 ---------------------------------------------------------------------------------
 (1) _PWM_Init_Ports                                       0     0      0       0
 ---------------------------------------------------------------------------------
 (1) _PWM_Init                                             0     0      0       0
 ---------------------------------------------------------------------------------
 Estimated maximum stack depth 5
 ---------------------------------------------------------------------------------
 (Depth) Function   	        Calls       Base Space   Used Autos Params    Refs
 ---------------------------------------------------------------------------------
 (6) _INT_TMR0                                             0     0      0       0
 ---------------------------------------------------------------------------------
 Estimated maximum stack depth 6
 ---------------------------------------------------------------------------------

 Call Graph Graphs:

 _main (ROOT)
   _PWM_Init
   _PWM_Init_Ports
   _SPI_Init_Master
   _clear_LCD
   _freeMov
     _SPI_Tx
     _mapping
       ___fladd
         ___flmul (ARG)
           ___xxtofl (ARG)
         ___xxtofl (ARG)
       ___fldiv
         ___flsub (ARG)
           ___fladd
           ___flmul (ARG)
       ___flmul
       ___flsub
       ___fltol
         ___fladd (ARG)
         ___flmul (ARG)
         ___xxtofl (ARG)
       ___xxtofl
     _read_ADC
   _init_ADC
   _init_LCD
     _clear_LCD
     _set_Cursor_LCD
   _set_Cursor_LCD
   _sprintf
     _vfprintf
       _vfpfcnvrt
         _fputc
           _putch
   _writeString_LCD
     _writeChar_LCD

 _INT_TMR0 (ROOT)

Address spaces:
Name               Size   Autos  Total    Usage
BIGRAM            2047      0       0      0.0%
BITBANK7           256      0       0      0.0%
BANK7              256      0       0      0.0%
BITBANK6           256      0       0      0.0%
BANK6              256      0       0      0.0%
BITBANK5           256      0       0      0.0%
BANK5              256      0       0      0.0%
BITBANK4           256      0       0      0.0%
BANK4              256      0       0      0.0%
BITBANK3           256      0       0      0.0%
BANK3              256      0       0      0.0%
BITBANK2           256      0       0      0.0%
BANK2              256      0       0      0.0%
BITBANK1           256      0       0      0.0%
BANK1              256      0       0      0.0%
BITBANK0           160      0       0      0.0%
BANK0              160     28     138     86.2%
BITCOMRAM           94      0       0      0.0%
COMRAM              94     93      94    100.0%
BITBIGSFRh          61      0       0      0.0%
BITBIGSFRlh         56      0       0      0.0%
BITBIGSFRlll        34      0       0      0.0%
BITBIGSFRllh         6      0       0      0.0%
STACK                0      0       0      0.0%
DATA                 0      0     232      0.0%


Microchip Technology PIC18 Macro Assembler V2.50 build 20240725155939 
Symbol Table                                                                                   Mon Jan 13 18:27:29 2025

           ___fldiv@aexp 0058             ___fldiv@bexp 0057             ___fldiv@sign 0050  
            _SSPSTATbits 0FC7                       l20 2344                       l23 2358  
                     l17 20AE                       l37 2126                       l29 229E  
                     _d1 00B6                       _d2 00B2                       _d3 00AE  
                     _d4 00AA                      l120 1D5A                      l211 237C  
                    l124 14E0                      l108 1938                      l230 21B2  
                    l126 14EE                      l231 21E2                      l233 21CA  
                    l154 184A                      l235 21D8                      l227 2366  
                    l271 2328                      l192 202A                      l274 2374  
                    l198 2036                      l900 0DE2                      l910 103C  
                    l814 0A50                      l831 0B6A                      l823 0D1C  
                    l815 0A3E                      l583 1E60                      l904 1142  
                    l840 0C38                      l816 0A04                      l841 0C26  
                    l907 0FD8                      l908 0FF6                      l828 0BF8  
                    l917 1104                      l909 104E                      l941 1AA4  
                    l870 1336                      l847 0CE0                      l880 139A  
                    l856 2228                      l944 1C00                      l881 13F2  
                    l873 12FA                      l882 13E0                      l955 1B98  
                    l868 14D2                      l948 1B3C                      l964 2306  
                    l879 137C                      l993 2266                      l987 2192  
                    wreg 0FE8             ___flmul@aexp 0020             ___flmul@bexp 0021  
           ___flmul@sign 001B             ___flmul@temp 0026             ___flmul@prod 0022  
           ___fltol@exp1 0041                     l1005 1F0A                     l1016 2380  
                   l2100 0998                     l2110 09EC                     l2102 099C  
                   l2030 0874                     l2200 0C9E                     l2120 0A30  
                   l2112 09FC                     l2104 09A0                     l2040 08B4  
                   l2032 0882                     l2210 0CF4                     l2202 0CAE  
                   l2122 0A32                     l2114 0A12                     l2106 09A4  
                   l2050 08E4                     l2042 08B6                     l2034 0884  
                   l2300 12B0                     l2212 0CF6                     l2204 0CBE  
                   l2140 0ABA                     l2132 0A82                     l2124 0A3C  
                   l2116 0A1E                     l2108 09D0                     l2060 090C  
                   l2052 08E6                     l2036 0894                     l2044 08BC  
                   l2028 0868                     l2310 12F8                     l2302 12C0  
                   l2214 0CFC                     l2206 0CDE                     l2142 0ABE  
                   l2134 0A92                     l2126 0A5E                     l2150 0ADE  
                   l2118 0A22                     l2070 0944                     l2062 091C  
                   l2054 08EC                     l2046 08CC                     l2038 08A4  
                   l2230 1EA8                     l2222 1E62                     l3006 1A24  
                   l2320 1346                     l2312 1304                     l2304 12C6  
                   l2240 115E                     l2400 0DBC                     l2216 0D0A  
                   l2208 0CEE                     l2152 0B04                     l2160 0B5A  
                   l2144 0ACC                     l2136 0AA0                     l2128 0A6E  
                   l2080 0970                     l2072 0956                     l2064 092C  
                   l2056 08FA                     l2048 08D2                     l2232 1EDA  
                   l2224 1E72                     l2322 135C                     l2330 138C  
                   l2314 1322                     l2306 12D6                     l2250 1192  
                   l2242 1160                     l2402 0DCC                     l2218 0D0C  
                   l2170 0BAE                     l2162 0B80                     l2154 0B38  
                   l2146 0ACE                     l2138 0AAE                     l2090 0984  
                   l2082 0974                     l2074 0964                     l2066 092E  
                   l2058 08FC                     l2226 1E82                     l2340 140E  
                   l2332 13AA                     l2324 1362                     l2316 1324  
                   l2308 12EA                     l2260 11C2                     l2244 1170  
                   l2252 1198                     l2236 1144                     l2420 0E4E  
                   l2412 0E16                     l2404 0DD2                     l2180 0BD8  
                   l2172 0BBC                     l2164 0B90                     l2156 0B3A  
                   l2148 0AD8                     l2092 0988                     l2084 0978  
                   l2076 0968                     l2068 0934                     l2500 21E4  
                   l2228 1E8C                     l2350 147A                     l2342 141C  
                   l2334 13D8                     l2326 136C                     l2318 1334  
                   l2270 11F6                     l2262 11C4                     l2254 11A8  
                   l2246 1180                     l2238 1150                     l2430 0E98  
                   l2422 0E66                     l2414 0E22                     l2406 0DF2  
                   l2182 0BE8                     l2174 0BBE                     l2158 0B4A  
                   l2094 098C                     l2086 097C                     l2078 096C  
                   l2502 21F4                     l2360 14C0                     l2352 1494  
                   l2344 1446                     l2328 137A                     l2280 123A  
                   l2264 11D4                     l2272 11FC                     l2256 11AE  
                   l2248 1190                     l2440 0EEE                     l2432 0EA8  
                   l2424 0E72                     l2416 0E2C                     l2408 0E02  
                   l2192 0C48                     l2176 0BCC                     l2168 0BA4  
                   l2184 0BEA                     l2096 0990                     l2088 0980  
                   l2520 1DC6                     l2512 1D86                     l2600 2152  
                   l2362 14C6                     l2354 14AC                     l2338 1402  
                   l2346 144A                     l2290 1262                     l2282 123E  
                   l2274 120C                     l2266 11E4                     l2258 11B4  
                   l2450 0F92                     l2442 0F0A                     l2434 0EB4  
                   l2426 0E7E                     l2418 0E42                     l2194 0C54  
                   l2186 0C08                     l2178 0BD4                     l2098 0994  
                   l2530 1DF6                     l2522 1DD4                     l2514 1DB0  
                   l2506 1D5C                     l2602 2160                     l2364 14C8  
                   l2356 14AE                     l2348 1464                     l2276 1222  
                   l2268 11F4                     l2460 0FE8                     l2452 0FA0  
                   l2444 0F16                     l2436 0EC4                     l2428 0E8C  
                   l2380 0D4A                     l2372 0D1E                     l2196 0C62  
                   l2188 0C1E                     l2540 1E20                     l2532 1E00  
                   l2516 1DB2                     l2508 1D72                     l2620 2332  
                   l2604 2164                     l2358 14B2                     l2294 1276  
                   l2278 1232                     l2286 1252                     l2470 106A  
                   l2462 1006                     l2454 0FBE                     l2446 0F32  
                   l2438 0EDE                     l2390 0D86                     l2382 0D5A  
                   l2374 0D2A                     l2198 0C9C                     l2542 1E30  
                   l2518 1DC2                     l2550 1A50                     l2622 2342  
                   l2614 232A                     l2630 20C0                     l2710 2062  
                   l2702 2038                     l2296 1290                     l2288 1262  
                   l2480 10D4                     l2472 1078                     l2464 1034  
                   l2456 0FC8                     l2448 0F5C                     l2392 0D8C  
                   l2384 0D6A                     l2376 0D38                     l2544 1E40  
                   l2528 1DEC                     l2552 1A60                     l2616 232C  
                   l2640 20EE                     l2632 20D0                     l2624 20B2  
                   l2720 2086                     l2712 2064                     l2704 2046  
                   l2608 2170                     l2298 12A0                     l2490 1126  
                   l2482 10EE                     l2474 10A2                     l2458 0FD6  
                   l2394 0D9A                     l2386 0D70                     l2378 0D3A  
                   l2546 1E50                     l2538 1E14                     l2570 1B26  
                   l2562 1ADE                     l2554 1A6E                     l2810 152A  
                   l2802 14FC                     l2618 2330                     l2642 20F4  
                   l2634 20D6                     l2626 20B8                     l2722 208A  
                   l2714 2068                     l2706 204A                     l2730 2268  
                   l2492 1128                     l2484 10FE                     l2468 105E  
                   l2476 10A6                     l2396 0D9C                     l2388 0D80  
                   l2580 1BA6                     l2572 1B32                     l2564 1AE6  
                   l2556 1AB4                     l2820 1690                     l2812 1538  
                   l2804 1500                     l2740 2360                     l2644 20F8  
                   l2636 20DC                     l2628 20BE                     l2652 2110  
                   l2724 208C                     l2716 2080                     l2708 204C  
                   l2660 2350                     l2732 2274                     l2900 18D2  
                   l2750 231A                     l2486 1108                     l2494 112E  
                   l2478 10C0                     l2398 0DAC                     l2590 1BEE  
                   l2582 1BA8                     l2574 1B6E                     l2566 1AF2  
                   l2558 1ACA                     l2670 1CD6                     l2830 170A  
                   l2822 16AE                     l2814 158E                     l2806 150E  
                   l2742 2362                     l2646 20FA                     l2638 20DE  
                   l2726 20A2                     l2718 2082                     l2662 2356  
                   l2654 2348                     l2734 2282                     l2910 1918  
                   l2902 18EE                     l2752 231C                     l2744 2308  
                   l2496 1132                     l2488 1118                     l2592 1BF0  
                   l2584 1BAC                     l2576 1B7A                     l2568 1B24  
                   l2672 1D52                     l2664 1C02                     l2840 1782  
                   l2832 1726                     l2824 16CA                     l2816 15E4  
                   l2808 151C                     l2648 210A                     l2728 20A4  
                   l2760 22DC                     l2656 234A                     l2736 2286  
                   l2920 195A                     l2912 192A                     l2904 18FA  
                   l2754 231E                     l2746 2314                     l2770 1FB0  
                   l2690 2378                     l2586 1BD0                     l2578 1B88  
                   l2666 1C02                     l2850 17F2                     l2842 1796  
                   l2834 173A                     l2826 16DE                     l2818 163A  
                   l2738 235C                     l2762 22E4                     l2658 234E  
                   l2930 199A                     l2922 1964                     l2906 1904  
                   l2748 2318                     l2756 2368                     l2780 1FBC  
                   l2772 1FB4                     l2588 1BE0                     l2668 1C7E  
                   l2684 21B4                     l2676 2196                     l2860 1826  
                   l2852 1802                     l2844 17A6                     l2836 174A  
                   l2828 16EE                     l2596 2128                     l2692 222A  
                   l2764 22EC                     l2940 19DA                     l2932 19A4  
                   l2924 196C                     l2916 1946                     l2908 190C  
                   l2790 1FFA                     l2782 1FC6                     l2774 1FB6  
                   l2686 21C6                     l2678 21A6                     l2862 1828  
                   l2854 180E                     l2846 17C2                     l2838 1766  
                   l2598 214A                     l2694 2232                     l2766 22FC  
                   l2758 22D4                     l2942 19E4                     l2934 19AC  
                   l2926 1978                     l2918 194E                     l2950 1A0E  
                   l2870 1858                     l2792 200C                     l2784 1FD8  
                   l2776 1FB8                     l2688 21C8                     l2856 1810  
                   l2848 17DE                     l2864 1838                     l2696 2242  
                   l2944 19EC                     l2936 19B8                     l2928 198E  
                   l2952 1A42                     l2880 186C                     l2872 185E  
                   l2794 2014                     l2786 1FE0                     l2778 1FBA  
                   l2858 1816                     l2698 225E                     l2946 19F8  
                   l2938 19CE                     l2890 1898                     l2882 186E  
                   l2874 1862                     l2866 184C                     l2796 2026  
                   l2788 1FF2                     l2892 18A2                     l2884 187A  
                   l2876 1866                     l2868 1854                     l2798 14D4  
                   l2894 18AA                     l2886 1884                     l2878 186A  
                   l2896 18C0                     l2888 188C                     l2898 18C4  
                   STR_1 0820                     STR_2 0812                     STR_3 0801  
                   STR_4 084C                     STR_5 082D                     STR_6 0855  
                   STR_7 0838                     STR_8 0843                     STR_9 085C  
                   u2000 13D8                     u2001 13D4                     u2010 13EE  
                   u2011 13EA                     u2020 1402                     u2100 0D9A  
                   u2021 13FE                     u2101 0D96                     u2030 141C  
                   u2110 0DAC                     u2031 1418                     u2111 0DA8  
                   u2040 1464                     u2200 104A                     u2120 0DBC  
                   u2041 1460                     u2201 1046                     u2121 0DB8  
                   u2050 1494                     u2210 105E                     u2130 0DF2  
                   u1410 0882                     u2051 1490                     u2211 105A  
                   u2131 0DEE                     u1411 087E                     u2060 14C0  
                   u2220 1078                     u2140 0E02                     u1500 09D0  
                   u1420 0894                     u2300 1E10                     u2061 14BC  
                   u2221 1074                     u2141 0DFE                     u1501 09CC  
                   u1421 0890                     u2301 1E0C                     u2230 10C0  
                   u2150 0F7C                     u2070 0D38                     u1510 09E8  
                   u1430 08A4                     u2310 1E30                     u2231 10BC  
                   u2071 0D34                     u1511 09E2                     u1431 08A0  
                   u2311 1E2C                     u2240 10EE                     u2160 0FD6  
                   u2080 0D4A                     u1600 0ACC                     u1520 09EA  
                   u1440 08E4                     u2320 1E40                     u2400 1BA6  
                   _LATD 0F8C                     u2241 10EA                     u2161 0FD2  
                   u2081 0D46                     u1601 0AC8                     u1441 08E0  
                   u2321 1E3C                     u2401 1BA2                     u2250 1126  
                   u2170 0FF6                     u2090 0D5A                     u1610 0B04  
                   u1530 0A12                     u1450 08FA                     u2410 1BE0  
                   u2330 1A60                     u2251 1122                     u2171 0FF2  
                   u2155 0F72                     u2091 0D56                     u1611 0B00  
                   u1531 0A0E                     u1451 08F6                     u2411 1BDC  
                   u2331 1A5C                     u2500 200C                     u2180 1006  
                   u1700 0C1E                     u1620 0B4A                     u1540 0A30  
                   u1460 090C                     u2260 1D72                     u2420 1BEE  
                   u2340 1A6E                     u2501 2008                     u2181 1002  
                   u1701 0C1A                     u1621 0B46                     u1541 0A2C  
                   u1461 0908                     u2261 1D6E                     u2421 1BEA  
                   u2341 1A6A                     u2510 2026                     u2190 1034  
                   u1710 0C34                     u1630 0B80                     u1550 0A50  
                   u1470 091C                     u2270 1DA6                     u2350 1ACA  
                   u2430 214A                     u2511 2022                     u2191 1030  
                   u1711 0C30                     u1631 0B7C                     u1551 0A4C  
                   u1471 0918                     u2351 1AC6                     u2431 2146  
                   u1720 0C48                     u1640 0B90                     u1560 0A5E  
                   u1480 0956                     u2280 1DD4                     u2360 1B20  
                   u2440 21A6                     u2600 1782                     u1800 1E72  
                   u1721 0C44                     u1641 0B8C                     u1561 0A5A  
                   u1481 0952                     u2281 1DD0                     u2361 1B1C  
                   u2441 21A2                     u2601 177E                     u1801 1E6E  
                   u1730 0C62                     u1650 0BBC                     u1570 0A6E  
                   u1490 0964                     u2290 1DE8                     u2370 1B6A  
                   u2450 21D8                     u2610 17C2                     u2530 14EE  
                   u1810 1E82                     u1731 0C5E                     u1651 0BB8  
                   u1571 0A6A                     u1491 0960                     u2291 1DE4  
                   u2275 1D9C                     u2371 1B66                     u2451 21D4  
                   u2611 17BE                     u2531 14EA                     u1811 1E7E  
                   u1900 1222                     u1740 0C9C                     u1660 0BCC  
                   u1580 0AA0                     u2380 1B88                     u2620 17DE  
                   u2540 14FC                     u1820 1EA8                     u2460 225E  
                   u2525 2032                     u1901 121E                     u1741 0C98  
                   u1661 0BC8                     u1581 0A9C                     u2381 1B84  
                   u2621 17DA                     u2541 14F8                     u1821 1EA4  
                   u2461 225A                     u2526 2034                     u1910 1262  
                   u1750 0CAE                     u1670 0BE8                     u1590 0AAE  
                   u2390 1B98                     u2630 184A                     u2550 16AE  
                   u1830 1EDA                     u2470 229E                     u1911 125E  
                   u1751 0CAA                     u1671 0BE4                     u1591 0AAA  
                   u2391 1B94                     u2631 1846                     u2551 16AA  
                   u1831 1ED6                     u2471 229A                     u2480 1FD8  
                   u1920 12D6                     u1840 115E                     u1760 0CBE  
                   u1680 0BF8                     u2560 16CA                     u2640 1938  
                   u2481 1FD4                     u1921 12D2                     u1841 115A  
                   u1761 0CBA                     u1681 0BF4                     u2561 16C6  
                   u2641 1934                     u2490 1FF2                     u1930 12F8  
                   u1850 1170                     u1770 0CDE                     u1690 0C08  
                   u2570 170A                     u2650 1946                     u2491 1FEE  
                   u1931 12F4                     u1851 116C                     u1771 0CDA  
                   u1691 0C04                     u2571 1706                     u2651 1942  
                   u1940 1322                     u1860 1180                     u1780 0CEE  
                   u2580 1726                     u1941 131E                     u1861 117C  
                   u1781 0CEA                     u2581 1722                     u2717 18B4  
                   u1950 1346                     u1870 11C2                     u1790 0D0A  
                   u2590 1766                     u1951 1342                     u1871 11BE  
                   u1791 0D06                     u2591 1762                     u2807 2338  
                   u2727 18DC                     u1960 135C                     u1880 11D4  
                   u1961 1358                     u1881 11D0                     u2817 181C  
                   u2737 2352                     u1970 137A                     u1890 11E4  
                   u1971 1376                     u1891 11E0                     u2827 182E  
                   u2747 2056                     u1980 139A                     u1981 1396  
                   u2757 2074                     u1990 13AA                     u1991 13A6  
                   u2767 2096                     u2777 20C6                     u2787 20E4  
                   u2797 2100                     _TMR0 0FD6                     _dir1 00E8  
                   _dof1 00B8                     _dof2 00B4                     _dof3 00B0  
                   _dof4 00AC                     _data 00BA                     _dbuf 0060  
            freeMov@flag 005A                     _main 184C                     _prec 00A4  
                   fsr1h 0FE2                     fsr2h 0FDA                     indf2 0FDF  
                   fsr1l 0FE1                     fsr2l 0FD9                     btemp 005F  
                   prodh 0FF4                     prodl 0FF3                     start 000E  
        ___fldiv@new_exp 0051             ___param_bank 0000            ___fltol@sign1 0040  
        __end_of___fladd 0D1E                    ?_main 0001          __end_of___fldiv 14D4  
                  _ADRES 0FC3                    STR_10 0862          __end_of___flmul 1144  
        __end_of___flsub 222A          __end_of___fltol 1E62                    _T0CON 0FD5  
       __end_of_INT_TMR0 1FAE                    i2l262 1F62                    i2l264 1F80  
                  i2l266 1F9E                    i2l268 1FAA             vfpfcnvrt@fmt 000A  
                  _TRISD 0F95          __end_of_freeMov 184C  __end_of_SPI_Init_Master 2038  
  writeChar_LCD@dato_LCD 0001                    _flags 005E          __end_of_mapping 1D5C  
                  _fputc 1E62      init_ADC@Puertos_ADC 0001                    _width 00A2  
                  _putch 2380         __end_of_PWM_Init 232A                    tablat 0FF5  
                  ttemp5 0060                    ttemp6 0063                    ttemp7 0067  
                  status 0FD8                    wtemp8 0060          __end_of_sprintf 2308  
        __initialization 22A0             __end_of_main 1A4E                   ??_main 005C  
          __activetblptr 0002                   _ADCON0 0FC2                   _ADCON1 0FC1  
                 _ADCON2 0FC0                   ?_fputc 0001                   ?_putch 0001  
                 i2l2960 1F1C                   i2l2970 1F7A                   i2l2962 1F3E  
                 i2l2972 1F82                   i2l2964 1F46                   i2l2974 1F98  
                 i2l2966 1F5C                   i2l2958 1F0E                   i2l2976 1FA0  
                 i2l2968 1F64                   i2l2978 1FA8                   _SSPBUF 0FC9  
                 _SPI_Tx 2376         __end_of___xxtofl 1C02              mapping@read 00DC  
         _PWM_Init_Ports 2368             vfprintf@cfmt 000F                ??___fladd 0030  
              ??___fldiv 0048                ??___flmul 0017                ??___flsub 0040  
              ??___fltol 003C         __end_of_init_ADC 2368         __end_of_init_LCD 20B0  
       __end_of_read_ADC 21E4           _set_Cursor_LCD 20B0                   clear_0 22BE  
                 isa$std 0001                ??_freeMov 0059                   fputc@c 0001  
              ??_mapping 0059             __mediumconst 0000                   tblptrh 0FF7  
                 tblptrl 0FF6                   tblptru 0FF8                   putch@c 0001  
       ?_SPI_Init_Master 0001         __end_of_vfprintf 2268                ??_sprintf 0012  
           ___xxtofl@arg 000B             ___xxtofl@exp 000A             ___xxtofl@val 0001  
             __accesstop 0060  __end_of__initialization 22C6   __end_of_PWM_Init_Ports 2376  
          ___rparam_used 0001               ___fltol@f1 0038                ?_INT_TMR0 0001  
         __pcstackCOMRAM 0001         writeString_LCD@i 0003             __pidataBANK0 237E  
 __end_of_set_Cursor_LCD 2128            __end_of_fputc 1F0C            __end_of_putch 2382  
      ??_writeString_LCD 0003                ?_PWM_Init 0001                  ??_fputc 0004  
                ??_putch 0001               __pbssBANK0 0060                  ?_SPI_Tx 0001  
          _writeChar_LCD 2346          ?_PWM_Init_Ports 0001               ??_INT_TMR0 0001  
        ?_set_Cursor_LCD 0001               ??_PWM_Init 0001                ?___xxtofl 0001  
              ?_init_ADC 0001                ?_init_LCD 0001                ?_read_ADC 0001  
      __end_of_clear_LCD 2346           ?_writeChar_LCD 0001                  __Hparam 0000  
                __Lparam 0000                  ___fladd 0868                  ___fldiv 1144  
                ___flmul 0D1E                  ___flsub 21E4                  ___fltol 1D5C  
     SPI_Init_Master@smp 0002                ?_vfprintf 000C             __psmallconst 0800  
                __pcinit 22A0                  __ramtop 0800                  __ptext0 184C  
                __ptext1 2268                  __ptext2 2346                  __ptext3 22D4  
                __ptext4 222A                  __ptext5 2128                  __ptext6 1E62  
                __ptext7 2380                  __ptext8 2038                  __ptext9 20B0  
                _freeMov 14D4                _T0CONbits 0FD5                  _counter 00A8  
                _mapping 1C02               ??___xxtofl 0005                  _sprintf 22D4  
         __pintcode_body 1F0C     end_of_initialization 22C6               ??_init_ADC 0001  
             ??_init_LCD 0004               ??_read_ADC 0003                  fputc@fp 0003  
          __Lmediumconst 0000                  int_func 1F0C        __end_of_vfpfcnvrt 2194  
                postdec2 0FDD                  postinc0 0FEE                  postinc1 0FE6  
                postinc2 0FDE               ??_vfprintf 000F                _PORTCbits 0F82  
            ___fladd@grs 0037            ___xxtofl@sign 0009                _TRISAbits 0F92  
              _TRISBbits 0F93                _TRISCbits 0F94                _TRISDbits 0F95  
            ___fldiv@grs 0053              ___fldiv@rem 004C          ??_writeChar_LCD 0001  
            ___flmul@grs 001C           __end_of_SPI_Tx 237E          _writeString_LCD 2268  
         mapping@max_out 00D8           mapping@min_out 00D4              vfpfcnvrt@ap 000B  
            vfpfcnvrt@fp 0009             _control_data 0094      start_initialization 22A0  
       ??_PWM_Init_Ports 0001                 ??_SPI_Tx 0001         ??_set_Cursor_LCD 0002  
            vfprintf@fmt 000D              __pdataBANK0 00E8                ___fladd@a 002C  
              ___fladd@b 0028                ___fldiv@a 0044                ___fldiv@b 0040  
              ___flmul@a 0013                ___flmul@b 000F              __pbssCOMRAM 005E  
              ___flsub@a 003C                ___flsub@b 0038            __pcstackBANK0 00CC  
   SPI_Init_Master@reloj 0003            read_ADC@canal 0004  __end_of_writeString_LCD 22A0  
              _clear_LCD 232A                __pintcode 0008                 ?___fladd 0028  
               ?___fldiv 0040                 ?___flmul 000F                 ?___flsub 0038  
               ?___fltol 0038                 ?_freeMov 0001              __smallconst 0800  
               ?_mapping 00CC                 _DATA_LCD 00BC                 ?_sprintf 0010  
               _LATAbits 0F89                 _LATBbits 0F8A                 _LATDbits 0F8C  
             ?_clear_LCD 0001                 _INT_TMR0 0008                 i2u270_40 1F98  
               i2u270_41 1F94                 i2u266_40 1F1C                 i2u266_41 1F18  
               i2u267_40 1F3E                 i2u267_41 1F3A                 i2u268_40 1F5C  
               i2u268_41 1F58                 i2u269_40 1F7A                 i2u269_41 1F76  
               _RCONbits 0FD0        ??_SPI_Init_Master 0003                _vfpfcnvrt 2128  
             _ADCON0bits 0FC2               _ADCON1bits 0FC1                 _PWM_Init 2308  
              _pwm_value 0080            mapping@max_in 00D0            mapping@min_in 00CC  
            _INTCON2bits 0FF1         ?_writeString_LCD 0002               SPI_Tx@dato 0001  
writeString_LCD@dato_LCD 0002                 __Hrparam 0000               vfprintf@ap 000E  
               __Lrparam 0000               vfprintf@fp 000C               ?_vfpfcnvrt 0009  
    SPI_Init_Master@modo 0001               sprintf@fmt 0011                 ___xxtofl 1A4E  
               __ptext10 232A                 __ptext11 235A                 __ptext20 1144  
               __ptext12 14D4                 __ptext21 2376                 __ptext13 2194  
               __ptext22 1FAE                 __ptext14 1C02                 __ptext23 2368  
               __ptext15 1A4E                 __ptext24 2308                 __ptext16 1D5C  
               __ptext17 21E4                 __ptext18 0868                 __ptext19 0D1E  
               _contador 00A6                 _init_ADC 235A                 _init_LCD 2038  
               _read_ADC 2194    __end_of_writeChar_LCD 235A              ??_clear_LCD 0001  
               isa$xinst 0000                 int$flags 005F                 _vfprintf 222A  
             _INTCONbits 0FF2                 mapping@b 00DE                 mapping@m 00E4  
               mapping@y 00E2                 intlevel2 0000                sprintf@ap 0012  
        set_Cursor_LCD@x 0003          set_Cursor_LCD@y 0001              ??_vfpfcnvrt 000C  
               sprintf@f 0013                 sprintf@s 0010              _SSPCON1bits 0FC6  
          ___fladd@signs 0034             ___fladd@aexp 0035             ___fladd@bexp 0036  
        _SPI_Init_Master 1FAE  
