

Microchip MPLAB XC8 Assembler V2.50 build 20240725155939 
                                                                                               Wed Jan 08 20:14:05 2025

Microchip MPLAB XC8 C Compiler v2.50 (Free license) build 20240725155939 Og1 
     1                           	processor	18F4550
     2                           	fnconf	rparam,??,?,0
     3                           	pagewidth 120
     4                           	opt	flic
     5                           	psect	smallconst,global,reloc=2,class=SMALLCONST,space=0,delta=1,noexec
     6                           	psect	cinit,global,reloc=2,class=CODE,space=0,delta=1
     7                           	psect	bssCOMRAM,global,class=COMRAM,space=1,delta=1,lowdata,noexec
     8                           	psect	bssBANK0,global,class=BANK0,space=1,delta=1,lowdata,noexec
     9                           	psect	cstackBANK0,global,class=BANK0,space=1,delta=1,lowdata,noexec
    10                           	psect	cstackCOMRAM,global,class=COMRAM,space=1,delta=1,lowdata,noexec
    11                           	psect	text0,global,reloc=2,class=CODE,space=0,delta=1
    12                           	psect	text1,global,reloc=2,class=CODE,space=0,delta=1
    13                           	psect	text2,global,reloc=2,class=CODE,space=0,delta=1
    14                           	psect	text3,global,reloc=2,class=CODE,space=0,delta=1,group=3
    15                           	psect	text4,global,reloc=2,class=CODE,space=0,delta=1,group=1
    16                           	psect	text5,global,reloc=2,class=CODE,space=0,delta=1,group=1
    17                           	psect	text6,global,reloc=2,class=CODE,space=0,delta=1,group=3
    18                           	psect	text7,global,reloc=2,class=CODE,space=0,delta=1,group=3
    19                           	psect	text8,global,reloc=2,class=CODE,space=0,delta=1
    20                           	psect	text9,global,reloc=2,class=CODE,space=0,delta=1
    21                           	psect	text10,global,reloc=2,class=CODE,space=0,delta=1,group=2
    22                           	psect	text11,global,reloc=2,class=CODE,space=0,delta=1,group=2
    23                           	psect	text12,global,reloc=2,class=CODE,space=0,delta=1,group=2
    24                           	psect	text13,global,reloc=2,class=CODE,space=0,delta=1,group=2
    25                           	psect	text14,global,reloc=2,class=CODE,space=0,delta=1,group=2
    26                           	psect	text15,global,reloc=2,class=CODE,space=0,delta=1,group=2
    27                           	psect	text16,global,reloc=2,class=CODE,space=0,delta=1
    28                           	psect	text17,global,reloc=2,class=CODE,space=0,delta=1
    29                           	psect	text18,global,reloc=2,class=CODE,space=0,delta=1
    30                           	psect	text19,global,reloc=2,class=CODE,space=0,delta=1
    31                           	psect	text20,global,reloc=2,class=CODE,space=0,delta=1
    32                           	psect	text21,global,reloc=2,class=CODE,space=0,delta=1
    33                           	psect	text22,global,reloc=2,class=CODE,space=0,delta=1
    34                           	psect	text23,global,reloc=2,class=CODE,space=0,delta=1
    35                           	psect	intcode,global,reloc=2,class=CODE,space=0,delta=1
    36                           	psect	intcode_body,global,reloc=2,class=CODE,space=0,delta=1
    37                           	psect	intsave_regs,global,class=BIGRAM,space=1,delta=1,noexec
    38                           	psect	rparam,global,class=COMRAM,space=1,delta=1,noexec
    39                           	psect	temp,global,ovrld,common,class=COMRAM,space=1,delta=1,lowdata
    40                           	psect	config,global,abs,ovrld,class=CONFIG,space=4,delta=1,noexec
    41   000000                     
    42                           ; Generated 17/10/2023 GMT
    43                           ; 
    44                           ; Copyright © 2023, Microchip Technology Inc. and its subsidiaries ("Microchip")
    45                           ; All rights reserved.
    46                           ; 
    47                           ; This software is developed by Microchip Technology Inc. and its subsidiaries ("Microch
      +                          ip").
    48                           ; 
    49                           ; Redistribution and use in source and binary forms, with or without modification, are
    50                           ; permitted provided that the following conditions are met:
    51                           ; 
    52                           ;     1. Redistributions of source code must retain the above copyright notice, this lis
      +                          t of
    53                           ;        conditions and the following disclaimer.
    54                           ; 
    55                           ;     2. Redistributions in binary form must reproduce the above copyright notice, this 
      +                          list
    56                           ;        of conditions and the following disclaimer in the documentation and/or other
    57                           ;        materials provided with the distribution. Publication is not required when
    58                           ;        this file is used in an embedded application.
    59                           ; 
    60                           ;     3. Microchip's name may not be used to endorse or promote products derived from th
      +                          is
    61                           ;        software without specific prior written permission.
    62                           ; 
    63                           ; THIS SOFTWARE IS PROVIDED BY MICROCHIP "AS IS" AND ANY EXPRESS OR IMPLIED WARRANTIES,
    64                           ; INCLUDING, BUT NOT LIMITED TO, THE IMPLIED WARRANTIES OF MERCHANTABILITY AND FITNESS F
      +                          OR
    65                           ; PURPOSE ARE DISCLAIMED.  IN NO EVENT SHALL MICROCHIP BE LIABLE FOR ANY DIRECT, INDIREC
      +                          T,
    66                           ; INCIDENTAL, SPECIAL, EXEMPLARY, OR CONSEQUENTIAL DAMAGES (INCLUDING BUT NOT LIMITED TO
    67                           ; PROCUREMENT OF SUBSTITUTE GOODS OR SERVICES; LOSS OF USE, DATA OR PROFITS; OR BUSINESS
    68                           ; INTERRUPTION) HOWSOEVER CAUSED AND ON ANY THEORY OF LIABILITY, WHETHER IN CONTRACT, ST
      +                          RICT
    69                           ; LIABILITY, OR TORT (INCLUDING NEGLIGENCE OR OTHERWISE) ARISING IN ANY WAY OUT OF THE U
      +                          SE OF
    70                           ; THIS SOFTWARE, EVEN IF ADVISED OF THE POSSIBILITY OF SUCH DAMAGE.
    71                           ; 
    72                           ; 
    73                           ; Code-generator required, PIC18F4550 Definitions
    74                           ; 
    75                           ; SFR Addresses
    76   000FE0                     bsr             equ	4064
    77   000FE9                     fsr0            equ	4073
    78   000FEA                     fsr0h           equ	4074
    79   000FE9                     fsr0l           equ	4073
    80   000FE1                     fsr1            equ	4065
    81   000FE2                     fsr1h           equ	4066
    82   000FE1                     fsr1l           equ	4065
    83   000FD9                     fsr2            equ	4057
    84   000FDA                     fsr2h           equ	4058
    85   000FD9                     fsr2l           equ	4057
    86   000FEF                     indf0           equ	4079
    87   000FE7                     indf1           equ	4071
    88   000FDF                     indf2           equ	4063
    89   000FF2                     intcon          equ	4082
    90   000000                     nvmcon          equ	0
    91   000FF9                     pcl             equ	4089
    92   000FFA                     pclath          equ	4090
    93   000FFB                     pclatu          equ	4091
    94   000FEB                     plusw0          equ	4075
    95   000FE3                     plusw1          equ	4067
    96   000FDB                     plusw2          equ	4059
    97   000FED                     postdec0        equ	4077
    98   000FE5                     postdec1        equ	4069
    99   000FDD                     postdec2        equ	4061
   100   000FEE                     postinc0        equ	4078
   101   000FE6                     postinc1        equ	4070
   102   000FDE                     postinc2        equ	4062
   103   000FEC                     preinc0         equ	4076
   104   000FE4                     preinc1         equ	4068
   105   000FDC                     preinc2         equ	4060
   106   000FF3                     prod            equ	4083
   107   000FF4                     prodh           equ	4084
   108   000FF3                     prodl           equ	4083
   109   000FD8                     status          equ	4056
   110   000FF5                     tablat          equ	4085
   111   000FF6                     tblptr          equ	4086
   112   000FF7                     tblptrh         equ	4087
   113   000FF6                     tblptrl         equ	4086
   114   000FF8                     tblptru         equ	4088
   115   000FFD                     tosl            equ	4093
   116   000FE8                     wreg            equ	4072
   117   000F62                     SPPDATA         equ	3938	;# 
   118   000F63                     SPPCFG          equ	3939	;# 
   119   000F64                     SPPEPS          equ	3940	;# 
   120   000F65                     SPPCON          equ	3941	;# 
   121   000F66                     UFRM            equ	3942	;# 
   122   000F66                     UFRML           equ	3942	;# 
   123   000F67                     UFRMH           equ	3943	;# 
   124   000F68                     UIR             equ	3944	;# 
   125   000F69                     UIE             equ	3945	;# 
   126   000F6A                     UEIR            equ	3946	;# 
   127   000F6B                     UEIE            equ	3947	;# 
   128   000F6C                     USTAT           equ	3948	;# 
   129   000F6D                     UCON            equ	3949	;# 
   130   000F6E                     UADDR           equ	3950	;# 
   131   000F6F                     UCFG            equ	3951	;# 
   132   000F70                     UEP0            equ	3952	;# 
   133   000F71                     UEP1            equ	3953	;# 
   134   000F72                     UEP2            equ	3954	;# 
   135   000F73                     UEP3            equ	3955	;# 
   136   000F74                     UEP4            equ	3956	;# 
   137   000F75                     UEP5            equ	3957	;# 
   138   000F76                     UEP6            equ	3958	;# 
   139   000F77                     UEP7            equ	3959	;# 
   140   000F78                     UEP8            equ	3960	;# 
   141   000F79                     UEP9            equ	3961	;# 
   142   000F7A                     UEP10           equ	3962	;# 
   143   000F7B                     UEP11           equ	3963	;# 
   144   000F7C                     UEP12           equ	3964	;# 
   145   000F7D                     UEP13           equ	3965	;# 
   146   000F7E                     UEP14           equ	3966	;# 
   147   000F7F                     UEP15           equ	3967	;# 
   148   000F80                     PORTA           equ	3968	;# 
   149   000F81                     PORTB           equ	3969	;# 
   150   000F82                     PORTC           equ	3970	;# 
   151   000F83                     PORTD           equ	3971	;# 
   152   000F84                     PORTE           equ	3972	;# 
   153   000F89                     LATA            equ	3977	;# 
   154   000F8A                     LATB            equ	3978	;# 
   155   000F8B                     LATC            equ	3979	;# 
   156   000F8C                     LATD            equ	3980	;# 
   157   000F8D                     LATE            equ	3981	;# 
   158   000F92                     TRISA           equ	3986	;# 
   159   000F92                     DDRA            equ	3986	;# 
   160   000F93                     TRISB           equ	3987	;# 
   161   000F93                     DDRB            equ	3987	;# 
   162   000F94                     TRISC           equ	3988	;# 
   163   000F94                     DDRC            equ	3988	;# 
   164   000F95                     TRISD           equ	3989	;# 
   165   000F95                     DDRD            equ	3989	;# 
   166   000F96                     TRISE           equ	3990	;# 
   167   000F96                     DDRE            equ	3990	;# 
   168   000F9B                     OSCTUNE         equ	3995	;# 
   169   000F9D                     PIE1            equ	3997	;# 
   170   000F9E                     PIR1            equ	3998	;# 
   171   000F9F                     IPR1            equ	3999	;# 
   172   000FA0                     PIE2            equ	4000	;# 
   173   000FA1                     PIR2            equ	4001	;# 
   174   000FA2                     IPR2            equ	4002	;# 
   175   000FA6                     EECON1          equ	4006	;# 
   176   000FA7                     EECON2          equ	4007	;# 
   177   000FA8                     EEDATA          equ	4008	;# 
   178   000FA9                     EEADR           equ	4009	;# 
   179   000FAB                     RCSTA           equ	4011	;# 
   180   000FAB                     RCSTA1          equ	4011	;# 
   181   000FAC                     TXSTA           equ	4012	;# 
   182   000FAC                     TXSTA1          equ	4012	;# 
   183   000FAD                     TXREG           equ	4013	;# 
   184   000FAD                     TXREG1          equ	4013	;# 
   185   000FAE                     RCREG           equ	4014	;# 
   186   000FAE                     RCREG1          equ	4014	;# 
   187   000FAF                     SPBRG           equ	4015	;# 
   188   000FAF                     SPBRG1          equ	4015	;# 
   189   000FB0                     SPBRGH          equ	4016	;# 
   190   000FB1                     T3CON           equ	4017	;# 
   191   000FB2                     TMR3            equ	4018	;# 
   192   000FB2                     TMR3L           equ	4018	;# 
   193   000FB3                     TMR3H           equ	4019	;# 
   194   000FB4                     CMCON           equ	4020	;# 
   195   000FB5                     CVRCON          equ	4021	;# 
   196   000FB6                     ECCP1AS         equ	4022	;# 
   197   000FB6                     CCP1AS          equ	4022	;# 
   198   000FB7                     ECCP1DEL        equ	4023	;# 
   199   000FB7                     CCP1DEL         equ	4023	;# 
   200   000FB8                     BAUDCON         equ	4024	;# 
   201   000FB8                     BAUDCTL         equ	4024	;# 
   202   000FBA                     CCP2CON         equ	4026	;# 
   203   000FBB                     CCPR2           equ	4027	;# 
   204   000FBB                     CCPR2L          equ	4027	;# 
   205   000FBC                     CCPR2H          equ	4028	;# 
   206   000FBD                     CCP1CON         equ	4029	;# 
   207   000FBD                     ECCP1CON        equ	4029	;# 
   208   000FBE                     CCPR1           equ	4030	;# 
   209   000FBE                     CCPR1L          equ	4030	;# 
   210   000FBF                     CCPR1H          equ	4031	;# 
   211   000FC0                     ADCON2          equ	4032	;# 
   212   000FC1                     ADCON1          equ	4033	;# 
   213   000FC2                     ADCON0          equ	4034	;# 
   214   000FC3                     ADRES           equ	4035	;# 
   215   000FC3                     ADRESL          equ	4035	;# 
   216   000FC4                     ADRESH          equ	4036	;# 
   217   000FC5                     SSPCON2         equ	4037	;# 
   218   000FC6                     SSPCON1         equ	4038	;# 
   219   000FC7                     SSPSTAT         equ	4039	;# 
   220   000FC8                     SSPADD          equ	4040	;# 
   221   000FC9                     SSPBUF          equ	4041	;# 
   222   000FCA                     T2CON           equ	4042	;# 
   223   000FCB                     PR2             equ	4043	;# 
   224   000FCB                     MEMCON          equ	4043	;# 
   225   000FCC                     TMR2            equ	4044	;# 
   226   000FCD                     T1CON           equ	4045	;# 
   227   000FCE                     TMR1            equ	4046	;# 
   228   000FCE                     TMR1L           equ	4046	;# 
   229   000FCF                     TMR1H           equ	4047	;# 
   230   000FD0                     RCON            equ	4048	;# 
   231   000FD1                     WDTCON          equ	4049	;# 
   232   000FD2                     HLVDCON         equ	4050	;# 
   233   000FD2                     LVDCON          equ	4050	;# 
   234   000FD3                     OSCCON          equ	4051	;# 
   235   000FD5                     T0CON           equ	4053	;# 
   236   000FD6                     TMR0            equ	4054	;# 
   237   000FD6                     TMR0L           equ	4054	;# 
   238   000FD7                     TMR0H           equ	4055	;# 
   239   000FD8                     STATUS          equ	4056	;# 
   240   000FD9                     FSR2            equ	4057	;# 
   241   000FD9                     FSR2L           equ	4057	;# 
   242   000FDA                     FSR2H           equ	4058	;# 
   243   000FDB                     PLUSW2          equ	4059	;# 
   244   000FDC                     PREINC2         equ	4060	;# 
   245   000FDD                     POSTDEC2        equ	4061	;# 
   246   000FDE                     POSTINC2        equ	4062	;# 
   247   000FDF                     INDF2           equ	4063	;# 
   248   000FE0                     BSR             equ	4064	;# 
   249   000FE1                     FSR1            equ	4065	;# 
   250   000FE1                     FSR1L           equ	4065	;# 
   251   000FE2                     FSR1H           equ	4066	;# 
   252   000FE3                     PLUSW1          equ	4067	;# 
   253   000FE4                     PREINC1         equ	4068	;# 
   254   000FE5                     POSTDEC1        equ	4069	;# 
   255   000FE6                     POSTINC1        equ	4070	;# 
   256   000FE7                     INDF1           equ	4071	;# 
   257   000FE8                     WREG            equ	4072	;# 
   258   000FE9                     FSR0            equ	4073	;# 
   259   000FE9                     FSR0L           equ	4073	;# 
   260   000FEA                     FSR0H           equ	4074	;# 
   261   000FEB                     PLUSW0          equ	4075	;# 
   262   000FEC                     PREINC0         equ	4076	;# 
   263   000FED                     POSTDEC0        equ	4077	;# 
   264   000FEE                     POSTINC0        equ	4078	;# 
   265   000FEF                     INDF0           equ	4079	;# 
   266   000FF0                     INTCON3         equ	4080	;# 
   267   000FF1                     INTCON2         equ	4081	;# 
   268   000FF2                     INTCON          equ	4082	;# 
   269   000FF3                     PROD            equ	4083	;# 
   270   000FF3                     PRODL           equ	4083	;# 
   271   000FF4                     PRODH           equ	4084	;# 
   272   000FF5                     TABLAT          equ	4085	;# 
   273   000FF6                     TBLPTR          equ	4086	;# 
   274   000FF6                     TBLPTRL         equ	4086	;# 
   275   000FF7                     TBLPTRH         equ	4087	;# 
   276   000FF8                     TBLPTRU         equ	4088	;# 
   277   000FF9                     PCLAT           equ	4089	;# 
   278   000FF9                     PC              equ	4089	;# 
   279   000FF9                     PCL             equ	4089	;# 
   280   000FFA                     PCLATH          equ	4090	;# 
   281   000FFB                     PCLATU          equ	4091	;# 
   282   000FFC                     STKPTR          equ	4092	;# 
   283   000FFD                     TOS             equ	4093	;# 
   284   000FFD                     TOSL            equ	4093	;# 
   285   000FFE                     TOSH            equ	4094	;# 
   286   000FFF                     TOSU            equ	4095	;# 
   287   000F62                     SPPDATA         equ	3938	;# 
   288   000F63                     SPPCFG          equ	3939	;# 
   289   000F64                     SPPEPS          equ	3940	;# 
   290   000F65                     SPPCON          equ	3941	;# 
   291   000F66                     UFRM            equ	3942	;# 
   292   000F66                     UFRML           equ	3942	;# 
   293   000F67                     UFRMH           equ	3943	;# 
   294   000F68                     UIR             equ	3944	;# 
   295   000F69                     UIE             equ	3945	;# 
   296   000F6A                     UEIR            equ	3946	;# 
   297   000F6B                     UEIE            equ	3947	;# 
   298   000F6C                     USTAT           equ	3948	;# 
   299   000F6D                     UCON            equ	3949	;# 
   300   000F6E                     UADDR           equ	3950	;# 
   301   000F6F                     UCFG            equ	3951	;# 
   302   000F70                     UEP0            equ	3952	;# 
   303   000F71                     UEP1            equ	3953	;# 
   304   000F72                     UEP2            equ	3954	;# 
   305   000F73                     UEP3            equ	3955	;# 
   306   000F74                     UEP4            equ	3956	;# 
   307   000F75                     UEP5            equ	3957	;# 
   308   000F76                     UEP6            equ	3958	;# 
   309   000F77                     UEP7            equ	3959	;# 
   310   000F78                     UEP8            equ	3960	;# 
   311   000F79                     UEP9            equ	3961	;# 
   312   000F7A                     UEP10           equ	3962	;# 
   313   000F7B                     UEP11           equ	3963	;# 
   314   000F7C                     UEP12           equ	3964	;# 
   315   000F7D                     UEP13           equ	3965	;# 
   316   000F7E                     UEP14           equ	3966	;# 
   317   000F7F                     UEP15           equ	3967	;# 
   318   000F80                     PORTA           equ	3968	;# 
   319   000F81                     PORTB           equ	3969	;# 
   320   000F82                     PORTC           equ	3970	;# 
   321   000F83                     PORTD           equ	3971	;# 
   322   000F84                     PORTE           equ	3972	;# 
   323   000F89                     LATA            equ	3977	;# 
   324   000F8A                     LATB            equ	3978	;# 
   325   000F8B                     LATC            equ	3979	;# 
   326   000F8C                     LATD            equ	3980	;# 
   327   000F8D                     LATE            equ	3981	;# 
   328   000F92                     TRISA           equ	3986	;# 
   329   000F92                     DDRA            equ	3986	;# 
   330   000F93                     TRISB           equ	3987	;# 
   331   000F93                     DDRB            equ	3987	;# 
   332   000F94                     TRISC           equ	3988	;# 
   333   000F94                     DDRC            equ	3988	;# 
   334   000F95                     TRISD           equ	3989	;# 
   335   000F95                     DDRD            equ	3989	;# 
   336   000F96                     TRISE           equ	3990	;# 
   337   000F96                     DDRE            equ	3990	;# 
   338   000F9B                     OSCTUNE         equ	3995	;# 
   339   000F9D                     PIE1            equ	3997	;# 
   340   000F9E                     PIR1            equ	3998	;# 
   341   000F9F                     IPR1            equ	3999	;# 
   342   000FA0                     PIE2            equ	4000	;# 
   343   000FA1                     PIR2            equ	4001	;# 
   344   000FA2                     IPR2            equ	4002	;# 
   345   000FA6                     EECON1          equ	4006	;# 
   346   000FA7                     EECON2          equ	4007	;# 
   347   000FA8                     EEDATA          equ	4008	;# 
   348   000FA9                     EEADR           equ	4009	;# 
   349   000FAB                     RCSTA           equ	4011	;# 
   350   000FAB                     RCSTA1          equ	4011	;# 
   351   000FAC                     TXSTA           equ	4012	;# 
   352   000FAC                     TXSTA1          equ	4012	;# 
   353   000FAD                     TXREG           equ	4013	;# 
   354   000FAD                     TXREG1          equ	4013	;# 
   355   000FAE                     RCREG           equ	4014	;# 
   356   000FAE                     RCREG1          equ	4014	;# 
   357   000FAF                     SPBRG           equ	4015	;# 
   358   000FAF                     SPBRG1          equ	4015	;# 
   359   000FB0                     SPBRGH          equ	4016	;# 
   360   000FB1                     T3CON           equ	4017	;# 
   361   000FB2                     TMR3            equ	4018	;# 
   362   000FB2                     TMR3L           equ	4018	;# 
   363   000FB3                     TMR3H           equ	4019	;# 
   364   000FB4                     CMCON           equ	4020	;# 
   365   000FB5                     CVRCON          equ	4021	;# 
   366   000FB6                     ECCP1AS         equ	4022	;# 
   367   000FB6                     CCP1AS          equ	4022	;# 
   368   000FB7                     ECCP1DEL        equ	4023	;# 
   369   000FB7                     CCP1DEL         equ	4023	;# 
   370   000FB8                     BAUDCON         equ	4024	;# 
   371   000FB8                     BAUDCTL         equ	4024	;# 
   372   000FBA                     CCP2CON         equ	4026	;# 
   373   000FBB                     CCPR2           equ	4027	;# 
   374   000FBB                     CCPR2L          equ	4027	;# 
   375   000FBC                     CCPR2H          equ	4028	;# 
   376   000FBD                     CCP1CON         equ	4029	;# 
   377   000FBD                     ECCP1CON        equ	4029	;# 
   378   000FBE                     CCPR1           equ	4030	;# 
   379   000FBE                     CCPR1L          equ	4030	;# 
   380   000FBF                     CCPR1H          equ	4031	;# 
   381   000FC0                     ADCON2          equ	4032	;# 
   382   000FC1                     ADCON1          equ	4033	;# 
   383   000FC2                     ADCON0          equ	4034	;# 
   384   000FC3                     ADRES           equ	4035	;# 
   385   000FC3                     ADRESL          equ	4035	;# 
   386   000FC4                     ADRESH          equ	4036	;# 
   387   000FC5                     SSPCON2         equ	4037	;# 
   388   000FC6                     SSPCON1         equ	4038	;# 
   389   000FC7                     SSPSTAT         equ	4039	;# 
   390   000FC8                     SSPADD          equ	4040	;# 
   391   000FC9                     SSPBUF          equ	4041	;# 
   392   000FCA                     T2CON           equ	4042	;# 
   393   000FCB                     PR2             equ	4043	;# 
   394   000FCB                     MEMCON          equ	4043	;# 
   395   000FCC                     TMR2            equ	4044	;# 
   396   000FCD                     T1CON           equ	4045	;# 
   397   000FCE                     TMR1            equ	4046	;# 
   398   000FCE                     TMR1L           equ	4046	;# 
   399   000FCF                     TMR1H           equ	4047	;# 
   400   000FD0                     RCON            equ	4048	;# 
   401   000FD1                     WDTCON          equ	4049	;# 
   402   000FD2                     HLVDCON         equ	4050	;# 
   403   000FD2                     LVDCON          equ	4050	;# 
   404   000FD3                     OSCCON          equ	4051	;# 
   405   000FD5                     T0CON           equ	4053	;# 
   406   000FD6                     TMR0            equ	4054	;# 
   407   000FD6                     TMR0L           equ	4054	;# 
   408   000FD7                     TMR0H           equ	4055	;# 
   409   000FD8                     STATUS          equ	4056	;# 
   410   000FD9                     FSR2            equ	4057	;# 
   411   000FD9                     FSR2L           equ	4057	;# 
   412   000FDA                     FSR2H           equ	4058	;# 
   413   000FDB                     PLUSW2          equ	4059	;# 
   414   000FDC                     PREINC2         equ	4060	;# 
   415   000FDD                     POSTDEC2        equ	4061	;# 
   416   000FDE                     POSTINC2        equ	4062	;# 
   417   000FDF                     INDF2           equ	4063	;# 
   418   000FE0                     BSR             equ	4064	;# 
   419   000FE1                     FSR1            equ	4065	;# 
   420   000FE1                     FSR1L           equ	4065	;# 
   421   000FE2                     FSR1H           equ	4066	;# 
   422   000FE3                     PLUSW1          equ	4067	;# 
   423   000FE4                     PREINC1         equ	4068	;# 
   424   000FE5                     POSTDEC1        equ	4069	;# 
   425   000FE6                     POSTINC1        equ	4070	;# 
   426   000FE7                     INDF1           equ	4071	;# 
   427   000FE8                     WREG            equ	4072	;# 
   428   000FE9                     FSR0            equ	4073	;# 
   429   000FE9                     FSR0L           equ	4073	;# 
   430   000FEA                     FSR0H           equ	4074	;# 
   431   000FEB                     PLUSW0          equ	4075	;# 
   432   000FEC                     PREINC0         equ	4076	;# 
   433   000FED                     POSTDEC0        equ	4077	;# 
   434   000FEE                     POSTINC0        equ	4078	;# 
   435   000FEF                     INDF0           equ	4079	;# 
   436   000FF0                     INTCON3         equ	4080	;# 
   437   000FF1                     INTCON2         equ	4081	;# 
   438   000FF2                     INTCON          equ	4082	;# 
   439   000FF3                     PROD            equ	4083	;# 
   440   000FF3                     PRODL           equ	4083	;# 
   441   000FF4                     PRODH           equ	4084	;# 
   442   000FF5                     TABLAT          equ	4085	;# 
   443   000FF6                     TBLPTR          equ	4086	;# 
   444   000FF6                     TBLPTRL         equ	4086	;# 
   445   000FF7                     TBLPTRH         equ	4087	;# 
   446   000FF8                     TBLPTRU         equ	4088	;# 
   447   000FF9                     PCLAT           equ	4089	;# 
   448   000FF9                     PC              equ	4089	;# 
   449   000FF9                     PCL             equ	4089	;# 
   450   000FFA                     PCLATH          equ	4090	;# 
   451   000FFB                     PCLATU          equ	4091	;# 
   452   000FFC                     STKPTR          equ	4092	;# 
   453   000FFD                     TOS             equ	4093	;# 
   454   000FFD                     TOSL            equ	4093	;# 
   455   000FFE                     TOSH            equ	4094	;# 
   456   000FFF                     TOSU            equ	4095	;# 
   457   000F62                     SPPDATA         equ	3938	;# 
   458   000F63                     SPPCFG          equ	3939	;# 
   459   000F64                     SPPEPS          equ	3940	;# 
   460   000F65                     SPPCON          equ	3941	;# 
   461   000F66                     UFRM            equ	3942	;# 
   462   000F66                     UFRML           equ	3942	;# 
   463   000F67                     UFRMH           equ	3943	;# 
   464   000F68                     UIR             equ	3944	;# 
   465   000F69                     UIE             equ	3945	;# 
   466   000F6A                     UEIR            equ	3946	;# 
   467   000F6B                     UEIE            equ	3947	;# 
   468   000F6C                     USTAT           equ	3948	;# 
   469   000F6D                     UCON            equ	3949	;# 
   470   000F6E                     UADDR           equ	3950	;# 
   471   000F6F                     UCFG            equ	3951	;# 
   472   000F70                     UEP0            equ	3952	;# 
   473   000F71                     UEP1            equ	3953	;# 
   474   000F72                     UEP2            equ	3954	;# 
   475   000F73                     UEP3            equ	3955	;# 
   476   000F74                     UEP4            equ	3956	;# 
   477   000F75                     UEP5            equ	3957	;# 
   478   000F76                     UEP6            equ	3958	;# 
   479   000F77                     UEP7            equ	3959	;# 
   480   000F78                     UEP8            equ	3960	;# 
   481   000F79                     UEP9            equ	3961	;# 
   482   000F7A                     UEP10           equ	3962	;# 
   483   000F7B                     UEP11           equ	3963	;# 
   484   000F7C                     UEP12           equ	3964	;# 
   485   000F7D                     UEP13           equ	3965	;# 
   486   000F7E                     UEP14           equ	3966	;# 
   487   000F7F                     UEP15           equ	3967	;# 
   488   000F80                     PORTA           equ	3968	;# 
   489   000F81                     PORTB           equ	3969	;# 
   490   000F82                     PORTC           equ	3970	;# 
   491   000F83                     PORTD           equ	3971	;# 
   492   000F84                     PORTE           equ	3972	;# 
   493   000F89                     LATA            equ	3977	;# 
   494   000F8A                     LATB            equ	3978	;# 
   495   000F8B                     LATC            equ	3979	;# 
   496   000F8C                     LATD            equ	3980	;# 
   497   000F8D                     LATE            equ	3981	;# 
   498   000F92                     TRISA           equ	3986	;# 
   499   000F92                     DDRA            equ	3986	;# 
   500   000F93                     TRISB           equ	3987	;# 
   501   000F93                     DDRB            equ	3987	;# 
   502   000F94                     TRISC           equ	3988	;# 
   503   000F94                     DDRC            equ	3988	;# 
   504   000F95                     TRISD           equ	3989	;# 
   505   000F95                     DDRD            equ	3989	;# 
   506   000F96                     TRISE           equ	3990	;# 
   507   000F96                     DDRE            equ	3990	;# 
   508   000F9B                     OSCTUNE         equ	3995	;# 
   509   000F9D                     PIE1            equ	3997	;# 
   510   000F9E                     PIR1            equ	3998	;# 
   511   000F9F                     IPR1            equ	3999	;# 
   512   000FA0                     PIE2            equ	4000	;# 
   513   000FA1                     PIR2            equ	4001	;# 
   514   000FA2                     IPR2            equ	4002	;# 
   515   000FA6                     EECON1          equ	4006	;# 
   516   000FA7                     EECON2          equ	4007	;# 
   517   000FA8                     EEDATA          equ	4008	;# 
   518   000FA9                     EEADR           equ	4009	;# 
   519   000FAB                     RCSTA           equ	4011	;# 
   520   000FAB                     RCSTA1          equ	4011	;# 
   521   000FAC                     TXSTA           equ	4012	;# 
   522   000FAC                     TXSTA1          equ	4012	;# 
   523   000FAD                     TXREG           equ	4013	;# 
   524   000FAD                     TXREG1          equ	4013	;# 
   525   000FAE                     RCREG           equ	4014	;# 
   526   000FAE                     RCREG1          equ	4014	;# 
   527   000FAF                     SPBRG           equ	4015	;# 
   528   000FAF                     SPBRG1          equ	4015	;# 
   529   000FB0                     SPBRGH          equ	4016	;# 
   530   000FB1                     T3CON           equ	4017	;# 
   531   000FB2                     TMR3            equ	4018	;# 
   532   000FB2                     TMR3L           equ	4018	;# 
   533   000FB3                     TMR3H           equ	4019	;# 
   534   000FB4                     CMCON           equ	4020	;# 
   535   000FB5                     CVRCON          equ	4021	;# 
   536   000FB6                     ECCP1AS         equ	4022	;# 
   537   000FB6                     CCP1AS          equ	4022	;# 
   538   000FB7                     ECCP1DEL        equ	4023	;# 
   539   000FB7                     CCP1DEL         equ	4023	;# 
   540   000FB8                     BAUDCON         equ	4024	;# 
   541   000FB8                     BAUDCTL         equ	4024	;# 
   542   000FBA                     CCP2CON         equ	4026	;# 
   543   000FBB                     CCPR2           equ	4027	;# 
   544   000FBB                     CCPR2L          equ	4027	;# 
   545   000FBC                     CCPR2H          equ	4028	;# 
   546   000FBD                     CCP1CON         equ	4029	;# 
   547   000FBD                     ECCP1CON        equ	4029	;# 
   548   000FBE                     CCPR1           equ	4030	;# 
   549   000FBE                     CCPR1L          equ	4030	;# 
   550   000FBF                     CCPR1H          equ	4031	;# 
   551   000FC0                     ADCON2          equ	4032	;# 
   552   000FC1                     ADCON1          equ	4033	;# 
   553   000FC2                     ADCON0          equ	4034	;# 
   554   000FC3                     ADRES           equ	4035	;# 
   555   000FC3                     ADRESL          equ	4035	;# 
   556   000FC4                     ADRESH          equ	4036	;# 
   557   000FC5                     SSPCON2         equ	4037	;# 
   558   000FC6                     SSPCON1         equ	4038	;# 
   559   000FC7                     SSPSTAT         equ	4039	;# 
   560   000FC8                     SSPADD          equ	4040	;# 
   561   000FC9                     SSPBUF          equ	4041	;# 
   562   000FCA                     T2CON           equ	4042	;# 
   563   000FCB                     PR2             equ	4043	;# 
   564   000FCB                     MEMCON          equ	4043	;# 
   565   000FCC                     TMR2            equ	4044	;# 
   566   000FCD                     T1CON           equ	4045	;# 
   567   000FCE                     TMR1            equ	4046	;# 
   568   000FCE                     TMR1L           equ	4046	;# 
   569   000FCF                     TMR1H           equ	4047	;# 
   570   000FD0                     RCON            equ	4048	;# 
   571   000FD1                     WDTCON          equ	4049	;# 
   572   000FD2                     HLVDCON         equ	4050	;# 
   573   000FD2                     LVDCON          equ	4050	;# 
   574   000FD3                     OSCCON          equ	4051	;# 
   575   000FD5                     T0CON           equ	4053	;# 
   576   000FD6                     TMR0            equ	4054	;# 
   577   000FD6                     TMR0L           equ	4054	;# 
   578   000FD7                     TMR0H           equ	4055	;# 
   579   000FD8                     STATUS          equ	4056	;# 
   580   000FD9                     FSR2            equ	4057	;# 
   581   000FD9                     FSR2L           equ	4057	;# 
   582   000FDA                     FSR2H           equ	4058	;# 
   583   000FDB                     PLUSW2          equ	4059	;# 
   584   000FDC                     PREINC2         equ	4060	;# 
   585   000FDD                     POSTDEC2        equ	4061	;# 
   586   000FDE                     POSTINC2        equ	4062	;# 
   587   000FDF                     INDF2           equ	4063	;# 
   588   000FE0                     BSR             equ	4064	;# 
   589   000FE1                     FSR1            equ	4065	;# 
   590   000FE1                     FSR1L           equ	4065	;# 
   591   000FE2                     FSR1H           equ	4066	;# 
   592   000FE3                     PLUSW1          equ	4067	;# 
   593   000FE4                     PREINC1         equ	4068	;# 
   594   000FE5                     POSTDEC1        equ	4069	;# 
   595   000FE6                     POSTINC1        equ	4070	;# 
   596   000FE7                     INDF1           equ	4071	;# 
   597   000FE8                     WREG            equ	4072	;# 
   598   000FE9                     FSR0            equ	4073	;# 
   599   000FE9                     FSR0L           equ	4073	;# 
   600   000FEA                     FSR0H           equ	4074	;# 
   601   000FEB                     PLUSW0          equ	4075	;# 
   602   000FEC                     PREINC0         equ	4076	;# 
   603   000FED                     POSTDEC0        equ	4077	;# 
   604   000FEE                     POSTINC0        equ	4078	;# 
   605   000FEF                     INDF0           equ	4079	;# 
   606   000FF0                     INTCON3         equ	4080	;# 
   607   000FF1                     INTCON2         equ	4081	;# 
   608   000FF2                     INTCON          equ	4082	;# 
   609   000FF3                     PROD            equ	4083	;# 
   610   000FF3                     PRODL           equ	4083	;# 
   611   000FF4                     PRODH           equ	4084	;# 
   612   000FF5                     TABLAT          equ	4085	;# 
   613   000FF6                     TBLPTR          equ	4086	;# 
   614   000FF6                     TBLPTRL         equ	4086	;# 
   615   000FF7                     TBLPTRH         equ	4087	;# 
   616   000FF8                     TBLPTRU         equ	4088	;# 
   617   000FF9                     PCLAT           equ	4089	;# 
   618   000FF9                     PC              equ	4089	;# 
   619   000FF9                     PCL             equ	4089	;# 
   620   000FFA                     PCLATH          equ	4090	;# 
   621   000FFB                     PCLATU          equ	4091	;# 
   622   000FFC                     STKPTR          equ	4092	;# 
   623   000FFD                     TOS             equ	4093	;# 
   624   000FFD                     TOSL            equ	4093	;# 
   625   000FFE                     TOSH            equ	4094	;# 
   626   000FFF                     TOSU            equ	4095	;# 
   627   000F62                     SPPDATA         equ	3938	;# 
   628   000F63                     SPPCFG          equ	3939	;# 
   629   000F64                     SPPEPS          equ	3940	;# 
   630   000F65                     SPPCON          equ	3941	;# 
   631   000F66                     UFRM            equ	3942	;# 
   632   000F66                     UFRML           equ	3942	;# 
   633   000F67                     UFRMH           equ	3943	;# 
   634   000F68                     UIR             equ	3944	;# 
   635   000F69                     UIE             equ	3945	;# 
   636   000F6A                     UEIR            equ	3946	;# 
   637   000F6B                     UEIE            equ	3947	;# 
   638   000F6C                     USTAT           equ	3948	;# 
   639   000F6D                     UCON            equ	3949	;# 
   640   000F6E                     UADDR           equ	3950	;# 
   641   000F6F                     UCFG            equ	3951	;# 
   642   000F70                     UEP0            equ	3952	;# 
   643   000F71                     UEP1            equ	3953	;# 
   644   000F72                     UEP2            equ	3954	;# 
   645   000F73                     UEP3            equ	3955	;# 
   646   000F74                     UEP4            equ	3956	;# 
   647   000F75                     UEP5            equ	3957	;# 
   648   000F76                     UEP6            equ	3958	;# 
   649   000F77                     UEP7            equ	3959	;# 
   650   000F78                     UEP8            equ	3960	;# 
   651   000F79                     UEP9            equ	3961	;# 
   652   000F7A                     UEP10           equ	3962	;# 
   653   000F7B                     UEP11           equ	3963	;# 
   654   000F7C                     UEP12           equ	3964	;# 
   655   000F7D                     UEP13           equ	3965	;# 
   656   000F7E                     UEP14           equ	3966	;# 
   657   000F7F                     UEP15           equ	3967	;# 
   658   000F80                     PORTA           equ	3968	;# 
   659   000F81                     PORTB           equ	3969	;# 
   660   000F82                     PORTC           equ	3970	;# 
   661   000F83                     PORTD           equ	3971	;# 
   662   000F84                     PORTE           equ	3972	;# 
   663   000F89                     LATA            equ	3977	;# 
   664   000F8A                     LATB            equ	3978	;# 
   665   000F8B                     LATC            equ	3979	;# 
   666   000F8C                     LATD            equ	3980	;# 
   667   000F8D                     LATE            equ	3981	;# 
   668   000F92                     TRISA           equ	3986	;# 
   669   000F92                     DDRA            equ	3986	;# 
   670   000F93                     TRISB           equ	3987	;# 
   671   000F93                     DDRB            equ	3987	;# 
   672   000F94                     TRISC           equ	3988	;# 
   673   000F94                     DDRC            equ	3988	;# 
   674   000F95                     TRISD           equ	3989	;# 
   675   000F95                     DDRD            equ	3989	;# 
   676   000F96                     TRISE           equ	3990	;# 
   677   000F96                     DDRE            equ	3990	;# 
   678   000F9B                     OSCTUNE         equ	3995	;# 
   679   000F9D                     PIE1            equ	3997	;# 
   680   000F9E                     PIR1            equ	3998	;# 
   681   000F9F                     IPR1            equ	3999	;# 
   682   000FA0                     PIE2            equ	4000	;# 
   683   000FA1                     PIR2            equ	4001	;# 
   684   000FA2                     IPR2            equ	4002	;# 
   685   000FA6                     EECON1          equ	4006	;# 
   686   000FA7                     EECON2          equ	4007	;# 
   687   000FA8                     EEDATA          equ	4008	;# 
   688   000FA9                     EEADR           equ	4009	;# 
   689   000FAB                     RCSTA           equ	4011	;# 
   690   000FAB                     RCSTA1          equ	4011	;# 
   691   000FAC                     TXSTA           equ	4012	;# 
   692   000FAC                     TXSTA1          equ	4012	;# 
   693   000FAD                     TXREG           equ	4013	;# 
   694   000FAD                     TXREG1          equ	4013	;# 
   695   000FAE                     RCREG           equ	4014	;# 
   696   000FAE                     RCREG1          equ	4014	;# 
   697   000FAF                     SPBRG           equ	4015	;# 
   698   000FAF                     SPBRG1          equ	4015	;# 
   699   000FB0                     SPBRGH          equ	4016	;# 
   700   000FB1                     T3CON           equ	4017	;# 
   701   000FB2                     TMR3            equ	4018	;# 
   702   000FB2                     TMR3L           equ	4018	;# 
   703   000FB3                     TMR3H           equ	4019	;# 
   704   000FB4                     CMCON           equ	4020	;# 
   705   000FB5                     CVRCON          equ	4021	;# 
   706   000FB6                     ECCP1AS         equ	4022	;# 
   707   000FB6                     CCP1AS          equ	4022	;# 
   708   000FB7                     ECCP1DEL        equ	4023	;# 
   709   000FB7                     CCP1DEL         equ	4023	;# 
   710   000FB8                     BAUDCON         equ	4024	;# 
   711   000FB8                     BAUDCTL         equ	4024	;# 
   712   000FBA                     CCP2CON         equ	4026	;# 
   713   000FBB                     CCPR2           equ	4027	;# 
   714   000FBB                     CCPR2L          equ	4027	;# 
   715   000FBC                     CCPR2H          equ	4028	;# 
   716   000FBD                     CCP1CON         equ	4029	;# 
   717   000FBD                     ECCP1CON        equ	4029	;# 
   718   000FBE                     CCPR1           equ	4030	;# 
   719   000FBE                     CCPR1L          equ	4030	;# 
   720   000FBF                     CCPR1H          equ	4031	;# 
   721   000FC0                     ADCON2          equ	4032	;# 
   722   000FC1                     ADCON1          equ	4033	;# 
   723   000FC2                     ADCON0          equ	4034	;# 
   724   000FC3                     ADRES           equ	4035	;# 
   725   000FC3                     ADRESL          equ	4035	;# 
   726   000FC4                     ADRESH          equ	4036	;# 
   727   000FC5                     SSPCON2         equ	4037	;# 
   728   000FC6                     SSPCON1         equ	4038	;# 
   729   000FC7                     SSPSTAT         equ	4039	;# 
   730   000FC8                     SSPADD          equ	4040	;# 
   731   000FC9                     SSPBUF          equ	4041	;# 
   732   000FCA                     T2CON           equ	4042	;# 
   733   000FCB                     PR2             equ	4043	;# 
   734   000FCB                     MEMCON          equ	4043	;# 
   735   000FCC                     TMR2            equ	4044	;# 
   736   000FCD                     T1CON           equ	4045	;# 
   737   000FCE                     TMR1            equ	4046	;# 
   738   000FCE                     TMR1L           equ	4046	;# 
   739   000FCF                     TMR1H           equ	4047	;# 
   740   000FD0                     RCON            equ	4048	;# 
   741   000FD1                     WDTCON          equ	4049	;# 
   742   000FD2                     HLVDCON         equ	4050	;# 
   743   000FD2                     LVDCON          equ	4050	;# 
   744   000FD3                     OSCCON          equ	4051	;# 
   745   000FD5                     T0CON           equ	4053	;# 
   746   000FD6                     TMR0            equ	4054	;# 
   747   000FD6                     TMR0L           equ	4054	;# 
   748   000FD7                     TMR0H           equ	4055	;# 
   749   000FD8                     STATUS          equ	4056	;# 
   750   000FD9                     FSR2            equ	4057	;# 
   751   000FD9                     FSR2L           equ	4057	;# 
   752   000FDA                     FSR2H           equ	4058	;# 
   753   000FDB                     PLUSW2          equ	4059	;# 
   754   000FDC                     PREINC2         equ	4060	;# 
   755   000FDD                     POSTDEC2        equ	4061	;# 
   756   000FDE                     POSTINC2        equ	4062	;# 
   757   000FDF                     INDF2           equ	4063	;# 
   758   000FE0                     BSR             equ	4064	;# 
   759   000FE1                     FSR1            equ	4065	;# 
   760   000FE1                     FSR1L           equ	4065	;# 
   761   000FE2                     FSR1H           equ	4066	;# 
   762   000FE3                     PLUSW1          equ	4067	;# 
   763   000FE4                     PREINC1         equ	4068	;# 
   764   000FE5                     POSTDEC1        equ	4069	;# 
   765   000FE6                     POSTINC1        equ	4070	;# 
   766   000FE7                     INDF1           equ	4071	;# 
   767   000FE8                     WREG            equ	4072	;# 
   768   000FE9                     FSR0            equ	4073	;# 
   769   000FE9                     FSR0L           equ	4073	;# 
   770   000FEA                     FSR0H           equ	4074	;# 
   771   000FEB                     PLUSW0          equ	4075	;# 
   772   000FEC                     PREINC0         equ	4076	;# 
   773   000FED                     POSTDEC0        equ	4077	;# 
   774   000FEE                     POSTINC0        equ	4078	;# 
   775   000FEF                     INDF0           equ	4079	;# 
   776   000FF0                     INTCON3         equ	4080	;# 
   777   000FF1                     INTCON2         equ	4081	;# 
   778   000FF2                     INTCON          equ	4082	;# 
   779   000FF3                     PROD            equ	4083	;# 
   780   000FF3                     PRODL           equ	4083	;# 
   781   000FF4                     PRODH           equ	4084	;# 
   782   000FF5                     TABLAT          equ	4085	;# 
   783   000FF6                     TBLPTR          equ	4086	;# 
   784   000FF6                     TBLPTRL         equ	4086	;# 
   785   000FF7                     TBLPTRH         equ	4087	;# 
   786   000FF8                     TBLPTRU         equ	4088	;# 
   787   000FF9                     PCLAT           equ	4089	;# 
   788   000FF9                     PC              equ	4089	;# 
   789   000FF9                     PCL             equ	4089	;# 
   790   000FFA                     PCLATH          equ	4090	;# 
   791   000FFB                     PCLATU          equ	4091	;# 
   792   000FFC                     STKPTR          equ	4092	;# 
   793   000FFD                     TOS             equ	4093	;# 
   794   000FFD                     TOSL            equ	4093	;# 
   795   000FFE                     TOSH            equ	4094	;# 
   796   000FFF                     TOSU            equ	4095	;# 
   797   000F62                     SPPDATA         equ	3938	;# 
   798   000F63                     SPPCFG          equ	3939	;# 
   799   000F64                     SPPEPS          equ	3940	;# 
   800   000F65                     SPPCON          equ	3941	;# 
   801   000F66                     UFRM            equ	3942	;# 
   802   000F66                     UFRML           equ	3942	;# 
   803   000F67                     UFRMH           equ	3943	;# 
   804   000F68                     UIR             equ	3944	;# 
   805   000F69                     UIE             equ	3945	;# 
   806   000F6A                     UEIR            equ	3946	;# 
   807   000F6B                     UEIE            equ	3947	;# 
   808   000F6C                     USTAT           equ	3948	;# 
   809   000F6D                     UCON            equ	3949	;# 
   810   000F6E                     UADDR           equ	3950	;# 
   811   000F6F                     UCFG            equ	3951	;# 
   812   000F70                     UEP0            equ	3952	;# 
   813   000F71                     UEP1            equ	3953	;# 
   814   000F72                     UEP2            equ	3954	;# 
   815   000F73                     UEP3            equ	3955	;# 
   816   000F74                     UEP4            equ	3956	;# 
   817   000F75                     UEP5            equ	3957	;# 
   818   000F76                     UEP6            equ	3958	;# 
   819   000F77                     UEP7            equ	3959	;# 
   820   000F78                     UEP8            equ	3960	;# 
   821   000F79                     UEP9            equ	3961	;# 
   822   000F7A                     UEP10           equ	3962	;# 
   823   000F7B                     UEP11           equ	3963	;# 
   824   000F7C                     UEP12           equ	3964	;# 
   825   000F7D                     UEP13           equ	3965	;# 
   826   000F7E                     UEP14           equ	3966	;# 
   827   000F7F                     UEP15           equ	3967	;# 
   828   000F80                     PORTA           equ	3968	;# 
   829   000F81                     PORTB           equ	3969	;# 
   830   000F82                     PORTC           equ	3970	;# 
   831   000F83                     PORTD           equ	3971	;# 
   832   000F84                     PORTE           equ	3972	;# 
   833   000F89                     LATA            equ	3977	;# 
   834   000F8A                     LATB            equ	3978	;# 
   835   000F8B                     LATC            equ	3979	;# 
   836   000F8C                     LATD            equ	3980	;# 
   837   000F8D                     LATE            equ	3981	;# 
   838   000F92                     TRISA           equ	3986	;# 
   839   000F92                     DDRA            equ	3986	;# 
   840   000F93                     TRISB           equ	3987	;# 
   841   000F93                     DDRB            equ	3987	;# 
   842   000F94                     TRISC           equ	3988	;# 
   843   000F94                     DDRC            equ	3988	;# 
   844   000F95                     TRISD           equ	3989	;# 
   845   000F95                     DDRD            equ	3989	;# 
   846   000F96                     TRISE           equ	3990	;# 
   847   000F96                     DDRE            equ	3990	;# 
   848   000F9B                     OSCTUNE         equ	3995	;# 
   849   000F9D                     PIE1            equ	3997	;# 
   850   000F9E                     PIR1            equ	3998	;# 
   851   000F9F                     IPR1            equ	3999	;# 
   852   000FA0                     PIE2            equ	4000	;# 
   853   000FA1                     PIR2            equ	4001	;# 
   854   000FA2                     IPR2            equ	4002	;# 
   855   000FA6                     EECON1          equ	4006	;# 
   856   000FA7                     EECON2          equ	4007	;# 
   857   000FA8                     EEDATA          equ	4008	;# 
   858   000FA9                     EEADR           equ	4009	;# 
   859   000FAB                     RCSTA           equ	4011	;# 
   860   000FAB                     RCSTA1          equ	4011	;# 
   861   000FAC                     TXSTA           equ	4012	;# 
   862   000FAC                     TXSTA1          equ	4012	;# 
   863   000FAD                     TXREG           equ	4013	;# 
   864   000FAD                     TXREG1          equ	4013	;# 
   865   000FAE                     RCREG           equ	4014	;# 
   866   000FAE                     RCREG1          equ	4014	;# 
   867   000FAF                     SPBRG           equ	4015	;# 
   868   000FAF                     SPBRG1          equ	4015	;# 
   869   000FB0                     SPBRGH          equ	4016	;# 
   870   000FB1                     T3CON           equ	4017	;# 
   871   000FB2                     TMR3            equ	4018	;# 
   872   000FB2                     TMR3L           equ	4018	;# 
   873   000FB3                     TMR3H           equ	4019	;# 
   874   000FB4                     CMCON           equ	4020	;# 
   875   000FB5                     CVRCON          equ	4021	;# 
   876   000FB6                     ECCP1AS         equ	4022	;# 
   877   000FB6                     CCP1AS          equ	4022	;# 
   878   000FB7                     ECCP1DEL        equ	4023	;# 
   879   000FB7                     CCP1DEL         equ	4023	;# 
   880   000FB8                     BAUDCON         equ	4024	;# 
   881   000FB8                     BAUDCTL         equ	4024	;# 
   882   000FBA                     CCP2CON         equ	4026	;# 
   883   000FBB                     CCPR2           equ	4027	;# 
   884   000FBB                     CCPR2L          equ	4027	;# 
   885   000FBC                     CCPR2H          equ	4028	;# 
   886   000FBD                     CCP1CON         equ	4029	;# 
   887   000FBD                     ECCP1CON        equ	4029	;# 
   888   000FBE                     CCPR1           equ	4030	;# 
   889   000FBE                     CCPR1L          equ	4030	;# 
   890   000FBF                     CCPR1H          equ	4031	;# 
   891   000FC0                     ADCON2          equ	4032	;# 
   892   000FC1                     ADCON1          equ	4033	;# 
   893   000FC2                     ADCON0          equ	4034	;# 
   894   000FC3                     ADRES           equ	4035	;# 
   895   000FC3                     ADRESL          equ	4035	;# 
   896   000FC4                     ADRESH          equ	4036	;# 
   897   000FC5                     SSPCON2         equ	4037	;# 
   898   000FC6                     SSPCON1         equ	4038	;# 
   899   000FC7                     SSPSTAT         equ	4039	;# 
   900   000FC8                     SSPADD          equ	4040	;# 
   901   000FC9                     SSPBUF          equ	4041	;# 
   902   000FCA                     T2CON           equ	4042	;# 
   903   000FCB                     PR2             equ	4043	;# 
   904   000FCB                     MEMCON          equ	4043	;# 
   905   000FCC                     TMR2            equ	4044	;# 
   906   000FCD                     T1CON           equ	4045	;# 
   907   000FCE                     TMR1            equ	4046	;# 
   908   000FCE                     TMR1L           equ	4046	;# 
   909   000FCF                     TMR1H           equ	4047	;# 
   910   000FD0                     RCON            equ	4048	;# 
   911   000FD1                     WDTCON          equ	4049	;# 
   912   000FD2                     HLVDCON         equ	4050	;# 
   913   000FD2                     LVDCON          equ	4050	;# 
   914   000FD3                     OSCCON          equ	4051	;# 
   915   000FD5                     T0CON           equ	4053	;# 
   916   000FD6                     TMR0            equ	4054	;# 
   917   000FD6                     TMR0L           equ	4054	;# 
   918   000FD7                     TMR0H           equ	4055	;# 
   919   000FD8                     STATUS          equ	4056	;# 
   920   000FD9                     FSR2            equ	4057	;# 
   921   000FD9                     FSR2L           equ	4057	;# 
   922   000FDA                     FSR2H           equ	4058	;# 
   923   000FDB                     PLUSW2          equ	4059	;# 
   924   000FDC                     PREINC2         equ	4060	;# 
   925   000FDD                     POSTDEC2        equ	4061	;# 
   926   000FDE                     POSTINC2        equ	4062	;# 
   927   000FDF                     INDF2           equ	4063	;# 
   928   000FE0                     BSR             equ	4064	;# 
   929   000FE1                     FSR1            equ	4065	;# 
   930   000FE1                     FSR1L           equ	4065	;# 
   931   000FE2                     FSR1H           equ	4066	;# 
   932   000FE3                     PLUSW1          equ	4067	;# 
   933   000FE4                     PREINC1         equ	4068	;# 
   934   000FE5                     POSTDEC1        equ	4069	;# 
   935   000FE6                     POSTINC1        equ	4070	;# 
   936   000FE7                     INDF1           equ	4071	;# 
   937   000FE8                     WREG            equ	4072	;# 
   938   000FE9                     FSR0            equ	4073	;# 
   939   000FE9                     FSR0L           equ	4073	;# 
   940   000FEA                     FSR0H           equ	4074	;# 
   941   000FEB                     PLUSW0          equ	4075	;# 
   942   000FEC                     PREINC0         equ	4076	;# 
   943   000FED                     POSTDEC0        equ	4077	;# 
   944   000FEE                     POSTINC0        equ	4078	;# 
   945   000FEF                     INDF0           equ	4079	;# 
   946   000FF0                     INTCON3         equ	4080	;# 
   947   000FF1                     INTCON2         equ	4081	;# 
   948   000FF2                     INTCON          equ	4082	;# 
   949   000FF3                     PROD            equ	4083	;# 
   950   000FF3                     PRODL           equ	4083	;# 
   951   000FF4                     PRODH           equ	4084	;# 
   952   000FF5                     TABLAT          equ	4085	;# 
   953   000FF6                     TBLPTR          equ	4086	;# 
   954   000FF6                     TBLPTRL         equ	4086	;# 
   955   000FF7                     TBLPTRH         equ	4087	;# 
   956   000FF8                     TBLPTRU         equ	4088	;# 
   957   000FF9                     PCLAT           equ	4089	;# 
   958   000FF9                     PC              equ	4089	;# 
   959   000FF9                     PCL             equ	4089	;# 
   960   000FFA                     PCLATH          equ	4090	;# 
   961   000FFB                     PCLATU          equ	4091	;# 
   962   000FFC                     STKPTR          equ	4092	;# 
   963   000FFD                     TOS             equ	4093	;# 
   964   000FFD                     TOSL            equ	4093	;# 
   965   000FFE                     TOSH            equ	4094	;# 
   966   000FFF                     TOSU            equ	4095	;# 
   967   000F62                     SPPDATA         equ	3938	;# 
   968   000F63                     SPPCFG          equ	3939	;# 
   969   000F64                     SPPEPS          equ	3940	;# 
   970   000F65                     SPPCON          equ	3941	;# 
   971   000F66                     UFRM            equ	3942	;# 
   972   000F66                     UFRML           equ	3942	;# 
   973   000F67                     UFRMH           equ	3943	;# 
   974   000F68                     UIR             equ	3944	;# 
   975   000F69                     UIE             equ	3945	;# 
   976   000F6A                     UEIR            equ	3946	;# 
   977   000F6B                     UEIE            equ	3947	;# 
   978   000F6C                     USTAT           equ	3948	;# 
   979   000F6D                     UCON            equ	3949	;# 
   980   000F6E                     UADDR           equ	3950	;# 
   981   000F6F                     UCFG            equ	3951	;# 
   982   000F70                     UEP0            equ	3952	;# 
   983   000F71                     UEP1            equ	3953	;# 
   984   000F72                     UEP2            equ	3954	;# 
   985   000F73                     UEP3            equ	3955	;# 
   986   000F74                     UEP4            equ	3956	;# 
   987   000F75                     UEP5            equ	3957	;# 
   988   000F76                     UEP6            equ	3958	;# 
   989   000F77                     UEP7            equ	3959	;# 
   990   000F78                     UEP8            equ	3960	;# 
   991   000F79                     UEP9            equ	3961	;# 
   992   000F7A                     UEP10           equ	3962	;# 
   993   000F7B                     UEP11           equ	3963	;# 
   994   000F7C                     UEP12           equ	3964	;# 
   995   000F7D                     UEP13           equ	3965	;# 
   996   000F7E                     UEP14           equ	3966	;# 
   997   000F7F                     UEP15           equ	3967	;# 
   998   000F80                     PORTA           equ	3968	;# 
   999   000F81                     PORTB           equ	3969	;# 
  1000   000F82                     PORTC           equ	3970	;# 
  1001   000F83                     PORTD           equ	3971	;# 
  1002   000F84                     PORTE           equ	3972	;# 
  1003   000F89                     LATA            equ	3977	;# 
  1004   000F8A                     LATB            equ	3978	;# 
  1005   000F8B                     LATC            equ	3979	;# 
  1006   000F8C                     LATD            equ	3980	;# 
  1007   000F8D                     LATE            equ	3981	;# 
  1008   000F92                     TRISA           equ	3986	;# 
  1009   000F92                     DDRA            equ	3986	;# 
  1010   000F93                     TRISB           equ	3987	;# 
  1011   000F93                     DDRB            equ	3987	;# 
  1012   000F94                     TRISC           equ	3988	;# 
  1013   000F94                     DDRC            equ	3988	;# 
  1014   000F95                     TRISD           equ	3989	;# 
  1015   000F95                     DDRD            equ	3989	;# 
  1016   000F96                     TRISE           equ	3990	;# 
  1017   000F96                     DDRE            equ	3990	;# 
  1018   000F9B                     OSCTUNE         equ	3995	;# 
  1019   000F9D                     PIE1            equ	3997	;# 
  1020   000F9E                     PIR1            equ	3998	;# 
  1021   000F9F                     IPR1            equ	3999	;# 
  1022   000FA0                     PIE2            equ	4000	;# 
  1023   000FA1                     PIR2            equ	4001	;# 
  1024   000FA2                     IPR2            equ	4002	;# 
  1025   000FA6                     EECON1          equ	4006	;# 
  1026   000FA7                     EECON2          equ	4007	;# 
  1027   000FA8                     EEDATA          equ	4008	;# 
  1028   000FA9                     EEADR           equ	4009	;# 
  1029   000FAB                     RCSTA           equ	4011	;# 
  1030   000FAB                     RCSTA1          equ	4011	;# 
  1031   000FAC                     TXSTA           equ	4012	;# 
  1032   000FAC                     TXSTA1          equ	4012	;# 
  1033   000FAD                     TXREG           equ	4013	;# 
  1034   000FAD                     TXREG1          equ	4013	;# 
  1035   000FAE                     RCREG           equ	4014	;# 
  1036   000FAE                     RCREG1          equ	4014	;# 
  1037   000FAF                     SPBRG           equ	4015	;# 
  1038   000FAF                     SPBRG1          equ	4015	;# 
  1039   000FB0                     SPBRGH          equ	4016	;# 
  1040   000FB1                     T3CON           equ	4017	;# 
  1041   000FB2                     TMR3            equ	4018	;# 
  1042   000FB2                     TMR3L           equ	4018	;# 
  1043   000FB3                     TMR3H           equ	4019	;# 
  1044   000FB4                     CMCON           equ	4020	;# 
  1045   000FB5                     CVRCON          equ	4021	;# 
  1046   000FB6                     ECCP1AS         equ	4022	;# 
  1047   000FB6                     CCP1AS          equ	4022	;# 
  1048   000FB7                     ECCP1DEL        equ	4023	;# 
  1049   000FB7                     CCP1DEL         equ	4023	;# 
  1050   000FB8                     BAUDCON         equ	4024	;# 
  1051   000FB8                     BAUDCTL         equ	4024	;# 
  1052   000FBA                     CCP2CON         equ	4026	;# 
  1053   000FBB                     CCPR2           equ	4027	;# 
  1054   000FBB                     CCPR2L          equ	4027	;# 
  1055   000FBC                     CCPR2H          equ	4028	;# 
  1056   000FBD                     CCP1CON         equ	4029	;# 
  1057   000FBD                     ECCP1CON        equ	4029	;# 
  1058   000FBE                     CCPR1           equ	4030	;# 
  1059   000FBE                     CCPR1L          equ	4030	;# 
  1060   000FBF                     CCPR1H          equ	4031	;# 
  1061   000FC0                     ADCON2          equ	4032	;# 
  1062   000FC1                     ADCON1          equ	4033	;# 
  1063   000FC2                     ADCON0          equ	4034	;# 
  1064   000FC3                     ADRES           equ	4035	;# 
  1065   000FC3                     ADRESL          equ	4035	;# 
  1066   000FC4                     ADRESH          equ	4036	;# 
  1067   000FC5                     SSPCON2         equ	4037	;# 
  1068   000FC6                     SSPCON1         equ	4038	;# 
  1069   000FC7                     SSPSTAT         equ	4039	;# 
  1070   000FC8                     SSPADD          equ	4040	;# 
  1071   000FC9                     SSPBUF          equ	4041	;# 
  1072   000FCA                     T2CON           equ	4042	;# 
  1073   000FCB                     PR2             equ	4043	;# 
  1074   000FCB                     MEMCON          equ	4043	;# 
  1075   000FCC                     TMR2            equ	4044	;# 
  1076   000FCD                     T1CON           equ	4045	;# 
  1077   000FCE                     TMR1            equ	4046	;# 
  1078   000FCE                     TMR1L           equ	4046	;# 
  1079   000FCF                     TMR1H           equ	4047	;# 
  1080   000FD0                     RCON            equ	4048	;# 
  1081   000FD1                     WDTCON          equ	4049	;# 
  1082   000FD2                     HLVDCON         equ	4050	;# 
  1083   000FD2                     LVDCON          equ	4050	;# 
  1084   000FD3                     OSCCON          equ	4051	;# 
  1085   000FD5                     T0CON           equ	4053	;# 
  1086   000FD6                     TMR0            equ	4054	;# 
  1087   000FD6                     TMR0L           equ	4054	;# 
  1088   000FD7                     TMR0H           equ	4055	;# 
  1089   000FD8                     STATUS          equ	4056	;# 
  1090   000FD9                     FSR2            equ	4057	;# 
  1091   000FD9                     FSR2L           equ	4057	;# 
  1092   000FDA                     FSR2H           equ	4058	;# 
  1093   000FDB                     PLUSW2          equ	4059	;# 
  1094   000FDC                     PREINC2         equ	4060	;# 
  1095   000FDD                     POSTDEC2        equ	4061	;# 
  1096   000FDE                     POSTINC2        equ	4062	;# 
  1097   000FDF                     INDF2           equ	4063	;# 
  1098   000FE0                     BSR             equ	4064	;# 
  1099   000FE1                     FSR1            equ	4065	;# 
  1100   000FE1                     FSR1L           equ	4065	;# 
  1101   000FE2                     FSR1H           equ	4066	;# 
  1102   000FE3                     PLUSW1          equ	4067	;# 
  1103   000FE4                     PREINC1         equ	4068	;# 
  1104   000FE5                     POSTDEC1        equ	4069	;# 
  1105   000FE6                     POSTINC1        equ	4070	;# 
  1106   000FE7                     INDF1           equ	4071	;# 
  1107   000FE8                     WREG            equ	4072	;# 
  1108   000FE9                     FSR0            equ	4073	;# 
  1109   000FE9                     FSR0L           equ	4073	;# 
  1110   000FEA                     FSR0H           equ	4074	;# 
  1111   000FEB                     PLUSW0          equ	4075	;# 
  1112   000FEC                     PREINC0         equ	4076	;# 
  1113   000FED                     POSTDEC0        equ	4077	;# 
  1114   000FEE                     POSTINC0        equ	4078	;# 
  1115   000FEF                     INDF0           equ	4079	;# 
  1116   000FF0                     INTCON3         equ	4080	;# 
  1117   000FF1                     INTCON2         equ	4081	;# 
  1118   000FF2                     INTCON          equ	4082	;# 
  1119   000FF3                     PROD            equ	4083	;# 
  1120   000FF3                     PRODL           equ	4083	;# 
  1121   000FF4                     PRODH           equ	4084	;# 
  1122   000FF5                     TABLAT          equ	4085	;# 
  1123   000FF6                     TBLPTR          equ	4086	;# 
  1124   000FF6                     TBLPTRL         equ	4086	;# 
  1125   000FF7                     TBLPTRH         equ	4087	;# 
  1126   000FF8                     TBLPTRU         equ	4088	;# 
  1127   000FF9                     PCLAT           equ	4089	;# 
  1128   000FF9                     PC              equ	4089	;# 
  1129   000FF9                     PCL             equ	4089	;# 
  1130   000FFA                     PCLATH          equ	4090	;# 
  1131   000FFB                     PCLATU          equ	4091	;# 
  1132   000FFC                     STKPTR          equ	4092	;# 
  1133   000FFD                     TOS             equ	4093	;# 
  1134   000FFD                     TOSL            equ	4093	;# 
  1135   000FFE                     TOSH            equ	4094	;# 
  1136   000FFF                     TOSU            equ	4095	;# 
  1137   000FD6                     _TMR0           set	4054
  1138   000FC3                     _ADRES          set	4035
  1139   000FD5                     _T0CONbits      set	4053
  1140   000FD5                     _T0CON          set	4053
  1141   000FF1                     _INTCON2bits    set	4081
  1142   000FD0                     _RCONbits       set	4048
  1143   000FF2                     _INTCONbits     set	4082
  1144   000FC2                     _ADCON0bits     set	4034
  1145   000FC0                     _ADCON2         set	4032
  1146   000FC2                     _ADCON0         set	4034
  1147   000FC9                     _SSPBUF         set	4041
  1148   000FC7                     _SSPSTATbits    set	4039
  1149   000FC6                     _SSPCON1bits    set	4038
  1150   000F94                     _TRISCbits      set	3988
  1151   000F92                     _TRISAbits      set	3986
  1152   000FC1                     _ADCON1         set	4033
  1153   000F89                     _LATAbits       set	3977
  1154   000F8A                     _LATBbits       set	3978
  1155   000F93                     _TRISBbits      set	3987
  1156   000F8C                     _LATD           set	3980
  1157   000F95                     _TRISD          set	3989
  1158                           
  1159                           	psect	smallconst
  1160   000800                     __psmallconst:
  1161                           	callstack 0
  1162   000800  00                 	db	0
  1163   000801                     STR_2:
  1164   000801  43                 	db	67	;'C'
  1165   000802  4F                 	db	79	;'O'
  1166   000803  4E                 	db	78	;'N'
  1167   000804  54                 	db	84	;'T'
  1168   000805  52                 	db	82	;'R'
  1169   000806  4F                 	db	79	;'O'
  1170   000807  4C                 	db	76	;'L'
  1171   000808  4C                 	db	76	;'L'
  1172   000809  45                 	db	69	;'E'
  1173   00080A  52                 	db	82	;'R'
  1174   00080B  20                 	db	32
  1175   00080C  3C                 	db	60	;'<'
  1176   00080D  3C                 	db	60	;'<'
  1177   00080E  00                 	db	0
  1178   00080F                     STR_1:
  1179   00080F  3E                 	db	62	;'>'
  1180   000810  3E                 	db	62	;'>'
  1181   000811  20                 	db	32
  1182   000812  52                 	db	82	;'R'
  1183   000813  4F                 	db	79	;'O'
  1184   000814  42                 	db	66	;'B'
  1185   000815  4F                 	db	79	;'O'
  1186   000816  54                 	db	84	;'T'
  1187   000817  20                 	db	32
  1188   000818  41                 	db	65	;'A'
  1189   000819  52                 	db	82	;'R'
  1190   00081A  4D                 	db	77	;'M'
  1191   00081B  00                 	db	0
  1192   00081C  00                 	db	0	; dummy byte at the end
  1193   000002                     __activetblptr  equ	2
  1194                           
  1195                           ; #config settings
  1196                           
  1197                           	psect	cinit
  1198   001EFC                     __pcinit:
  1199                           	callstack 0
  1200   001EFC                     start_initialization:
  1201                           	callstack 0
  1202   001EFC                     __initialization:
  1203                           	callstack 0
  1204                           
  1205                           ; Clear objects allocated to BANK0 (97 bytes)
  1206   001EFC  EE00  F060         	lfsr	0,__pbssBANK0
  1207   001F00  0E61               	movlw	97
  1208   001F02                     clear_0:
  1209   001F02  6AEE               	clrf	postinc0,c
  1210   001F04  06E8               	decf	wreg,f,c
  1211   001F06  E1FD               	bnz	clear_0
  1212                           
  1213                           ; Clear objects allocated to COMRAM (4 bytes)
  1214   001F08  6A5E               	clrf	(__pbssCOMRAM+3)& (0+255),c
  1215   001F0A  6A5D               	clrf	(__pbssCOMRAM+2)& (0+255),c
  1216   001F0C  6A5C               	clrf	(__pbssCOMRAM+1)& (0+255),c
  1217   001F0E  6A5B               	clrf	__pbssCOMRAM& (0+255),c
  1218   001F10                     end_of_initialization:
  1219                           	callstack 0
  1220   001F10                     __end_of__initialization:
  1221                           	callstack 0
  1222   001F10  905F               	bcf	int$flags,0,c	;clear compiler interrupt flag (level 1)
  1223   001F12  925F               	bcf	int$flags,1,c	;clear compiler interrupt flag (level 2)
  1224   001F14  0E00               	movlw	low (__Lmediumconst shr (0+16))
  1225   001F16  6EF8               	movwf	tblptru,c
  1226   001F18  0100               	movlb	0
  1227   001F1A  EF45  F00A         	goto	_main	;jump to C main() function
  1228                           
  1229                           	psect	bssCOMRAM
  1230   00005B                     __pbssCOMRAM:
  1231                           	callstack 0
  1232   00005B                     _contador:
  1233                           	callstack 0
  1234   00005B                     	ds	2
  1235   00005D                     _z:
  1236                           	callstack 0
  1237   00005D                     	ds	2
  1238                           
  1239                           	psect	bssBANK0
  1240   000060                     __pbssBANK0:
  1241                           	callstack 0
  1242   000060                     	ds	32
  1243   000080                     _pwm_value:
  1244                           	callstack 0
  1245   000080                     	ds	20
  1246   000094                     _control_data:
  1247                           	callstack 0
  1248   000094                     	ds	14
  1249   0000A2                     _width:
  1250                           	callstack 0
  1251   0000A2                     	ds	2
  1252   0000A4                     _prec:
  1253                           	callstack 0
  1254   0000A4                     	ds	2
  1255   0000A6                     _y:
  1256                           	callstack 0
  1257   0000A6                     	ds	2
  1258   0000A8                     _dof2:
  1259                           	callstack 0
  1260   0000A8                     	ds	2
  1261   0000AA                     _x:
  1262                           	callstack 0
  1263   0000AA                     	ds	2
  1264   0000AC                     _dof1:
  1265                           	callstack 0
  1266   0000AC                     	ds	2
  1267   0000AE                     _data:
  1268                           	callstack 0
  1269   0000AE                     	ds	2
  1270   0000B0                     _flags:
  1271                           	callstack 0
  1272   0000B0                     	ds	1
  1273   0000B1                     _DATA_LCD:
  1274                           	callstack 0
  1275   0000B1                     	ds	16
  1276                           
  1277                           	psect	cstackBANK0
  1278   0000C1                     __pcstackBANK0:
  1279                           	callstack 0
  1280   0000C1                     ?_mapping:
  1281                           	callstack 0
  1282   0000C1                     mapping@min_in:
  1283                           	callstack 0
  1284                           
  1285                           ; 4 bytes @ 0x0
  1286   0000C1                     	ds	4
  1287   0000C5                     mapping@max_in:
  1288                           	callstack 0
  1289                           
  1290                           ; 4 bytes @ 0x4
  1291   0000C5                     	ds	4
  1292   0000C9                     mapping@min_out:
  1293                           	callstack 0
  1294                           
  1295                           ; 4 bytes @ 0x8
  1296   0000C9                     	ds	4
  1297   0000CD                     mapping@max_out:
  1298                           	callstack 0
  1299                           
  1300                           ; 4 bytes @ 0xC
  1301   0000CD                     	ds	4
  1302   0000D1                     mapping@read:
  1303                           	callstack 0
  1304                           
  1305                           ; 2 bytes @ 0x10
  1306   0000D1                     	ds	2
  1307   0000D3                     mapping@b:
  1308                           	callstack 0
  1309                           
  1310                           ; 4 bytes @ 0x12
  1311   0000D3                     	ds	4
  1312   0000D7                     mapping@y:
  1313                           	callstack 0
  1314                           
  1315                           ; 2 bytes @ 0x16
  1316   0000D7                     	ds	2
  1317   0000D9                     mapping@m:
  1318                           	callstack 0
  1319                           
  1320                           ; 4 bytes @ 0x18
  1321   0000D9                     	ds	4
  1322                           
  1323                           	psect	cstackCOMRAM
  1324   000001                     __pcstackCOMRAM:
  1325                           	callstack 0
  1326   000001                     ?_read_ADC:
  1327                           	callstack 0
  1328   000001                     ?___xxtofl:
  1329                           	callstack 0
  1330   000001                     writeChar_LCD@dato_LCD:
  1331                           	callstack 0
  1332   000001                     set_Cursor_LCD@y:
  1333                           	callstack 0
  1334   000001                     SPI_Init_Master@modo:
  1335                           	callstack 0
  1336   000001                     SPI_Tx@dato:
  1337                           	callstack 0
  1338   000001                     init_ADC@Puertos_ADC:
  1339                           	callstack 0
  1340   000001                     fputc@c:
  1341                           	callstack 0
  1342   000001                     ___xxtofl@val:
  1343                           	callstack 0
  1344   000001                     ??_clear_LCD:
  1345   000001                     
  1346                           ; 1 bytes @ 0x0
  1347   000001                     	ds	1
  1348   000002                     writeString_LCD@dato_LCD:
  1349                           	callstack 0
  1350   000002                     SPI_Init_Master@smp:
  1351                           	callstack 0
  1352   000002                     ??_set_Cursor_LCD:
  1353                           
  1354                           ; 1 bytes @ 0x1
  1355   000002                     	ds	1
  1356   000003                     set_Cursor_LCD@x:
  1357                           	callstack 0
  1358   000003                     SPI_Init_Master@reloj:
  1359                           	callstack 0
  1360   000003                     fputc@fp:
  1361                           	callstack 0
  1362   000003                     writeString_LCD@i:
  1363                           	callstack 0
  1364   000003                     ??_read_ADC:
  1365   000003                     
  1366                           ; 1 bytes @ 0x2
  1367   000003                     	ds	1
  1368   000004                     read_ADC@canal:
  1369                           	callstack 0
  1370   000004                     ??_fputc:
  1371   000004                     ??_init_LCD:
  1372                           
  1373                           ; 1 bytes @ 0x3
  1374   000004                     	ds	1
  1375   000005                     ??___xxtofl:
  1376                           
  1377                           ; 1 bytes @ 0x4
  1378   000005                     	ds	4
  1379   000009                     ___xxtofl@sign:
  1380                           	callstack 0
  1381   000009                     vfpfcnvrt@fp:
  1382                           	callstack 0
  1383                           
  1384                           ; 1 bytes @ 0x8
  1385   000009                     	ds	1
  1386   00000A                     ___xxtofl@exp:
  1387                           	callstack 0
  1388   00000A                     vfpfcnvrt@fmt:
  1389                           	callstack 0
  1390                           
  1391                           ; 1 bytes @ 0x9
  1392   00000A                     	ds	1
  1393   00000B                     vfpfcnvrt@ap:
  1394                           	callstack 0
  1395   00000B                     ___xxtofl@arg:
  1396                           	callstack 0
  1397                           
  1398                           ; 4 bytes @ 0xA
  1399   00000B                     	ds	1
  1400   00000C                     ?_vfprintf:
  1401                           	callstack 0
  1402   00000C                     vfprintf@fp:
  1403                           	callstack 0
  1404   00000C                     
  1405                           ; 1 bytes @ 0xB
  1406   00000C                     	ds	1
  1407   00000D                     vfprintf@fmt:
  1408                           	callstack 0
  1409                           
  1410                           ; 1 bytes @ 0xC
  1411   00000D                     	ds	1
  1412   00000E                     vfprintf@ap:
  1413                           	callstack 0
  1414                           
  1415                           ; 1 bytes @ 0xD
  1416   00000E                     	ds	1
  1417   00000F                     ?___flmul:
  1418                           	callstack 0
  1419   00000F                     vfprintf@cfmt:
  1420                           	callstack 0
  1421   00000F                     ___flmul@b:
  1422                           	callstack 0
  1423   00000F                     
  1424                           ; 1 bytes @ 0xE
  1425   00000F                     	ds	1
  1426   000010                     ?_sprintf:
  1427                           	callstack 0
  1428   000010                     sprintf@s:
  1429                           	callstack 0
  1430                           
  1431                           ; 1 bytes @ 0xF
  1432   000010                     	ds	1
  1433   000011                     sprintf@fmt:
  1434                           	callstack 0
  1435                           
  1436                           ; 1 bytes @ 0x10
  1437   000011                     	ds	1
  1438   000012                     sprintf@ap:
  1439                           	callstack 0
  1440   000012                     
  1441                           ; 1 bytes @ 0x11
  1442   000012                     	ds	1
  1443   000013                     ___flmul@a:
  1444                           	callstack 0
  1445   000013                     sprintf@f:
  1446                           	callstack 0
  1447                           
  1448                           ; 11 bytes @ 0x12
  1449   000013                     	ds	4
  1450   000017                     ??___flmul:
  1451                           
  1452                           ; 1 bytes @ 0x16
  1453   000017                     	ds	4
  1454   00001B                     ___flmul@sign:
  1455                           	callstack 0
  1456                           
  1457                           ; 1 bytes @ 0x1A
  1458   00001B                     	ds	1
  1459   00001C                     ___flmul@grs:
  1460                           	callstack 0
  1461                           
  1462                           ; 4 bytes @ 0x1B
  1463   00001C                     	ds	4
  1464   000020                     ___flmul@aexp:
  1465                           	callstack 0
  1466                           
  1467                           ; 1 bytes @ 0x1F
  1468   000020                     	ds	1
  1469   000021                     ___flmul@bexp:
  1470                           	callstack 0
  1471                           
  1472                           ; 1 bytes @ 0x20
  1473   000021                     	ds	1
  1474   000022                     ___flmul@prod:
  1475                           	callstack 0
  1476                           
  1477                           ; 4 bytes @ 0x21
  1478   000022                     	ds	4
  1479   000026                     ___flmul@temp:
  1480                           	callstack 0
  1481                           
  1482                           ; 2 bytes @ 0x25
  1483   000026                     	ds	2
  1484   000028                     ?___fladd:
  1485                           	callstack 0
  1486   000028                     ___fladd@b:
  1487                           	callstack 0
  1488                           
  1489                           ; 4 bytes @ 0x27
  1490   000028                     	ds	4
  1491   00002C                     ___fladd@a:
  1492                           	callstack 0
  1493                           
  1494                           ; 4 bytes @ 0x2B
  1495   00002C                     	ds	4
  1496   000030                     ??___fladd:
  1497                           
  1498                           ; 1 bytes @ 0x2F
  1499   000030                     	ds	4
  1500   000034                     ___fladd@signs:
  1501                           	callstack 0
  1502                           
  1503                           ; 1 bytes @ 0x33
  1504   000034                     	ds	1
  1505   000035                     ___fladd@aexp:
  1506                           	callstack 0
  1507                           
  1508                           ; 1 bytes @ 0x34
  1509   000035                     	ds	1
  1510   000036                     ___fladd@bexp:
  1511                           	callstack 0
  1512                           
  1513                           ; 1 bytes @ 0x35
  1514   000036                     	ds	1
  1515   000037                     ___fladd@grs:
  1516                           	callstack 0
  1517                           
  1518                           ; 1 bytes @ 0x36
  1519   000037                     	ds	1
  1520   000038                     ?___flsub:
  1521                           	callstack 0
  1522   000038                     ?___fltol:
  1523                           	callstack 0
  1524   000038                     ___fltol@f1:
  1525                           	callstack 0
  1526   000038                     ___flsub@b:
  1527                           	callstack 0
  1528                           
  1529                           ; 4 bytes @ 0x37
  1530   000038                     	ds	4
  1531   00003C                     ___flsub@a:
  1532                           	callstack 0
  1533   00003C                     ??___fltol:
  1534                           
  1535                           ; 1 bytes @ 0x3B
  1536   00003C                     	ds	4
  1537   000040                     ?___fldiv:
  1538                           	callstack 0
  1539   000040                     ___fltol@sign1:
  1540                           	callstack 0
  1541   000040                     ___fldiv@b:
  1542                           	callstack 0
  1543   000040                     
  1544                           ; 1 bytes @ 0x3F
  1545   000040                     	ds	1
  1546   000041                     ___fltol@exp1:
  1547                           	callstack 0
  1548                           
  1549                           ; 1 bytes @ 0x40
  1550   000041                     	ds	3
  1551   000044                     ___fldiv@a:
  1552                           	callstack 0
  1553                           
  1554                           ; 4 bytes @ 0x43
  1555   000044                     	ds	4
  1556   000048                     ??___fldiv:
  1557                           
  1558                           ; 1 bytes @ 0x47
  1559   000048                     	ds	4
  1560   00004C                     ___fldiv@rem:
  1561                           	callstack 0
  1562                           
  1563                           ; 4 bytes @ 0x4B
  1564   00004C                     	ds	4
  1565   000050                     ___fldiv@sign:
  1566                           	callstack 0
  1567                           
  1568                           ; 1 bytes @ 0x4F
  1569   000050                     	ds	1
  1570   000051                     ___fldiv@new_exp:
  1571                           	callstack 0
  1572                           
  1573                           ; 2 bytes @ 0x50
  1574   000051                     	ds	2
  1575   000053                     ___fldiv@grs:
  1576                           	callstack 0
  1577                           
  1578                           ; 4 bytes @ 0x52
  1579   000053                     	ds	4
  1580   000057                     ___fldiv@bexp:
  1581                           	callstack 0
  1582                           
  1583                           ; 1 bytes @ 0x56
  1584   000057                     	ds	1
  1585   000058                     ___fldiv@aexp:
  1586                           	callstack 0
  1587                           
  1588                           ; 1 bytes @ 0x57
  1589   000058                     	ds	1
  1590   000059                     ??_main:
  1591                           
  1592                           ; 1 bytes @ 0x58
  1593   000059                     	ds	2
  1594                           
  1595 ;;
  1596 ;;Main: autosize = 0, tempsize = 2, incstack = 0, save=0
  1597 ;;
  1598 ;; *************** function _main *****************
  1599 ;; Defined at:
  1600 ;;		line 32 in file "tx_main.c"
  1601 ;; Parameters:    Size  Location     Type
  1602 ;;		None
  1603 ;; Auto vars:     Size  Location     Type
  1604 ;;		None
  1605 ;; Return value:  Size  Location     Type
  1606 ;;                  1    wreg      void 
  1607 ;; Registers used:
  1608 ;;		wreg, fsr1l, fsr1h, fsr2l, fsr2h, status,2, status,0, tblptrl, tblptrh, tblptru, prodl, prodh, cstack
  1609 ;; Tracked objects:
  1610 ;;		On entry : 0/0
  1611 ;;		On exit  : 0/0
  1612 ;;		Unchanged: 0/0
  1613 ;; Data sizes:     COMRAM   BANK0   BANK1   BANK2   BANK3   BANK4   BANK5   BANK6   BANK7
  1614 ;;      Params:         0       0       0       0       0       0       0       0       0
  1615 ;;      Locals:         0       0       0       0       0       0       0       0       0
  1616 ;;      Temps:          2       0       0       0       0       0       0       0       0
  1617 ;;      Totals:         2       0       0       0       0       0       0       0       0
  1618 ;;Total ram usage:        2 bytes
  1619 ;; Hardware stack levels required when called: 6
  1620 ;; This function calls:
  1621 ;;		_PWM_Init
  1622 ;;		_PWM_Init_Ports
  1623 ;;		_SPI_Init_Master
  1624 ;;		_SPI_Tx
  1625 ;;		_clear_LCD
  1626 ;;		_init_ADC
  1627 ;;		_init_LCD
  1628 ;;		_mapping
  1629 ;;		_read_ADC
  1630 ;;		_set_Cursor_LCD
  1631 ;;		_sprintf
  1632 ;;		_writeString_LCD
  1633 ;; This function is called by:
  1634 ;;		Startup code after reset
  1635 ;; This function uses a non-reentrant model
  1636 ;;
  1637                           
  1638                           	psect	text0
  1639   00148A                     __ptext0:
  1640                           	callstack 0
  1641   00148A                     _main:
  1642                           	callstack 25
  1643   00148A                     
  1644                           ;tx_main.c: 34:     init_LCD();
  1645   00148A  ECFD  F00D         	call	_init_LCD	;wreg free
  1646   00148E                     
  1647                           ;tx_main.c: 35:     init_ADC(0X0D);
  1648   00148E  0E0D               	movlw	13
  1649   001490  ECB8  F00F         	call	_init_ADC
  1650   001494                     
  1651                           ;tx_main.c: 36:     init_LCD();
  1652   001494  ECFD  F00D         	call	_init_LCD	;wreg free
  1653                           
  1654                           ;tx_main.c: 37:     PWM_Init();
  1655   001498  EC8F  F00F         	call	_PWM_Init	;wreg free
  1656   00149C                     
  1657                           ;tx_main.c: 38:     PWM_Init_Ports();
  1658   00149C  ECC3  F00F         	call	_PWM_Init_Ports	;wreg free
  1659   0014A0                     
  1660                           ;tx_main.c: 39:     TRISBbits.RB1 = 0;
  1661   0014A0  9293               	bcf	147,1,c	;volatile
  1662   0014A2                     
  1663                           ;tx_main.c: 42:         sprintf(DATA_LCD,">> ROBOT ARM");
  1664   0014A2  0EB1               	movlw	low _DATA_LCD
  1665   0014A4  6E10               	movwf	sprintf@s^0,c
  1666   0014A6  0E0F               	movlw	low STR_1
  1667   0014A8  6E11               	movwf	sprintf@fmt^0,c
  1668   0014AA  EC64  F00F         	call	_sprintf	;wreg free
  1669   0014AE                     
  1670                           ;tx_main.c: 43:         set_Cursor_LCD(1,2);
  1671   0014AE  0E02               	movlw	2
  1672   0014B0  6E01               	movwf	set_Cursor_LCD@y^0,c
  1673   0014B2  0E01               	movlw	1
  1674   0014B4  EC39  F00E         	call	_set_Cursor_LCD
  1675   0014B8                     
  1676                           ;tx_main.c: 44:         writeString_LCD(DATA_LCD);
  1677   0014B8  0EB1               	movlw	low _DATA_LCD
  1678   0014BA  6E02               	movwf	writeString_LCD@dato_LCD^0,c
  1679   0014BC  EC48  F00F         	call	_writeString_LCD	;wreg free
  1680   0014C0                     
  1681                           ;tx_main.c: 45:         sprintf(DATA_LCD,"CONTROLLER <<");
  1682   0014C0  0EB1               	movlw	low _DATA_LCD
  1683   0014C2  6E10               	movwf	sprintf@s^0,c
  1684   0014C4  0E01               	movlw	low STR_2
  1685   0014C6  6E11               	movwf	sprintf@fmt^0,c
  1686   0014C8  EC64  F00F         	call	_sprintf	;wreg free
  1687   0014CC                     
  1688                           ;tx_main.c: 46:         set_Cursor_LCD(2,1);
  1689   0014CC  0E01               	movlw	1
  1690   0014CE  6E01               	movwf	set_Cursor_LCD@y^0,c
  1691   0014D0  0E02               	movlw	2
  1692   0014D2  EC39  F00E         	call	_set_Cursor_LCD
  1693   0014D6                     
  1694                           ;tx_main.c: 47:         writeString_LCD(DATA_LCD);
  1695   0014D6  0EB1               	movlw	low _DATA_LCD
  1696   0014D8  6E02               	movwf	writeString_LCD@dato_LCD^0,c
  1697   0014DA  EC48  F00F         	call	_writeString_LCD	;wreg free
  1698   0014DE                     
  1699                           ;tx_main.c: 48:         _delay((unsigned long)((1000)*(48000000UL/4000.0)));
  1700   0014DE  0E3D               	movlw	61
  1701   0014E0  6E5A               	movwf	(??_main+1)^0,c
  1702   0014E2  0EE1               	movlw	225
  1703   0014E4  6E59               	movwf	??_main^0,c
  1704   0014E6  0E40               	movlw	64
  1705   0014E8                     u2437:
  1706   0014E8  2EE8               	decfsz	wreg,f,c
  1707   0014EA  D7FE               	bra	u2437
  1708   0014EC  2E59               	decfsz	??_main^0,f,c
  1709   0014EE  D7FC               	bra	u2437
  1710   0014F0  2E5A               	decfsz	(??_main+1)^0,f,c
  1711   0014F2  D7FA               	bra	u2437
  1712   0014F4                     
  1713                           ;tx_main.c: 49:         clear_LCD();
  1714   0014F4  ECA0  F00F         	call	_clear_LCD	;wreg free
  1715   0014F8                     
  1716                           ;tx_main.c: 52:     SPI_Init_Master(0, '1', 0);
  1717   0014F8  0E31               	movlw	49
  1718   0014FA  6E01               	movwf	SPI_Init_Master@modo^0,c
  1719   0014FC  0E00               	movlw	0
  1720   0014FE  6E02               	movwf	SPI_Init_Master@smp^0,c
  1721   001500  0E00               	movlw	0
  1722   001502  ECB8  F00D         	call	_SPI_Init_Master
  1723   001506                     
  1724                           ;tx_main.c: 53:     _delay((unsigned long)((100)*(48000000UL/4000.0)));
  1725   001506  0E07               	movlw	7
  1726   001508  6E5A               	movwf	(??_main+1)^0,c
  1727   00150A  0E17               	movlw	23
  1728   00150C  6E59               	movwf	??_main^0,c
  1729   00150E  0E6A               	movlw	106
  1730   001510                     u2447:
  1731   001510  2EE8               	decfsz	wreg,f,c
  1732   001512  D7FE               	bra	u2447
  1733   001514  2E59               	decfsz	??_main^0,f,c
  1734   001516  D7FC               	bra	u2447
  1735   001518  2E5A               	decfsz	(??_main+1)^0,f,c
  1736   00151A  D7FA               	bra	u2447
  1737   00151C  D000               	nop2	
  1738   00151E                     l2616:
  1739                           
  1740                           ;tx_main.c: 56:         dof1 = read_ADC(0);
  1741   00151E  0E00               	movlw	0
  1742   001520  ECDE  F00E         	call	_read_ADC
  1743   001524  C001  F0AC         	movff	?_read_ADC,_dof1
  1744   001528  C002  F0AD         	movff	?_read_ADC+1,_dof1+1
  1745   00152C                     
  1746                           ;tx_main.c: 57:         dof2 = read_ADC(1);
  1747   00152C  0E01               	movlw	1
  1748   00152E  ECDE  F00E         	call	_read_ADC
  1749   001532  C001  F0A8         	movff	?_read_ADC,_dof2
  1750   001536  C002  F0A9         	movff	?_read_ADC+1,_dof2+1
  1751   00153A                     
  1752                           ;tx_main.c: 59:         z = mapping(0,1023,-250,250,dof1);
  1753   00153A  0E00               	movlw	0
  1754   00153C  0100               	movlb	0	; () banked
  1755   00153E  6FC1               	movwf	mapping@min_in& (0+255),b
  1756   001540  0E00               	movlw	0
  1757   001542  6FC2               	movwf	(mapping@min_in+1)& (0+255),b
  1758   001544  0E00               	movlw	0
  1759   001546  6FC3               	movwf	(mapping@min_in+2)& (0+255),b
  1760   001548  0E00               	movlw	0
  1761   00154A  6FC4               	movwf	(mapping@min_in+3)& (0+255),b
  1762   00154C  0E00               	movlw	0
  1763   00154E  6FC5               	movwf	mapping@max_in& (0+255),b
  1764   001550  0EC0               	movlw	192
  1765   001552  6FC6               	movwf	(mapping@max_in+1)& (0+255),b
  1766   001554  0E7F               	movlw	127
  1767   001556  6FC7               	movwf	(mapping@max_in+2)& (0+255),b
  1768   001558  0E44               	movlw	68
  1769   00155A  6FC8               	movwf	(mapping@max_in+3)& (0+255),b
  1770   00155C  0E00               	movlw	0
  1771   00155E  6FC9               	movwf	mapping@min_out& (0+255),b
  1772   001560  0E00               	movlw	0
  1773   001562  6FCA               	movwf	(mapping@min_out+1)& (0+255),b
  1774   001564  0E7A               	movlw	122
  1775   001566  6FCB               	movwf	(mapping@min_out+2)& (0+255),b
  1776   001568  0EC3               	movlw	195
  1777   00156A  6FCC               	movwf	(mapping@min_out+3)& (0+255),b
  1778   00156C  0E00               	movlw	0
  1779   00156E  6FCD               	movwf	mapping@max_out& (0+255),b
  1780   001570  0E00               	movlw	0
  1781   001572  6FCE               	movwf	(mapping@max_out+1)& (0+255),b
  1782   001574  0E7A               	movlw	122
  1783   001576  6FCF               	movwf	(mapping@max_out+2)& (0+255),b
  1784   001578  0E43               	movlw	67
  1785   00157A  6FD0               	movwf	(mapping@max_out+3)& (0+255),b
  1786   00157C  C0AC  F0D1         	movff	_dof1,mapping@read
  1787   001580  C0AD  F0D2         	movff	_dof1+1,mapping@read+1
  1788   001584  EC33  F00C         	call	_mapping	;wreg free
  1789   001588  C0C1  F05D         	movff	?_mapping,_z
  1790   00158C  C0C2  F05E         	movff	?_mapping+1,_z+1
  1791   001590                     
  1792                           ;tx_main.c: 60:         x = mapping(0,1023,-250,250,dof2);
  1793   001590  0E00               	movlw	0
  1794   001592  0100               	movlb	0	; () banked
  1795   001594  6FC1               	movwf	mapping@min_in& (0+255),b
  1796   001596  0E00               	movlw	0
  1797   001598  6FC2               	movwf	(mapping@min_in+1)& (0+255),b
  1798   00159A  0E00               	movlw	0
  1799   00159C  6FC3               	movwf	(mapping@min_in+2)& (0+255),b
  1800   00159E  0E00               	movlw	0
  1801   0015A0  6FC4               	movwf	(mapping@min_in+3)& (0+255),b
  1802   0015A2  0E00               	movlw	0
  1803   0015A4  6FC5               	movwf	mapping@max_in& (0+255),b
  1804   0015A6  0EC0               	movlw	192
  1805   0015A8  6FC6               	movwf	(mapping@max_in+1)& (0+255),b
  1806   0015AA  0E7F               	movlw	127
  1807   0015AC  6FC7               	movwf	(mapping@max_in+2)& (0+255),b
  1808   0015AE  0E44               	movlw	68
  1809   0015B0  6FC8               	movwf	(mapping@max_in+3)& (0+255),b
  1810   0015B2  0E00               	movlw	0
  1811   0015B4  6FC9               	movwf	mapping@min_out& (0+255),b
  1812   0015B6  0E00               	movlw	0
  1813   0015B8  6FCA               	movwf	(mapping@min_out+1)& (0+255),b
  1814   0015BA  0E7A               	movlw	122
  1815   0015BC  6FCB               	movwf	(mapping@min_out+2)& (0+255),b
  1816   0015BE  0EC3               	movlw	195
  1817   0015C0  6FCC               	movwf	(mapping@min_out+3)& (0+255),b
  1818   0015C2  0E00               	movlw	0
  1819   0015C4  6FCD               	movwf	mapping@max_out& (0+255),b
  1820   0015C6  0E00               	movlw	0
  1821   0015C8  6FCE               	movwf	(mapping@max_out+1)& (0+255),b
  1822   0015CA  0E7A               	movlw	122
  1823   0015CC  6FCF               	movwf	(mapping@max_out+2)& (0+255),b
  1824   0015CE  0E43               	movlw	67
  1825   0015D0  6FD0               	movwf	(mapping@max_out+3)& (0+255),b
  1826   0015D2  C0A8  F0D1         	movff	_dof2,mapping@read
  1827   0015D6  C0A9  F0D2         	movff	_dof2+1,mapping@read+1
  1828   0015DA  EC33  F00C         	call	_mapping	;wreg free
  1829   0015DE  C0C1  F0AA         	movff	?_mapping,_x
  1830   0015E2  C0C2  F0AB         	movff	?_mapping+1,_x+1
  1831                           
  1832                           ;tx_main.c: 62:         z = (z < 30 && z > -30) ? (z = 0) : (z = z);
  1833   0015E6  BE5E               	btfsc	(_z+1)^0,7,c
  1834   0015E8  EF01  F00B         	goto	u2360
  1835   0015EC  505E               	movf	(_z+1)^0,w,c
  1836   0015EE  E107               	bnz	u2361
  1837   0015F0  0E1E               	movlw	30
  1838   0015F2  5C5D               	subwf	_z^0,w,c
  1839   0015F4  B0D8               	btfsc	status,0,c
  1840   0015F6  EFFF  F00A         	goto	u2361
  1841   0015FA  EF01  F00B         	goto	u2360
  1842   0015FE                     u2361:
  1843   0015FE  EF19  F00B         	goto	l2628
  1844   001602                     u2360:
  1845   001602  AE5E               	btfss	(_z+1)^0,7,c
  1846   001604  EF0D  F00B         	goto	u2371
  1847   001608  0EE3               	movlw	227
  1848   00160A  5C5D               	subwf	_z^0,w,c
  1849   00160C  0EFF               	movlw	255
  1850   00160E  585E               	subwfb	(_z+1)^0,w,c
  1851   001610  B0D8               	btfsc	status,0,c
  1852   001612  EF0D  F00B         	goto	u2371
  1853   001616  EF0F  F00B         	goto	u2370
  1854   00161A                     u2371:
  1855   00161A  EF11  F00B         	goto	l2626
  1856   00161E                     u2370:
  1857   00161E  EF19  F00B         	goto	l2628
  1858   001622                     l2626:
  1859   001622  0E00               	movlw	0
  1860   001624  6E5E               	movwf	(_z+1)^0,c
  1861   001626  0E00               	movlw	0
  1862   001628  6E5D               	movwf	_z^0,c
  1863   00162A  C05D  F05D         	movff	_z,_z
  1864   00162E  C05E  F05E         	movff	_z+1,_z+1
  1865   001632                     l2628:
  1866                           
  1867                           ;tx_main.c: 63:         x = (x < 30 && x > -30) ? (x = 0) : (x = x);
  1868   001632  0100               	movlb	0	; () banked
  1869   001634  BFAB               	btfsc	(_x+1)& (0+255),7,b
  1870   001636  EF28  F00B         	goto	u2380
  1871   00163A  51AB               	movf	(_x+1)& (0+255),w,b
  1872   00163C  E107               	bnz	u2381
  1873   00163E  0E1E               	movlw	30
  1874   001640  5DAA               	subwf	_x& (0+255),w,b
  1875   001642  B0D8               	btfsc	status,0,c
  1876   001644  EF26  F00B         	goto	u2381
  1877   001648  EF28  F00B         	goto	u2380
  1878   00164C                     u2381:
  1879   00164C  EF40  F00B         	goto	l2634
  1880   001650                     u2380:
  1881   001650                     
  1882                           ; BSR set to: 0
  1883   001650  AFAB               	btfss	(_x+1)& (0+255),7,b
  1884   001652  EF34  F00B         	goto	u2391
  1885   001656  0EE3               	movlw	227
  1886   001658  5DAA               	subwf	_x& (0+255),w,b
  1887   00165A  0EFF               	movlw	255
  1888   00165C  59AB               	subwfb	(_x+1)& (0+255),w,b
  1889   00165E  B0D8               	btfsc	status,0,c
  1890   001660  EF34  F00B         	goto	u2391
  1891   001664  EF36  F00B         	goto	u2390
  1892   001668                     u2391:
  1893   001668  EF38  F00B         	goto	l2632
  1894   00166C                     u2390:
  1895   00166C  EF40  F00B         	goto	l2634
  1896   001670                     l2632:
  1897                           
  1898                           ; BSR set to: 0
  1899   001670  0E00               	movlw	0
  1900   001672  6FAB               	movwf	(_x+1)& (0+255),b
  1901   001674  0E00               	movlw	0
  1902   001676  6FAA               	movwf	_x& (0+255),b
  1903   001678  C0AA  F0AA         	movff	_x,_x
  1904   00167C  C0AB  F0AB         	movff	_x+1,_x+1
  1905   001680                     l2634:
  1906                           
  1907                           ; BSR set to: 0
  1908                           ;tx_main.c: 67:         LATAbits.LA5 = 0;
  1909   001680  9A89               	bcf	137,5,c	;volatile
  1910   001682                     
  1911                           ; BSR set to: 0
  1912                           ;tx_main.c: 68:         SPI_Tx(z);
  1913   001682  505D               	movf	_z^0,w,c
  1914   001684  ECBF  F00F         	call	_SPI_Tx
  1915   001688                     
  1916                           ;tx_main.c: 69:         _delay((unsigned long)((5)*(48000000UL/4000.0)));
  1917   001688  0E4E               	movlw	78
  1918   00168A  6E59               	movwf	??_main^0,c
  1919   00168C  0EEB               	movlw	235
  1920   00168E                     u2457:
  1921   00168E  2EE8               	decfsz	wreg,f,c
  1922   001690  D7FE               	bra	u2457
  1923   001692  2E59               	decfsz	??_main^0,f,c
  1924   001694  D7FC               	bra	u2457
  1925   001696  0000               	nop	
  1926   001698                     
  1927                           ;tx_main.c: 70:         LATAbits.LA5 = 1;
  1928   001698  8A89               	bsf	137,5,c	;volatile
  1929   00169A                     
  1930                           ;tx_main.c: 71:         _delay((unsigned long)((5)*(48000000UL/4000.0)));
  1931   00169A  0E4E               	movlw	78
  1932   00169C  6E59               	movwf	??_main^0,c
  1933   00169E  0EEB               	movlw	235
  1934   0016A0                     u2467:
  1935   0016A0  2EE8               	decfsz	wreg,f,c
  1936   0016A2  D7FE               	bra	u2467
  1937   0016A4  2E59               	decfsz	??_main^0,f,c
  1938   0016A6  D7FC               	bra	u2467
  1939   0016A8  0000               	nop	
  1940   0016AA  EF8F  F00A         	goto	l2616
  1941   0016AE  EF07  F000         	goto	start
  1942   0016B2                     __end_of_main:
  1943                           	callstack 0
  1944                           
  1945 ;; *************** function _writeString_LCD *****************
  1946 ;; Defined at:
  1947 ;;		line 62 in file "lcd_lib.c"
  1948 ;; Parameters:    Size  Location     Type
  1949 ;;  dato_LCD        1    1[COMRAM] PTR const unsigned char 
  1950 ;;		 -> DATA_LCD(16), 
  1951 ;; Auto vars:     Size  Location     Type
  1952 ;;  i               2    2[COMRAM] int 
  1953 ;; Return value:  Size  Location     Type
  1954 ;;                  1    wreg      void 
  1955 ;; Registers used:
  1956 ;;		wreg, fsr2l, fsr2h, status,2, status,0, cstack
  1957 ;; Tracked objects:
  1958 ;;		On entry : 0/0
  1959 ;;		On exit  : 0/0
  1960 ;;		Unchanged: 0/0
  1961 ;; Data sizes:     COMRAM   BANK0   BANK1   BANK2   BANK3   BANK4   BANK5   BANK6   BANK7
  1962 ;;      Params:         1       0       0       0       0       0       0       0       0
  1963 ;;      Locals:         2       0       0       0       0       0       0       0       0
  1964 ;;      Temps:          0       0       0       0       0       0       0       0       0
  1965 ;;      Totals:         3       0       0       0       0       0       0       0       0
  1966 ;;Total ram usage:        3 bytes
  1967 ;; Hardware stack levels used: 1
  1968 ;; Hardware stack levels required when called: 2
  1969 ;; This function calls:
  1970 ;;		_writeChar_LCD
  1971 ;; This function is called by:
  1972 ;;		_main
  1973 ;; This function uses a non-reentrant model
  1974 ;;
  1975                           
  1976                           	psect	text1
  1977   001E90                     __ptext1:
  1978                           	callstack 0
  1979   001E90                     _writeString_LCD:
  1980                           	callstack 28
  1981   001E90                     
  1982                           ;lcd_lib.c: 64:     for(int i = 0; dato_LCD[i]!='\0';i++){
  1983   001E90  0E00               	movlw	0
  1984   001E92  6E04               	movwf	(writeString_LCD@i+1)^0,c
  1985   001E94  0E00               	movlw	0
  1986   001E96  6E03               	movwf	writeString_LCD@i^0,c
  1987   001E98  EF57  F00F         	goto	l2496
  1988   001E9C                     l2492:
  1989                           
  1990                           ;lcd_lib.c: 65:         writeChar_LCD(dato_LCD[i]);
  1991   001E9C  5002               	movf	writeString_LCD@dato_LCD^0,w,c
  1992   001E9E  2403               	addwf	writeString_LCD@i^0,w,c
  1993   001EA0  6ED9               	movwf	fsr2l,c
  1994   001EA2  6ADA               	clrf	fsr2h,c
  1995   001EA4  50DF               	movf	indf2,w,c
  1996   001EA6  ECAE  F00F         	call	_writeChar_LCD
  1997   001EAA                     
  1998                           ;lcd_lib.c: 66:     }
  1999   001EAA  4A03               	infsnz	writeString_LCD@i^0,f,c
  2000   001EAC  2A04               	incf	(writeString_LCD@i+1)^0,f,c
  2001   001EAE                     l2496:
  2002   001EAE  5002               	movf	writeString_LCD@dato_LCD^0,w,c
  2003   001EB0  2403               	addwf	writeString_LCD@i^0,w,c
  2004   001EB2  6ED9               	movwf	fsr2l,c
  2005   001EB4  6ADA               	clrf	fsr2h,c
  2006   001EB6  50DF               	movf	indf2,w,c
  2007   001EB8  A4D8               	btfss	status,2,c
  2008   001EBA  EF61  F00F         	goto	u2281
  2009   001EBE  EF63  F00F         	goto	u2280
  2010   001EC2                     u2281:
  2011   001EC2  EF4E  F00F         	goto	l2492
  2012   001EC6                     u2280:
  2013   001EC6  0012               	return		;funcret
  2014   001EC8                     __end_of_writeString_LCD:
  2015                           	callstack 0
  2016                           
  2017 ;; *************** function _writeChar_LCD *****************
  2018 ;; Defined at:
  2019 ;;		line 52 in file "lcd_lib.c"
  2020 ;; Parameters:    Size  Location     Type
  2021 ;;  dato_LCD        1    wreg     unsigned char 
  2022 ;; Auto vars:     Size  Location     Type
  2023 ;;  dato_LCD        1    0[COMRAM] unsigned char 
  2024 ;; Return value:  Size  Location     Type
  2025 ;;                  1    wreg      void 
  2026 ;; Registers used:
  2027 ;;		wreg, status,2, cstack
  2028 ;; Tracked objects:
  2029 ;;		On entry : 0/0
  2030 ;;		On exit  : 0/0
  2031 ;;		Unchanged: 0/0
  2032 ;; Data sizes:     COMRAM   BANK0   BANK1   BANK2   BANK3   BANK4   BANK5   BANK6   BANK7
  2033 ;;      Params:         0       0       0       0       0       0       0       0       0
  2034 ;;      Locals:         1       0       0       0       0       0       0       0       0
  2035 ;;      Temps:          0       0       0       0       0       0       0       0       0
  2036 ;;      Totals:         1       0       0       0       0       0       0       0       0
  2037 ;;Total ram usage:        1 bytes
  2038 ;; Hardware stack levels used: 1
  2039 ;; Hardware stack levels required when called: 1
  2040 ;; This function calls:
  2041 ;;		Nothing
  2042 ;; This function is called by:
  2043 ;;		_writeString_LCD
  2044 ;; This function uses a non-reentrant model
  2045 ;;
  2046                           
  2047                           	psect	text2
  2048   001F5C                     __ptext2:
  2049                           	callstack 0
  2050   001F5C                     _writeChar_LCD:
  2051                           	callstack 28
  2052                           
  2053                           ;incstack = 0
  2054                           ;writeChar_LCD@dato_LCD stored from wreg
  2055   001F5C  6E01               	movwf	writeChar_LCD@dato_LCD^0,c
  2056   001F5E                     
  2057                           ;lcd_lib.c: 54:     LATBbits.LB3 = 1;
  2058   001F5E  868A               	bsf	138,3,c	;volatile
  2059   001F60                     
  2060                           ;lcd_lib.c: 55:     LATD = dato_LCD;
  2061   001F60  C001  FF8C         	movff	writeChar_LCD@dato_LCD,3980	;volatile
  2062   001F64                     
  2063                           ;lcd_lib.c: 56:     LATBbits.LB4 = 1;
  2064   001F64  888A               	bsf	138,4,c	;volatile
  2065   001F66                     
  2066                           ;lcd_lib.c: 57:     _delay((unsigned long)((50)*(48000000UL/4000000.0)));
  2067   001F66  0EC8               	movlw	200
  2068   001F68                     u2477:
  2069   001F68  2EE8               	decfsz	wreg,f,c
  2070   001F6A  D7FE               	bra	u2477
  2071   001F6C                     
  2072                           ;lcd_lib.c: 58:     LATBbits.LB4 = 0;
  2073   001F6C  988A               	bcf	138,4,c	;volatile
  2074   001F6E  0012               	return		;funcret
  2075   001F70                     __end_of_writeChar_LCD:
  2076                           	callstack 0
  2077                           
  2078 ;; *************** function _sprintf *****************
  2079 ;; Defined at:
  2080 ;;		line 9 in file "C:\Program Files\Microchip\xc8\v2.50\pic\sources\c99\common\nf_sprintf.c"
  2081 ;; Parameters:    Size  Location     Type
  2082 ;;  s               1   15[COMRAM] PTR unsigned char 
  2083 ;;		 -> DATA_LCD(16), 
  2084 ;;  fmt             1   16[COMRAM] PTR const unsigned char 
  2085 ;;		 -> STR_2(14), STR_1(13), 
  2086 ;; Auto vars:     Size  Location     Type
  2087 ;;  f              11   18[COMRAM] struct _IO_FILE
  2088 ;;  ret             2    0        int 
  2089 ;;  ap              1   17[COMRAM] PTR void [1]
  2090 ;;		 -> ?_sprintf(2), 
  2091 ;; Return value:  Size  Location     Type
  2092 ;;                  2   15[COMRAM] int 
  2093 ;; Registers used:
  2094 ;;		wreg, fsr1l, fsr1h, fsr2l, fsr2h, status,2, status,0, tblptrl, tblptrh, tblptru, cstack
  2095 ;; Tracked objects:
  2096 ;;		On entry : 0/0
  2097 ;;		On exit  : 0/0
  2098 ;;		Unchanged: 0/0
  2099 ;; Data sizes:     COMRAM   BANK0   BANK1   BANK2   BANK3   BANK4   BANK5   BANK6   BANK7
  2100 ;;      Params:         2       0       0       0       0       0       0       0       0
  2101 ;;      Locals:        12       0       0       0       0       0       0       0       0
  2102 ;;      Temps:          0       0       0       0       0       0       0       0       0
  2103 ;;      Totals:        14       0       0       0       0       0       0       0       0
  2104 ;;Total ram usage:       14 bytes
  2105 ;; Hardware stack levels used: 1
  2106 ;; Hardware stack levels required when called: 5
  2107 ;; This function calls:
  2108 ;;		_vfprintf
  2109 ;; This function is called by:
  2110 ;;		_main
  2111 ;; This function uses a non-reentrant model
  2112 ;;
  2113                           
  2114                           	psect	text3
  2115   001EC8                     __ptext3:
  2116                           	callstack 0
  2117   001EC8                     _sprintf:
  2118                           	callstack 25
  2119   001EC8  0E12               	movlw	low (?_sprintf+2)
  2120   001ECA  6E12               	movwf	sprintf@ap^0,c
  2121   001ECC  C010  F013         	movff	sprintf@s,sprintf@f
  2122   001ED0  0E00               	movlw	0
  2123   001ED2  6E16               	movwf	(sprintf@f+3)^0,c
  2124   001ED4  0E00               	movlw	0
  2125   001ED6  6E15               	movwf	(sprintf@f+2)^0,c
  2126   001ED8  0E00               	movlw	0
  2127   001EDA  6E1D               	movwf	(sprintf@f+10)^0,c
  2128   001EDC  0E00               	movlw	0
  2129   001EDE  6E1C               	movwf	(sprintf@f+9)^0,c
  2130   001EE0  0E13               	movlw	low sprintf@f
  2131   001EE2  6E0C               	movwf	vfprintf@fp^0,c
  2132   001EE4  C011  F00D         	movff	sprintf@fmt,vfprintf@fmt
  2133   001EE8  0E12               	movlw	low sprintf@ap
  2134   001EEA  6E0E               	movwf	vfprintf@ap^0,c
  2135   001EEC  EC29  F00F         	call	_vfprintf	;wreg free
  2136   001EF0  5010               	movf	sprintf@s^0,w,c
  2137   001EF2  2415               	addwf	(sprintf@f+2)^0,w,c
  2138   001EF4  6ED9               	movwf	fsr2l,c
  2139   001EF6  6ADA               	clrf	fsr2h,c
  2140   001EF8  6ADF               	clrf	indf2,c
  2141   001EFA  0012               	return		;funcret
  2142   001EFC                     __end_of_sprintf:
  2143                           	callstack 0
  2144                           
  2145 ;; *************** function _vfprintf *****************
  2146 ;; Defined at:
  2147 ;;		line 1817 in file "C:\Program Files\Microchip\xc8\v2.50\pic\sources\c99\common\doprnt.c"
  2148 ;; Parameters:    Size  Location     Type
  2149 ;;  fp              1   11[COMRAM] PTR struct _IO_FILE
  2150 ;;		 -> sprintf@f(11), 
  2151 ;;  fmt             1   12[COMRAM] PTR const unsigned char 
  2152 ;;		 -> STR_2(14), STR_1(13), 
  2153 ;;  ap              1   13[COMRAM] PTR PTR void 
  2154 ;;		 -> sprintf@ap(1), 
  2155 ;; Auto vars:     Size  Location     Type
  2156 ;;  cfmt            1   14[COMRAM] PTR unsigned char 
  2157 ;;		 -> STR_2(14), STR_1(13), 
  2158 ;; Return value:  Size  Location     Type
  2159 ;;                  2   11[COMRAM] int 
  2160 ;; Registers used:
  2161 ;;		wreg, fsr1l, fsr1h, fsr2l, fsr2h, status,2, status,0, tblptrl, tblptrh, tblptru, cstack
  2162 ;; Tracked objects:
  2163 ;;		On entry : 0/0
  2164 ;;		On exit  : 0/0
  2165 ;;		Unchanged: 0/0
  2166 ;; Data sizes:     COMRAM   BANK0   BANK1   BANK2   BANK3   BANK4   BANK5   BANK6   BANK7
  2167 ;;      Params:         3       0       0       0       0       0       0       0       0
  2168 ;;      Locals:         1       0       0       0       0       0       0       0       0
  2169 ;;      Temps:          0       0       0       0       0       0       0       0       0
  2170 ;;      Totals:         4       0       0       0       0       0       0       0       0
  2171 ;;Total ram usage:        4 bytes
  2172 ;; Hardware stack levels used: 1
  2173 ;; Hardware stack levels required when called: 4
  2174 ;; This function calls:
  2175 ;;		_vfpfcnvrt
  2176 ;; This function is called by:
  2177 ;;		_sprintf
  2178 ;; This function uses a non-reentrant model
  2179 ;;
  2180                           
  2181                           	psect	text4
  2182   001E52                     __ptext4:
  2183                           	callstack 0
  2184   001E52                     _vfprintf:
  2185                           	callstack 25
  2186   001E52                     
  2187                           ;C:\Program Files\Microchip\xc8\v2.50\pic\sources\c99\common\doprnt.c: 1817: int vfprint
      +                          f(FILE *fp, const char *fmt, va_list ap);C:\Program Files\Microchip\xc8\v2.50\pic\source
      +                          s\c99\common\doprnt.c: 1818: {;C:\Program Files\Microchip\xc8\v2.50\pic\sources\c99\comm
      +                          on\doprnt.c: 1820:     char *cfmt;;C:\Program Files\Microchip\xc8\v2.50\pic\sources\c99\
      +                          common\doprnt.c: 1822:     cfmt = (char *)fmt;
  2188   001E52  C00D  F00F         	movff	vfprintf@fmt,vfprintf@cfmt
  2189                           
  2190                           ;C:\Program Files\Microchip\xc8\v2.50\pic\sources\c99\common\doprnt.c: 1826:     while (
      +                          *cfmt) {
  2191   001E56  EF35  F00F         	goto	l2456
  2192   001E5A                     l2454:
  2193                           
  2194                           ;C:\Program Files\Microchip\xc8\v2.50\pic\sources\c99\common\doprnt.c: 1830:    vfpfcnvr
      +                          t(fp, &cfmt, ap);
  2195   001E5A  C00C  F009         	movff	vfprintf@fp,vfpfcnvrt@fp
  2196   001E5E  0E0F               	movlw	low vfprintf@cfmt
  2197   001E60  6E0A               	movwf	vfpfcnvrt@fmt^0,c
  2198   001E62  C00E  F00B         	movff	vfprintf@ap,vfpfcnvrt@ap
  2199   001E66  EC75  F00E         	call	_vfpfcnvrt	;wreg free
  2200   001E6A                     l2456:
  2201                           
  2202                           ;C:\Program Files\Microchip\xc8\v2.50\pic\sources\c99\common\doprnt.c: 1826:     while (
      +                          *cfmt) {
  2203   001E6A  C00F  FFF6         	movff	vfprintf@cfmt,tblptrl
  2204   001E6E                     	if	1	;There is more than 1 active tblptr byte
  2205   001E6E  0E08               	movlw	high __smallconst
  2206   001E70  6EF7               	movwf	tblptrh,c
  2207   001E72                     	endif
  2208   001E72                     	if	0	;tblptru may be non-zero
  2209   001E72                     	endif
  2210   001E72                     	if	0	;tblptru may be non-zero
  2211   001E72                     	endif
  2212   001E72  0008               	tblrd		*
  2213   001E74  50F5               	movf	tablat,w,c
  2214   001E76  0900               	iorlw	0
  2215   001E78  A4D8               	btfss	status,2,c
  2216   001E7A  EF41  F00F         	goto	u2271
  2217   001E7E  EF43  F00F         	goto	u2270
  2218   001E82                     u2271:
  2219   001E82  EF2D  F00F         	goto	l2454
  2220   001E86                     u2270:
  2221   001E86                     
  2222                           ;C:\Program Files\Microchip\xc8\v2.50\pic\sources\c99\common\doprnt.c: 1835:  return 0;
  2223   001E86  0E00               	movlw	0
  2224   001E88  6E0D               	movwf	(?_vfprintf+1)^0,c
  2225   001E8A  0E00               	movlw	0
  2226   001E8C  6E0C               	movwf	?_vfprintf^0,c
  2227   001E8E  0012               	return		;funcret
  2228   001E90                     __end_of_vfprintf:
  2229                           	callstack 0
  2230                           
  2231 ;; *************** function _vfpfcnvrt *****************
  2232 ;; Defined at:
  2233 ;;		line 1177 in file "C:\Program Files\Microchip\xc8\v2.50\pic\sources\c99\common\doprnt.c"
  2234 ;; Parameters:    Size  Location     Type
  2235 ;;  fp              1    8[COMRAM] PTR struct _IO_FILE
  2236 ;;		 -> sprintf@f(11), 
  2237 ;;  fmt             1    9[COMRAM] PTR PTR unsigned char 
  2238 ;;		 -> vfprintf@cfmt(1), 
  2239 ;;  ap              1   10[COMRAM] PTR PTR void 
  2240 ;;		 -> sprintf@ap(1), 
  2241 ;; Auto vars:     Size  Location     Type
  2242 ;;  cp              2    0        PTR unsigned char 
  2243 ;;  done            1    0        _Bool 
  2244 ;;  c               1    0        unsigned char 
  2245 ;; Return value:  Size  Location     Type
  2246 ;;                  1    wreg      void 
  2247 ;; Registers used:
  2248 ;;		wreg, fsr1l, fsr1h, fsr2l, fsr2h, status,2, status,0, tblptrl, tblptrh, tblptru, cstack
  2249 ;; Tracked objects:
  2250 ;;		On entry : 0/0
  2251 ;;		On exit  : 0/0
  2252 ;;		Unchanged: 0/0
  2253 ;; Data sizes:     COMRAM   BANK0   BANK1   BANK2   BANK3   BANK4   BANK5   BANK6   BANK7
  2254 ;;      Params:         3       0       0       0       0       0       0       0       0
  2255 ;;      Locals:         0       0       0       0       0       0       0       0       0
  2256 ;;      Temps:          0       0       0       0       0       0       0       0       0
  2257 ;;      Totals:         3       0       0       0       0       0       0       0       0
  2258 ;;Total ram usage:        3 bytes
  2259 ;; Hardware stack levels used: 1
  2260 ;; Hardware stack levels required when called: 3
  2261 ;; This function calls:
  2262 ;;		_fputc
  2263 ;; This function is called by:
  2264 ;;		_vfprintf
  2265 ;; This function uses a non-reentrant model
  2266 ;;
  2267                           
  2268                           	psect	text5
  2269   001CEA                     __ptext5:
  2270                           	callstack 0
  2271   001CEA                     _vfpfcnvrt:
  2272                           	callstack 25
  2273   001CEA                     
  2274                           ;C:\Program Files\Microchip\xc8\v2.50\pic\sources\c99\common\doprnt.c: 1177: vfpfcnvrt(F
      +                          ILE *fp, char *fmt[], va_list ap);C:\Program Files\Microchip\xc8\v2.50\pic\sources\c99\c
      +                          ommon\doprnt.c: 1178: {;C:\Program Files\Microchip\xc8\v2.50\pic\sources\c99\common\dopr
      +                          nt.c: 1179:     char c, *cp;;C:\Program Files\Microchip\xc8\v2.50\pic\sources\c99\common
      +                          \doprnt.c: 1180:     _Bool done;;C:\Program Files\Microchip\xc8\v2.50\pic\sources\c99\co
      +                          mmon\doprnt.c: 1201:     if ((*fmt)[0] == '%') {
  2275   001CEA  500A               	movf	vfpfcnvrt@fmt^0,w,c
  2276   001CEC  6ED9               	movwf	fsr2l,c
  2277   001CEE  6ADA               	clrf	fsr2h,c
  2278   001CF0  CFDF FFF6          	movff	indf2,tblptrl
  2279   001CF4                     	if	1	;There is more than 1 active tblptr byte
  2280   001CF4  0E08               	movlw	high __smallconst
  2281   001CF6  6EF7               	movwf	tblptrh,c
  2282   001CF8                     	endif
  2283   001CF8                     	if	0	;tblptru may be non-zero
  2284   001CF8                     	endif
  2285   001CF8                     	if	0	;tblptru may be non-zero
  2286   001CF8                     	endif
  2287   001CF8  0008               	tblrd		*
  2288   001CFA  50F5               	movf	tablat,w,c
  2289   001CFC  0A25               	xorlw	37
  2290   001CFE  A4D8               	btfss	status,2,c
  2291   001D00  EF84  F00E         	goto	u1671
  2292   001D04  EF86  F00E         	goto	u1670
  2293   001D08                     u1671:
  2294   001D08  EF99  F00E         	goto	l2036
  2295   001D0C                     u1670:
  2296   001D0C                     
  2297                           ;C:\Program Files\Microchip\xc8\v2.50\pic\sources\c99\common\doprnt.c: 1202:         ++*
      +                          fmt;
  2298   001D0C  500A               	movf	vfpfcnvrt@fmt^0,w,c
  2299   001D0E  6ED9               	movwf	fsr2l,c
  2300   001D10  6ADA               	clrf	fsr2h,c
  2301   001D12  2ADF               	incf	indf2,f,c
  2302   001D14                     
  2303                           ;C:\Program Files\Microchip\xc8\v2.50\pic\sources\c99\common\doprnt.c: 1204:         fla
      +                          gs = width = 0;
  2304   001D14  0E00               	movlw	0
  2305   001D16  0100               	movlb	0	; () banked
  2306   001D18  6FA3               	movwf	(_width+1)& (0+255),b
  2307   001D1A  0E00               	movlw	0
  2308   001D1C  6FA2               	movwf	_width& (0+255),b
  2309   001D1E  C0A2  F0B0         	movff	_width,_flags
  2310   001D22                     
  2311                           ; BSR set to: 0
  2312                           ;C:\Program Files\Microchip\xc8\v2.50\pic\sources\c99\common\doprnt.c: 1205:         pre
      +                          c = -1;
  2313   001D22  69A4               	setf	_prec& (0+255),b
  2314   001D24  69A5               	setf	(_prec+1)& (0+255),b
  2315   001D26                     l2032:
  2316                           
  2317                           ;C:\Program Files\Microchip\xc8\v2.50\pic\sources\c99\common\doprnt.c: 1806:         ++*
      +                          fmt;
  2318   001D26  500A               	movf	vfpfcnvrt@fmt^0,w,c
  2319   001D28  6ED9               	movwf	fsr2l,c
  2320   001D2A  6ADA               	clrf	fsr2h,c
  2321   001D2C  2ADF               	incf	indf2,f,c
  2322   001D2E  EFAA  F00E         	goto	l909
  2323   001D32                     l2036:
  2324                           
  2325                           ;C:\Program Files\Microchip\xc8\v2.50\pic\sources\c99\common\doprnt.c: 1811:     fputc((
      +                          int)(*fmt)[0], fp);
  2326   001D32  500A               	movf	vfpfcnvrt@fmt^0,w,c
  2327   001D34  6ED9               	movwf	fsr2l,c
  2328   001D36  6ADA               	clrf	fsr2h,c
  2329   001D38  CFDF FFF6          	movff	indf2,tblptrl
  2330   001D3C                     	if	1	;There is more than 1 active tblptr byte
  2331   001D3C  0E08               	movlw	high __smallconst
  2332   001D3E  6EF7               	movwf	tblptrh,c
  2333   001D40                     	endif
  2334   001D40                     	if	0	;tblptru may be non-zero
  2335   001D40                     	endif
  2336   001D40                     	if	0	;tblptru may be non-zero
  2337   001D40                     	endif
  2338   001D40  0008               	tblrd		*
  2339   001D42  50F5               	movf	tablat,w,c
  2340   001D44  6E01               	movwf	fputc@c^0,c
  2341   001D46  6A02               	clrf	(fputc@c+1)^0,c
  2342   001D48  C009  F003         	movff	vfpfcnvrt@fp,fputc@fp
  2343   001D4C  EC63  F00D         	call	_fputc	;wreg free
  2344   001D50  EF93  F00E         	goto	l2032
  2345   001D54                     l909:
  2346   001D54  0012               	return		;funcret
  2347   001D56                     __end_of_vfpfcnvrt:
  2348                           	callstack 0
  2349                           
  2350 ;; *************** function _fputc *****************
  2351 ;; Defined at:
  2352 ;;		line 8 in file "C:\Program Files\Microchip\xc8\v2.50\pic\sources\c99\common\nf_fputc.c"
  2353 ;; Parameters:    Size  Location     Type
  2354 ;;  c               2    0[COMRAM] int 
  2355 ;;  fp              1    2[COMRAM] PTR struct _IO_FILE
  2356 ;;		 -> sprintf@f(11), 
  2357 ;; Auto vars:     Size  Location     Type
  2358 ;;		None
  2359 ;; Return value:  Size  Location     Type
  2360 ;;                  2    0[COMRAM] int 
  2361 ;; Registers used:
  2362 ;;		wreg, fsr1l, fsr1h, fsr2l, fsr2h, status,2, status,0, cstack
  2363 ;; Tracked objects:
  2364 ;;		On entry : 0/0
  2365 ;;		On exit  : 0/0
  2366 ;;		Unchanged: 0/0
  2367 ;; Data sizes:     COMRAM   BANK0   BANK1   BANK2   BANK3   BANK4   BANK5   BANK6   BANK7
  2368 ;;      Params:         3       0       0       0       0       0       0       0       0
  2369 ;;      Locals:         0       0       0       0       0       0       0       0       0
  2370 ;;      Temps:          5       0       0       0       0       0       0       0       0
  2371 ;;      Totals:         8       0       0       0       0       0       0       0       0
  2372 ;;Total ram usage:        8 bytes
  2373 ;; Hardware stack levels used: 1
  2374 ;; Hardware stack levels required when called: 2
  2375 ;; This function calls:
  2376 ;;		_putch
  2377 ;; This function is called by:
  2378 ;;		_vfpfcnvrt
  2379 ;; This function uses a non-reentrant model
  2380 ;;
  2381                           
  2382                           	psect	text6
  2383   001AC6                     __ptext6:
  2384                           	callstack 0
  2385   001AC6                     _fputc:
  2386                           	callstack 25
  2387   001AC6  5003               	movf	fputc@fp^0,w,c
  2388   001AC8  B4D8               	btfsc	status,2,c
  2389   001ACA  EF69  F00D         	goto	u1241
  2390   001ACE  EF6B  F00D         	goto	u1240
  2391   001AD2                     u1241:
  2392   001AD2  EF73  F00D         	goto	l1820
  2393   001AD6                     u1240:
  2394   001AD6  5003               	movf	fputc@fp^0,w,c
  2395   001AD8  A4D8               	btfss	status,2,c
  2396   001ADA  EF71  F00D         	goto	u1251
  2397   001ADE  EF73  F00D         	goto	u1250
  2398   001AE2                     u1251:
  2399   001AE2  EF78  F00D         	goto	l1822
  2400   001AE6                     u1250:
  2401   001AE6                     l1820:
  2402   001AE6  5001               	movf	fputc@c^0,w,c
  2403   001AE8  ECC6  F00F         	call	_putch
  2404   001AEC  EFB7  F00D         	goto	l927
  2405   001AF0                     l1822:
  2406   001AF0  5003               	movf	fputc@fp^0,w,c
  2407   001AF2  6ED9               	movwf	fsr2l,c
  2408   001AF4  6ADA               	clrf	fsr2h,c
  2409   001AF6  0E09               	movlw	9
  2410   001AF8  26D9               	addwf	fsr2l,f,c
  2411   001AFA  50DE               	movf	postinc2,w,c
  2412   001AFC  10DE               	iorwf	postinc2,w,c
  2413   001AFE  B4D8               	btfsc	status,2,c
  2414   001B00  EF84  F00D         	goto	u1261
  2415   001B04  EF86  F00D         	goto	u1260
  2416   001B08                     u1261:
  2417   001B08  EF9F  F00D         	goto	l1826
  2418   001B0C                     u1260:
  2419   001B0C  5003               	movf	fputc@fp^0,w,c
  2420   001B0E  6ED9               	movwf	fsr2l,c
  2421   001B10  6ADA               	clrf	fsr2h,c
  2422   001B12  0E09               	movlw	9
  2423   001B14  26D9               	addwf	fsr2l,f,c
  2424   001B16  5003               	movf	fputc@fp^0,w,c
  2425   001B18  6EE1               	movwf	fsr1l,c
  2426   001B1A  6AE2               	clrf	fsr1h,c
  2427   001B1C  0E02               	movlw	2
  2428   001B1E  26E1               	addwf	fsr1l,f,c
  2429   001B20  50DE               	movf	postinc2,w,c
  2430   001B22  5CE6               	subwf	postinc1,w,c
  2431   001B24  50E6               	movf	postinc1,w,c
  2432   001B26  0A80               	xorlw	128
  2433   001B28  6E08               	movwf	(??_fputc+4)^0,c
  2434   001B2A  50DE               	movf	postinc2,w,c
  2435   001B2C  0A80               	xorlw	128
  2436   001B2E  5808               	subwfb	(??_fputc+4)^0,w,c
  2437   001B30  B0D8               	btfsc	status,0,c
  2438   001B32  EF9D  F00D         	goto	u1271
  2439   001B36  EF9F  F00D         	goto	u1270
  2440   001B3A                     u1271:
  2441   001B3A  EFB7  F00D         	goto	l927
  2442   001B3E                     u1270:
  2443   001B3E                     l1826:
  2444   001B3E  5003               	movf	fputc@fp^0,w,c
  2445   001B40  6ED9               	movwf	fsr2l,c
  2446   001B42  6ADA               	clrf	fsr2h,c
  2447   001B44  0E02               	movlw	2
  2448   001B46  26D9               	addwf	fsr2l,f,c
  2449   001B48  50DF               	movf	indf2,w,c
  2450   001B4A  6E04               	movwf	??_fputc^0,c
  2451   001B4C  5003               	movf	fputc@fp^0,w,c
  2452   001B4E  6ED9               	movwf	fsr2l,c
  2453   001B50  6ADA               	clrf	fsr2h,c
  2454   001B52  50DF               	movf	indf2,w,c
  2455   001B54  2404               	addwf	??_fputc^0,w,c
  2456   001B56  6ED9               	movwf	fsr2l,c
  2457   001B58  6ADA               	clrf	fsr2h,c
  2458   001B5A  C001  FFDF         	movff	fputc@c,indf2
  2459   001B5E  5003               	movf	fputc@fp^0,w,c
  2460   001B60  6ED9               	movwf	fsr2l,c
  2461   001B62  6ADA               	clrf	fsr2h,c
  2462   001B64  0E02               	movlw	2
  2463   001B66  26D9               	addwf	fsr2l,f,c
  2464   001B68  2ADE               	incf	postinc2,f,c
  2465   001B6A  0E00               	movlw	0
  2466   001B6C  22DD               	addwfc	postdec2,f,c
  2467   001B6E                     l927:
  2468   001B6E  0012               	return		;funcret
  2469   001B70                     __end_of_fputc:
  2470                           	callstack 0
  2471                           
  2472 ;; *************** function _putch *****************
  2473 ;; Defined at:
  2474 ;;		line 7 in file "C:\Program Files\Microchip\xc8\v2.50\pic\sources\c99\common\putch.c"
  2475 ;; Parameters:    Size  Location     Type
  2476 ;;  c               1    wreg     unsigned char 
  2477 ;; Auto vars:     Size  Location     Type
  2478 ;;  c               1    0[COMRAM] unsigned char 
  2479 ;; Return value:  Size  Location     Type
  2480 ;;                  1    wreg      void 
  2481 ;; Registers used:
  2482 ;;		wreg
  2483 ;; Tracked objects:
  2484 ;;		On entry : 0/0
  2485 ;;		On exit  : 0/0
  2486 ;;		Unchanged: 0/0
  2487 ;; Data sizes:     COMRAM   BANK0   BANK1   BANK2   BANK3   BANK4   BANK5   BANK6   BANK7
  2488 ;;      Params:         0       0       0       0       0       0       0       0       0
  2489 ;;      Locals:         0       0       0       0       0       0       0       0       0
  2490 ;;      Temps:          0       0       0       0       0       0       0       0       0
  2491 ;;      Totals:         0       0       0       0       0       0       0       0       0
  2492 ;;Total ram usage:        0 bytes
  2493 ;; Hardware stack levels used: 1
  2494 ;; Hardware stack levels required when called: 1
  2495 ;; This function calls:
  2496 ;;		Nothing
  2497 ;; This function is called by:
  2498 ;;		_fputc
  2499 ;; This function uses a non-reentrant model
  2500 ;;
  2501                           
  2502                           	psect	text7
  2503   001F8C                     __ptext7:
  2504                           	callstack 0
  2505   001F8C                     _putch:
  2506                           	callstack 25
  2507   001F8C  0012               	return		;funcret
  2508   001F8E                     __end_of_putch:
  2509                           	callstack 0
  2510                           
  2511 ;; *************** function _read_ADC *****************
  2512 ;; Defined at:
  2513 ;;		line 11 in file "adc_lib.c"
  2514 ;; Parameters:    Size  Location     Type
  2515 ;;  canal           1    wreg     unsigned char 
  2516 ;; Auto vars:     Size  Location     Type
  2517 ;;  canal           1    3[COMRAM] unsigned char 
  2518 ;; Return value:  Size  Location     Type
  2519 ;;                  2    0[COMRAM] unsigned int 
  2520 ;; Registers used:
  2521 ;;		wreg, status,2, status,0
  2522 ;; Tracked objects:
  2523 ;;		On entry : 0/0
  2524 ;;		On exit  : 0/0
  2525 ;;		Unchanged: 0/0
  2526 ;; Data sizes:     COMRAM   BANK0   BANK1   BANK2   BANK3   BANK4   BANK5   BANK6   BANK7
  2527 ;;      Params:         2       0       0       0       0       0       0       0       0
  2528 ;;      Locals:         1       0       0       0       0       0       0       0       0
  2529 ;;      Temps:          1       0       0       0       0       0       0       0       0
  2530 ;;      Totals:         4       0       0       0       0       0       0       0       0
  2531 ;;Total ram usage:        4 bytes
  2532 ;; Hardware stack levels used: 1
  2533 ;; Hardware stack levels required when called: 1
  2534 ;; This function calls:
  2535 ;;		Nothing
  2536 ;; This function is called by:
  2537 ;;		_main
  2538 ;; This function uses a non-reentrant model
  2539 ;;
  2540                           
  2541                           	psect	text8
  2542   001DBC                     __ptext8:
  2543                           	callstack 0
  2544   001DBC                     _read_ADC:
  2545                           	callstack 29
  2546                           
  2547                           ;incstack = 0
  2548                           ;read_ADC@canal stored from wreg
  2549   001DBC  6E04               	movwf	read_ADC@canal^0,c
  2550   001DBE                     
  2551                           ;adc_lib.c: 12:     if (canal>13){
  2552   001DBE  0E0D               	movlw	13
  2553   001DC0  6404               	cpfsgt	read_ADC@canal^0,c
  2554   001DC2  EFE5  F00E         	goto	u2341
  2555   001DC6  EFE7  F00E         	goto	u2340
  2556   001DCA                     u2341:
  2557   001DCA  EFED  F00E         	goto	l162
  2558   001DCE                     u2340:
  2559   001DCE                     
  2560                           ;adc_lib.c: 13:         return 0;
  2561   001DCE  0E00               	movlw	0
  2562   001DD0  6E02               	movwf	(?_read_ADC+1)^0,c
  2563   001DD2  0E00               	movlw	0
  2564   001DD4  6E01               	movwf	?_read_ADC^0,c
  2565   001DD6  EF05  F00F         	goto	l163
  2566   001DDA                     l162:
  2567                           
  2568                           ;adc_lib.c: 15:         ADCON0 = 0x00;
  2569   001DDA  6AC2               	clrf	194,c	;volatile
  2570   001DDC                     
  2571                           ;adc_lib.c: 16:         ADCON0bits.CHS = canal;
  2572   001DDC  C004  F003         	movff	read_ADC@canal,??_read_ADC
  2573   001DE0  4603               	rlncf	??_read_ADC^0,f,c
  2574   001DE2  4603               	rlncf	??_read_ADC^0,f,c
  2575   001DE4  50C2               	movf	194,w,c	;volatile
  2576   001DE6  1803               	xorwf	??_read_ADC^0,w,c
  2577   001DE8  0BC3               	andlw	-61
  2578   001DEA  1803               	xorwf	??_read_ADC^0,w,c
  2579   001DEC  6EC2               	movwf	194,c	;volatile
  2580   001DEE                     
  2581                           ;adc_lib.c: 19:         ADCON0bits.ADON = 1;
  2582   001DEE  80C2               	bsf	194,0,c	;volatile
  2583   001DF0                     
  2584                           ;adc_lib.c: 20:         ADCON0bits.GO_DONE = 1;
  2585   001DF0  82C2               	bsf	194,1,c	;volatile
  2586   001DF2                     l165:
  2587   001DF2  B2C2               	btfsc	194,1,c	;volatile
  2588   001DF4  EFFE  F00E         	goto	u2351
  2589   001DF8  EF00  F00F         	goto	u2350
  2590   001DFC                     u2351:
  2591   001DFC  EFF9  F00E         	goto	l165
  2592   001E00                     u2350:
  2593   001E00                     
  2594                           ;adc_lib.c: 22:         ADCON0bits.ADON = 0;
  2595   001E00  90C2               	bcf	194,0,c	;volatile
  2596                           
  2597                           ;adc_lib.c: 23:         return ADRES;
  2598   001E02  CFC3 F001          	movff	4035,?_read_ADC	;volatile
  2599   001E06  CFC4 F002          	movff	4036,?_read_ADC+1	;volatile
  2600   001E0A                     l163:
  2601   001E0A  0012               	return		;funcret
  2602   001E0C                     __end_of_read_ADC:
  2603                           	callstack 0
  2604                           
  2605 ;; *************** function _mapping *****************
  2606 ;; Defined at:
  2607 ;;		line 75 in file "tx_main.c"
  2608 ;; Parameters:    Size  Location     Type
  2609 ;;  min_in          4    0[BANK0 ] float 
  2610 ;;  max_in          4    4[BANK0 ] float 
  2611 ;;  min_out         4    8[BANK0 ] float 
  2612 ;;  max_out         4   12[BANK0 ] float 
  2613 ;;  read            2   16[BANK0 ] int 
  2614 ;; Auto vars:     Size  Location     Type
  2615 ;;  m               4   24[BANK0 ] float 
  2616 ;;  b               4   18[BANK0 ] float 
  2617 ;;  y               2   22[BANK0 ] int 
  2618 ;; Return value:  Size  Location     Type
  2619 ;;                  2    0[BANK0 ] int 
  2620 ;; Registers used:
  2621 ;;		wreg, status,2, status,0, prodl, prodh, cstack
  2622 ;; Tracked objects:
  2623 ;;		On entry : 0/0
  2624 ;;		On exit  : 0/0
  2625 ;;		Unchanged: 0/0
  2626 ;; Data sizes:     COMRAM   BANK0   BANK1   BANK2   BANK3   BANK4   BANK5   BANK6   BANK7
  2627 ;;      Params:         0      18       0       0       0       0       0       0       0
  2628 ;;      Locals:         0      10       0       0       0       0       0       0       0
  2629 ;;      Temps:          0       0       0       0       0       0       0       0       0
  2630 ;;      Totals:         0      28       0       0       0       0       0       0       0
  2631 ;;Total ram usage:       28 bytes
  2632 ;; Hardware stack levels used: 1
  2633 ;; Hardware stack levels required when called: 3
  2634 ;; This function calls:
  2635 ;;		___fladd
  2636 ;;		___fldiv
  2637 ;;		___flmul
  2638 ;;		___flsub
  2639 ;;		___fltol
  2640 ;;		___xxtofl
  2641 ;; This function is called by:
  2642 ;;		_main
  2643 ;; This function uses a non-reentrant model
  2644 ;;
  2645                           
  2646                           	psect	text9
  2647   001866                     __ptext9:
  2648                           	callstack 0
  2649   001866                     _mapping:
  2650                           	callstack 27
  2651   001866                     
  2652                           ;tx_main.c: 77:     m = (float)((max_out - min_out) / (max_in - min_in));
  2653   001866  C0C9  F03C         	movff	mapping@min_out,___flsub@a
  2654   00186A  C0CA  F03D         	movff	mapping@min_out+1,___flsub@a+1
  2655   00186E  C0CB  F03E         	movff	mapping@min_out+2,___flsub@a+2
  2656   001872  C0CC  F03F         	movff	mapping@min_out+3,___flsub@a+3
  2657   001876  C0CD  F038         	movff	mapping@max_out,___flsub@b
  2658   00187A  C0CE  F039         	movff	mapping@max_out+1,___flsub@b+1
  2659   00187E  C0CF  F03A         	movff	mapping@max_out+2,___flsub@b+2
  2660   001882  C0D0  F03B         	movff	mapping@max_out+3,___flsub@b+3
  2661   001886  EC06  F00F         	call	___flsub	;wreg free
  2662   00188A  C038  F040         	movff	?___flsub,___fldiv@b
  2663   00188E  C039  F041         	movff	?___flsub+1,___fldiv@b+1
  2664   001892  C03A  F042         	movff	?___flsub+2,___fldiv@b+2
  2665   001896  C03B  F043         	movff	?___flsub+3,___fldiv@b+3
  2666   00189A  C0C1  F03C         	movff	mapping@min_in,___flsub@a
  2667   00189E  C0C2  F03D         	movff	mapping@min_in+1,___flsub@a+1
  2668   0018A2  C0C3  F03E         	movff	mapping@min_in+2,___flsub@a+2
  2669   0018A6  C0C4  F03F         	movff	mapping@min_in+3,___flsub@a+3
  2670   0018AA  C0C5  F038         	movff	mapping@max_in,___flsub@b
  2671   0018AE  C0C6  F039         	movff	mapping@max_in+1,___flsub@b+1
  2672   0018B2  C0C7  F03A         	movff	mapping@max_in+2,___flsub@b+2
  2673   0018B6  C0C8  F03B         	movff	mapping@max_in+3,___flsub@b+3
  2674   0018BA  EC06  F00F         	call	___flsub	;wreg free
  2675   0018BE  C038  F044         	movff	?___flsub,___fldiv@a
  2676   0018C2  C039  F045         	movff	?___flsub+1,___fldiv@a+1
  2677   0018C6  C03A  F046         	movff	?___flsub+2,___fldiv@a+2
  2678   0018CA  C03B  F047         	movff	?___flsub+3,___fldiv@a+3
  2679   0018CE  EC7D  F008         	call	___fldiv	;wreg free
  2680   0018D2  C040  F0D9         	movff	?___fldiv,mapping@m
  2681   0018D6  C041  F0DA         	movff	?___fldiv+1,mapping@m+1
  2682   0018DA  C042  F0DB         	movff	?___fldiv+2,mapping@m+2
  2683   0018DE  C043  F0DC         	movff	?___fldiv+3,mapping@m+3
  2684   0018E2                     
  2685                           ;tx_main.c: 78:     b = (float)((min_out) - (m * min_in));
  2686   0018E2  C0C9  F038         	movff	mapping@min_out,___flsub@b
  2687   0018E6  C0CA  F039         	movff	mapping@min_out+1,___flsub@b+1
  2688   0018EA  C0CB  F03A         	movff	mapping@min_out+2,___flsub@b+2
  2689   0018EE  C0CC  F03B         	movff	mapping@min_out+3,___flsub@b+3
  2690   0018F2  C0C1  F013         	movff	mapping@min_in,___flmul@a
  2691   0018F6  C0C2  F014         	movff	mapping@min_in+1,___flmul@a+1
  2692   0018FA  C0C3  F015         	movff	mapping@min_in+2,___flmul@a+2
  2693   0018FE  C0C4  F016         	movff	mapping@min_in+3,___flmul@a+3
  2694   001902  C0D9  F00F         	movff	mapping@m,___flmul@b
  2695   001906  C0DA  F010         	movff	mapping@m+1,___flmul@b+1
  2696   00190A  C0DB  F011         	movff	mapping@m+2,___flmul@b+2
  2697   00190E  C0DC  F012         	movff	mapping@m+3,___flmul@b+3
  2698   001912  EC6A  F006         	call	___flmul	;wreg free
  2699   001916  C00F  F03C         	movff	?___flmul,___flsub@a
  2700   00191A  C010  F03D         	movff	?___flmul+1,___flsub@a+1
  2701   00191E  C011  F03E         	movff	?___flmul+2,___flsub@a+2
  2702   001922  C012  F03F         	movff	?___flmul+3,___flsub@a+3
  2703   001926  EC06  F00F         	call	___flsub	;wreg free
  2704   00192A  C038  F0D3         	movff	?___flsub,mapping@b
  2705   00192E  C039  F0D4         	movff	?___flsub+1,mapping@b+1
  2706   001932  C03A  F0D5         	movff	?___flsub+2,mapping@b+2
  2707   001936  C03B  F0D6         	movff	?___flsub+3,mapping@b+3
  2708   00193A                     
  2709                           ;tx_main.c: 79:     y = ((m) * read) + b;
  2710   00193A  C0D3  F02C         	movff	mapping@b,___fladd@a
  2711   00193E  C0D4  F02D         	movff	mapping@b+1,___fladd@a+1
  2712   001942  C0D5  F02E         	movff	mapping@b+2,___fladd@a+2
  2713   001946  C0D6  F02F         	movff	mapping@b+3,___fladd@a+3
  2714   00194A  C0D9  F013         	movff	mapping@m,___flmul@a
  2715   00194E  C0DA  F014         	movff	mapping@m+1,___flmul@a+1
  2716   001952  C0DB  F015         	movff	mapping@m+2,___flmul@a+2
  2717   001956  C0DC  F016         	movff	mapping@m+3,___flmul@a+3
  2718   00195A  C0D1  F001         	movff	mapping@read,___xxtofl@val
  2719   00195E  C0D2  F002         	movff	mapping@read+1,___xxtofl@val+1
  2720   001962  0E00               	movlw	0
  2721   001964  BE02               	btfsc	(___xxtofl@val+1)^0,7,c
  2722   001966  0EFF               	movlw	-1
  2723   001968  6E03               	movwf	(___xxtofl@val+2)^0,c
  2724   00196A  6E04               	movwf	(___xxtofl@val+3)^0,c
  2725   00196C  0E01               	movlw	1
  2726   00196E  EC59  F00B         	call	___xxtofl
  2727   001972  C001  F00F         	movff	?___xxtofl,___flmul@b
  2728   001976  C002  F010         	movff	?___xxtofl+1,___flmul@b+1
  2729   00197A  C003  F011         	movff	?___xxtofl+2,___flmul@b+2
  2730   00197E  C004  F012         	movff	?___xxtofl+3,___flmul@b+3
  2731   001982  EC6A  F006         	call	___flmul	;wreg free
  2732   001986  C00F  F028         	movff	?___flmul,___fladd@b
  2733   00198A  C010  F029         	movff	?___flmul+1,___fladd@b+1
  2734   00198E  C011  F02A         	movff	?___flmul+2,___fladd@b+2
  2735   001992  C012  F02B         	movff	?___flmul+3,___fladd@b+3
  2736   001996  EC0F  F004         	call	___fladd	;wreg free
  2737   00199A  C028  F038         	movff	?___fladd,___fltol@f1
  2738   00199E  C029  F039         	movff	?___fladd+1,___fltol@f1+1
  2739   0019A2  C02A  F03A         	movff	?___fladd+2,___fltol@f1+2
  2740   0019A6  C02B  F03B         	movff	?___fladd+3,___fltol@f1+3
  2741   0019AA  ECE0  F00C         	call	___fltol	;wreg free
  2742   0019AE  C038  F0D7         	movff	?___fltol,mapping@y
  2743   0019B2  C039  F0D8         	movff	?___fltol+1,mapping@y+1
  2744   0019B6                     
  2745                           ;tx_main.c: 80:     return y;
  2746   0019B6  C0D7  F0C1         	movff	mapping@y,?_mapping
  2747   0019BA  C0D8  F0C2         	movff	mapping@y+1,?_mapping+1
  2748   0019BE  0012               	return		;funcret
  2749   0019C0                     __end_of_mapping:
  2750                           	callstack 0
  2751                           
  2752 ;; *************** function ___xxtofl *****************
  2753 ;; Defined at:
  2754 ;;		line 10 in file "C:\Program Files\Microchip\xc8\v2.50\pic\sources\c99\common\xxtofl.c"
  2755 ;; Parameters:    Size  Location     Type
  2756 ;;  sign            1    wreg     unsigned char 
  2757 ;;  val             4    0[COMRAM] long 
  2758 ;; Auto vars:     Size  Location     Type
  2759 ;;  sign            1    8[COMRAM] unsigned char 
  2760 ;;  arg             4   10[COMRAM] unsigned long 
  2761 ;;  exp             1    9[COMRAM] unsigned char 
  2762 ;; Return value:  Size  Location     Type
  2763 ;;                  4    0[COMRAM] unsigned char 
  2764 ;; Registers used:
  2765 ;;		wreg, status,2, status,0
  2766 ;; Tracked objects:
  2767 ;;		On entry : 0/0
  2768 ;;		On exit  : 0/0
  2769 ;;		Unchanged: 0/0
  2770 ;; Data sizes:     COMRAM   BANK0   BANK1   BANK2   BANK3   BANK4   BANK5   BANK6   BANK7
  2771 ;;      Params:         4       0       0       0       0       0       0       0       0
  2772 ;;      Locals:         6       0       0       0       0       0       0       0       0
  2773 ;;      Temps:          4       0       0       0       0       0       0       0       0
  2774 ;;      Totals:        14       0       0       0       0       0       0       0       0
  2775 ;;Total ram usage:       14 bytes
  2776 ;; Hardware stack levels used: 1
  2777 ;; Hardware stack levels required when called: 1
  2778 ;; This function calls:
  2779 ;;		Nothing
  2780 ;; This function is called by:
  2781 ;;		_mapping
  2782 ;; This function uses a non-reentrant model
  2783 ;;
  2784                           
  2785                           	psect	text10
  2786   0016B2                     __ptext10:
  2787                           	callstack 0
  2788   0016B2                     ___xxtofl:
  2789                           	callstack 28
  2790                           
  2791                           ;incstack = 0
  2792                           ;___xxtofl@sign stored from wreg
  2793   0016B2  6E09               	movwf	___xxtofl@sign^0,c
  2794   0016B4  5009               	movf	___xxtofl@sign^0,w,c
  2795   0016B6  B4D8               	btfsc	status,2,c
  2796   0016B8  EF60  F00B         	goto	u2171
  2797   0016BC  EF62  F00B         	goto	u2170
  2798   0016C0                     u2171:
  2799   0016C0  EF84  F00B         	goto	l863
  2800   0016C4                     u2170:
  2801   0016C4  BE04               	btfsc	(___xxtofl@val+3)^0,7,c
  2802   0016C6  EF69  F00B         	goto	u2180
  2803   0016CA  EF67  F00B         	goto	u2181
  2804   0016CE                     u2181:
  2805   0016CE  EF84  F00B         	goto	l863
  2806   0016D2                     u2180:
  2807   0016D2  C001  F005         	movff	___xxtofl@val,??___xxtofl
  2808   0016D6  C002  F006         	movff	___xxtofl@val+1,??___xxtofl+1
  2809   0016DA  C003  F007         	movff	___xxtofl@val+2,??___xxtofl+2
  2810   0016DE  C004  F008         	movff	___xxtofl@val+3,??___xxtofl+3
  2811   0016E2  1E05               	comf	??___xxtofl^0,f,c
  2812   0016E4  1E06               	comf	(??___xxtofl+1)^0,f,c
  2813   0016E6  1E07               	comf	(??___xxtofl+2)^0,f,c
  2814   0016E8  1E08               	comf	(??___xxtofl+3)^0,f,c
  2815   0016EA  2A05               	incf	??___xxtofl^0,f,c
  2816   0016EC  0E00               	movlw	0
  2817   0016EE  2206               	addwfc	(??___xxtofl+1)^0,f,c
  2818   0016F0  2207               	addwfc	(??___xxtofl+2)^0,f,c
  2819   0016F2  2208               	addwfc	(??___xxtofl+3)^0,f,c
  2820   0016F4  C005  F00B         	movff	??___xxtofl,___xxtofl@arg
  2821   0016F8  C006  F00C         	movff	??___xxtofl+1,___xxtofl@arg+1
  2822   0016FC  C007  F00D         	movff	??___xxtofl+2,___xxtofl@arg+2
  2823   001700  C008  F00E         	movff	??___xxtofl+3,___xxtofl@arg+3
  2824   001704  EF8C  F00B         	goto	l2412
  2825   001708                     l863:
  2826   001708  C001  F00B         	movff	___xxtofl@val,___xxtofl@arg
  2827   00170C  C002  F00C         	movff	___xxtofl@val+1,___xxtofl@arg+1
  2828   001710  C003  F00D         	movff	___xxtofl@val+2,___xxtofl@arg+2
  2829   001714  C004  F00E         	movff	___xxtofl@val+3,___xxtofl@arg+3
  2830   001718                     l2412:
  2831   001718  5001               	movf	___xxtofl@val^0,w,c
  2832   00171A  1002               	iorwf	(___xxtofl@val+1)^0,w,c
  2833   00171C  1003               	iorwf	(___xxtofl@val+2)^0,w,c
  2834   00171E  1004               	iorwf	(___xxtofl@val+3)^0,w,c
  2835   001720  A4D8               	btfss	status,2,c
  2836   001722  EF95  F00B         	goto	u2191
  2837   001726  EF97  F00B         	goto	u2190
  2838   00172A                     u2191:
  2839   00172A  EFA1  F00B         	goto	l2418
  2840   00172E                     u2190:
  2841   00172E  0E00               	movlw	0
  2842   001730  6E01               	movwf	?___xxtofl^0,c
  2843   001732  0E00               	movlw	0
  2844   001734  6E02               	movwf	(?___xxtofl+1)^0,c
  2845   001736  0E00               	movlw	0
  2846   001738  6E03               	movwf	(?___xxtofl+2)^0,c
  2847   00173A  0E00               	movlw	0
  2848   00173C  6E04               	movwf	(?___xxtofl+3)^0,c
  2849   00173E  EF32  F00C         	goto	l866
  2850   001742                     l2418:
  2851   001742  0E96               	movlw	150
  2852   001744  6E0A               	movwf	___xxtofl@exp^0,c
  2853   001746  EFAB  F00B         	goto	l2422
  2854   00174A                     l2420:
  2855   00174A  2A0A               	incf	___xxtofl@exp^0,f,c
  2856   00174C  90D8               	bcf	status,0,c
  2857   00174E  320E               	rrcf	(___xxtofl@arg+3)^0,f,c
  2858   001750  320D               	rrcf	(___xxtofl@arg+2)^0,f,c
  2859   001752  320C               	rrcf	(___xxtofl@arg+1)^0,f,c
  2860   001754  320B               	rrcf	___xxtofl@arg^0,f,c
  2861   001756                     l2422:
  2862   001756  0E00               	movlw	0
  2863   001758  140B               	andwf	___xxtofl@arg^0,w,c
  2864   00175A  6E05               	movwf	??___xxtofl^0,c
  2865   00175C  0E00               	movlw	0
  2866   00175E  140C               	andwf	(___xxtofl@arg+1)^0,w,c
  2867   001760  6E06               	movwf	(??___xxtofl+1)^0,c
  2868   001762  0E00               	movlw	0
  2869   001764  140D               	andwf	(___xxtofl@arg+2)^0,w,c
  2870   001766  6E07               	movwf	(??___xxtofl+2)^0,c
  2871   001768  0EFE               	movlw	254
  2872   00176A  140E               	andwf	(___xxtofl@arg+3)^0,w,c
  2873   00176C  6E08               	movwf	(??___xxtofl+3)^0,c
  2874   00176E  5005               	movf	??___xxtofl^0,w,c
  2875   001770  1006               	iorwf	(??___xxtofl+1)^0,w,c
  2876   001772  1007               	iorwf	(??___xxtofl+2)^0,w,c
  2877   001774  1008               	iorwf	(??___xxtofl+3)^0,w,c
  2878   001776  A4D8               	btfss	status,2,c
  2879   001778  EFC0  F00B         	goto	u2201
  2880   00177C  EFC2  F00B         	goto	u2200
  2881   001780                     u2201:
  2882   001780  EFA5  F00B         	goto	l2420
  2883   001784                     u2200:
  2884   001784  EFD0  F00B         	goto	l870
  2885   001788                     l2424:
  2886   001788  2A0A               	incf	___xxtofl@exp^0,f,c
  2887   00178A  0E01               	movlw	1
  2888   00178C  260B               	addwf	___xxtofl@arg^0,f,c
  2889   00178E  0E00               	movlw	0
  2890   001790  220C               	addwfc	(___xxtofl@arg+1)^0,f,c
  2891   001792  220D               	addwfc	(___xxtofl@arg+2)^0,f,c
  2892   001794  220E               	addwfc	(___xxtofl@arg+3)^0,f,c
  2893   001796  90D8               	bcf	status,0,c
  2894   001798  320E               	rrcf	(___xxtofl@arg+3)^0,f,c
  2895   00179A  320D               	rrcf	(___xxtofl@arg+2)^0,f,c
  2896   00179C  320C               	rrcf	(___xxtofl@arg+1)^0,f,c
  2897   00179E  320B               	rrcf	___xxtofl@arg^0,f,c
  2898   0017A0                     l870:
  2899   0017A0  0E00               	movlw	0
  2900   0017A2  140B               	andwf	___xxtofl@arg^0,w,c
  2901   0017A4  6E05               	movwf	??___xxtofl^0,c
  2902   0017A6  0E00               	movlw	0
  2903   0017A8  140C               	andwf	(___xxtofl@arg+1)^0,w,c
  2904   0017AA  6E06               	movwf	(??___xxtofl+1)^0,c
  2905   0017AC  0E00               	movlw	0
  2906   0017AE  140D               	andwf	(___xxtofl@arg+2)^0,w,c
  2907   0017B0  6E07               	movwf	(??___xxtofl+2)^0,c
  2908   0017B2  0EFF               	movlw	255
  2909   0017B4  140E               	andwf	(___xxtofl@arg+3)^0,w,c
  2910   0017B6  6E08               	movwf	(??___xxtofl+3)^0,c
  2911   0017B8  5005               	movf	??___xxtofl^0,w,c
  2912   0017BA  1006               	iorwf	(??___xxtofl+1)^0,w,c
  2913   0017BC  1007               	iorwf	(??___xxtofl+2)^0,w,c
  2914   0017BE  1008               	iorwf	(??___xxtofl+3)^0,w,c
  2915   0017C0  A4D8               	btfss	status,2,c
  2916   0017C2  EFE5  F00B         	goto	u2211
  2917   0017C6  EFE7  F00B         	goto	u2210
  2918   0017CA                     u2211:
  2919   0017CA  EFC4  F00B         	goto	l2424
  2920   0017CE                     u2210:
  2921   0017CE  EFEF  F00B         	goto	l2432
  2922   0017D2                     l2430:
  2923   0017D2  060A               	decf	___xxtofl@exp^0,f,c
  2924   0017D4  90D8               	bcf	status,0,c
  2925   0017D6  360B               	rlcf	___xxtofl@arg^0,f,c
  2926   0017D8  360C               	rlcf	(___xxtofl@arg+1)^0,f,c
  2927   0017DA  360D               	rlcf	(___xxtofl@arg+2)^0,f,c
  2928   0017DC  360E               	rlcf	(___xxtofl@arg+3)^0,f,c
  2929   0017DE                     l2432:
  2930   0017DE  BE0D               	btfsc	(___xxtofl@arg+2)^0,7,c
  2931   0017E0  EFF4  F00B         	goto	u2221
  2932   0017E4  EFF6  F00B         	goto	u2220
  2933   0017E8                     u2221:
  2934   0017E8  EFFE  F00B         	goto	l877
  2935   0017EC                     u2220:
  2936   0017EC  0E02               	movlw	2
  2937   0017EE  600A               	cpfslt	___xxtofl@exp^0,c
  2938   0017F0  EFFC  F00B         	goto	u2231
  2939   0017F4  EFFE  F00B         	goto	u2230
  2940   0017F8                     u2231:
  2941   0017F8  EFE9  F00B         	goto	l2430
  2942   0017FC                     u2230:
  2943   0017FC                     l877:
  2944   0017FC  B00A               	btfsc	___xxtofl@exp^0,0,c
  2945   0017FE  EF03  F00C         	goto	u2241
  2946   001802  EF05  F00C         	goto	u2240
  2947   001806                     u2241:
  2948   001806  EF06  F00C         	goto	l2438
  2949   00180A                     u2240:
  2950   00180A  9E0D               	bcf	(___xxtofl@arg+2)^0,7,c
  2951   00180C                     l2438:
  2952   00180C  90D8               	bcf	status,0,c
  2953   00180E  320A               	rrcf	___xxtofl@exp^0,f,c
  2954   001810  C00A  F005         	movff	___xxtofl@exp,??___xxtofl
  2955   001814  6A06               	clrf	(??___xxtofl+1)^0,c
  2956   001816  6A07               	clrf	(??___xxtofl+2)^0,c
  2957   001818  6A08               	clrf	(??___xxtofl+3)^0,c
  2958   00181A  C005  F008         	movff	??___xxtofl,??___xxtofl+3
  2959   00181E  6A07               	clrf	(??___xxtofl+2)^0,c
  2960   001820  6A06               	clrf	(??___xxtofl+1)^0,c
  2961   001822  6A05               	clrf	??___xxtofl^0,c
  2962   001824  5005               	movf	??___xxtofl^0,w,c
  2963   001826  120B               	iorwf	___xxtofl@arg^0,f,c
  2964   001828  5006               	movf	(??___xxtofl+1)^0,w,c
  2965   00182A  120C               	iorwf	(___xxtofl@arg+1)^0,f,c
  2966   00182C  5007               	movf	(??___xxtofl+2)^0,w,c
  2967   00182E  120D               	iorwf	(___xxtofl@arg+2)^0,f,c
  2968   001830  5008               	movf	(??___xxtofl+3)^0,w,c
  2969   001832  120E               	iorwf	(___xxtofl@arg+3)^0,f,c
  2970   001834  5009               	movf	___xxtofl@sign^0,w,c
  2971   001836  B4D8               	btfsc	status,2,c
  2972   001838  EF20  F00C         	goto	u2251
  2973   00183C  EF22  F00C         	goto	u2250
  2974   001840                     u2251:
  2975   001840  EF2A  F00C         	goto	l2448
  2976   001844                     u2250:
  2977   001844  BE04               	btfsc	(___xxtofl@val+3)^0,7,c
  2978   001846  EF29  F00C         	goto	u2260
  2979   00184A  EF27  F00C         	goto	u2261
  2980   00184E                     u2261:
  2981   00184E  EF2A  F00C         	goto	l2448
  2982   001852                     u2260:
  2983   001852  8E0E               	bsf	(___xxtofl@arg+3)^0,7,c
  2984   001854                     l2448:
  2985   001854  C00B  F001         	movff	___xxtofl@arg,?___xxtofl
  2986   001858  C00C  F002         	movff	___xxtofl@arg+1,?___xxtofl+1
  2987   00185C  C00D  F003         	movff	___xxtofl@arg+2,?___xxtofl+2
  2988   001860  C00E  F004         	movff	___xxtofl@arg+3,?___xxtofl+3
  2989   001864                     l866:
  2990   001864  0012               	return		;funcret
  2991   001866                     __end_of___xxtofl:
  2992                           	callstack 0
  2993                           
  2994 ;; *************** function ___fltol *****************
  2995 ;; Defined at:
  2996 ;;		line 43 in file "C:\Program Files\Microchip\xc8\v2.50\pic\sources\c99\common\fltol.c"
  2997 ;; Parameters:    Size  Location     Type
  2998 ;;  f1              4   55[COMRAM] unsigned char 
  2999 ;; Auto vars:     Size  Location     Type
  3000 ;;  exp1            1   64[COMRAM] unsigned char 
  3001 ;;  sign1           1   63[COMRAM] unsigned char 
  3002 ;; Return value:  Size  Location     Type
  3003 ;;                  4   55[COMRAM] long 
  3004 ;; Registers used:
  3005 ;;		wreg, status,2, status,0
  3006 ;; Tracked objects:
  3007 ;;		On entry : 0/0
  3008 ;;		On exit  : 0/0
  3009 ;;		Unchanged: 0/0
  3010 ;; Data sizes:     COMRAM   BANK0   BANK1   BANK2   BANK3   BANK4   BANK5   BANK6   BANK7
  3011 ;;      Params:         4       0       0       0       0       0       0       0       0
  3012 ;;      Locals:         2       0       0       0       0       0       0       0       0
  3013 ;;      Temps:          4       0       0       0       0       0       0       0       0
  3014 ;;      Totals:        10       0       0       0       0       0       0       0       0
  3015 ;;Total ram usage:       10 bytes
  3016 ;; Hardware stack levels used: 1
  3017 ;; Hardware stack levels required when called: 1
  3018 ;; This function calls:
  3019 ;;		Nothing
  3020 ;; This function is called by:
  3021 ;;		_mapping
  3022 ;; This function uses a non-reentrant model
  3023 ;;
  3024                           
  3025                           	psect	text11
  3026   0019C0                     __ptext11:
  3027                           	callstack 0
  3028   0019C0                     ___fltol:
  3029                           	callstack 28
  3030   0019C0  343A               	rlcf	(___fltol@f1+2)^0,w,c
  3031   0019C2  343B               	rlcf	(___fltol@f1+3)^0,w,c
  3032   0019C4  6E41               	movwf	___fltol@exp1^0,c
  3033   0019C6  5041               	movf	___fltol@exp1^0,w,c
  3034   0019C8  A4D8               	btfss	status,2,c
  3035   0019CA  EFE9  F00C         	goto	u2101
  3036   0019CE  EFEB  F00C         	goto	u2100
  3037   0019D2                     u2101:
  3038   0019D2  EFF5  F00C         	goto	l2368
  3039   0019D6                     u2100:
  3040   0019D6                     l2364:
  3041   0019D6  0E00               	movlw	0
  3042   0019D8  6E38               	movwf	?___fltol^0,c
  3043   0019DA  0E00               	movlw	0
  3044   0019DC  6E39               	movwf	(?___fltol+1)^0,c
  3045   0019DE  0E00               	movlw	0
  3046   0019E0  6E3A               	movwf	(?___fltol+2)^0,c
  3047   0019E2  0E00               	movlw	0
  3048   0019E4  6E3B               	movwf	(?___fltol+3)^0,c
  3049   0019E6  EF62  F00D         	goto	l505
  3050   0019EA                     l2368:
  3051   0019EA  C038  F03C         	movff	___fltol@f1,??___fltol
  3052   0019EE  C039  F03D         	movff	___fltol@f1+1,??___fltol+1
  3053   0019F2  C03A  F03E         	movff	___fltol@f1+2,??___fltol+2
  3054   0019F6  C03B  F03F         	movff	___fltol@f1+3,??___fltol+3
  3055   0019FA  0E20               	movlw	32
  3056   0019FC  EF05  F00D         	goto	u2110
  3057   001A00                     u2115:
  3058   001A00  90D8               	bcf	status,0,c
  3059   001A02  323F               	rrcf	(??___fltol+3)^0,f,c
  3060   001A04  323E               	rrcf	(??___fltol+2)^0,f,c
  3061   001A06  323D               	rrcf	(??___fltol+1)^0,f,c
  3062   001A08  323C               	rrcf	??___fltol^0,f,c
  3063   001A0A                     u2110:
  3064   001A0A  2EE8               	decfsz	wreg,f,c
  3065   001A0C  EF00  F00D         	goto	u2115
  3066   001A10  503C               	movf	??___fltol^0,w,c
  3067   001A12  6E40               	movwf	___fltol@sign1^0,c
  3068   001A14  8E3A               	bsf	(___fltol@f1+2)^0,7,c
  3069   001A16  0EFF               	movlw	255
  3070   001A18  1638               	andwf	___fltol@f1^0,f,c
  3071   001A1A  0EFF               	movlw	255
  3072   001A1C  1639               	andwf	(___fltol@f1+1)^0,f,c
  3073   001A1E  0EFF               	movlw	255
  3074   001A20  163A               	andwf	(___fltol@f1+2)^0,f,c
  3075   001A22  0E00               	movlw	0
  3076   001A24  163B               	andwf	(___fltol@f1+3)^0,f,c
  3077   001A26  0E96               	movlw	150
  3078   001A28  5E41               	subwf	___fltol@exp1^0,f,c
  3079   001A2A  BE41               	btfsc	___fltol@exp1^0,7,c
  3080   001A2C  EF1C  F00D         	goto	u2120
  3081   001A30  EF1A  F00D         	goto	u2121
  3082   001A34                     u2121:
  3083   001A34  EF32  F00D         	goto	l2388
  3084   001A38                     u2120:
  3085   001A38  5041               	movf	___fltol@exp1^0,w,c
  3086   001A3A  0A80               	xorlw	128
  3087   001A3C  0F97               	addlw	151
  3088   001A3E  B0D8               	btfsc	status,0,c
  3089   001A40  EF24  F00D         	goto	u2131
  3090   001A44  EF26  F00D         	goto	u2130
  3091   001A48                     u2131:
  3092   001A48  EF28  F00D         	goto	l2384
  3093   001A4C                     u2130:
  3094   001A4C  EFEB  F00C         	goto	l2364
  3095   001A50                     l2384:
  3096   001A50  90D8               	bcf	status,0,c
  3097   001A52  323B               	rrcf	(___fltol@f1+3)^0,f,c
  3098   001A54  323A               	rrcf	(___fltol@f1+2)^0,f,c
  3099   001A56  3239               	rrcf	(___fltol@f1+1)^0,f,c
  3100   001A58  3238               	rrcf	___fltol@f1^0,f,c
  3101   001A5A  3E41               	incfsz	___fltol@exp1^0,f,c
  3102   001A5C  EF28  F00D         	goto	l2384
  3103   001A60  EF4A  F00D         	goto	l2398
  3104   001A64                     l2388:
  3105   001A64  0E1F               	movlw	31
  3106   001A66  6441               	cpfsgt	___fltol@exp1^0,c
  3107   001A68  EF38  F00D         	goto	u2141
  3108   001A6C  EF3A  F00D         	goto	u2140
  3109   001A70                     u2141:
  3110   001A70  EF42  F00D         	goto	l2396
  3111   001A74                     u2140:
  3112   001A74  EFEB  F00C         	goto	l2364
  3113   001A78                     l2394:
  3114   001A78  90D8               	bcf	status,0,c
  3115   001A7A  3638               	rlcf	___fltol@f1^0,f,c
  3116   001A7C  3639               	rlcf	(___fltol@f1+1)^0,f,c
  3117   001A7E  363A               	rlcf	(___fltol@f1+2)^0,f,c
  3118   001A80  363B               	rlcf	(___fltol@f1+3)^0,f,c
  3119   001A82  0641               	decf	___fltol@exp1^0,f,c
  3120   001A84                     l2396:
  3121   001A84  5041               	movf	___fltol@exp1^0,w,c
  3122   001A86  A4D8               	btfss	status,2,c
  3123   001A88  EF48  F00D         	goto	u2151
  3124   001A8C  EF4A  F00D         	goto	u2150
  3125   001A90                     u2151:
  3126   001A90  EF3C  F00D         	goto	l2394
  3127   001A94                     u2150:
  3128   001A94                     l2398:
  3129   001A94  5040               	movf	___fltol@sign1^0,w,c
  3130   001A96  B4D8               	btfsc	status,2,c
  3131   001A98  EF50  F00D         	goto	u2161
  3132   001A9C  EF52  F00D         	goto	u2160
  3133   001AA0                     u2161:
  3134   001AA0  EF5A  F00D         	goto	l2402
  3135   001AA4                     u2160:
  3136   001AA4  1E3B               	comf	(___fltol@f1+3)^0,f,c
  3137   001AA6  1E3A               	comf	(___fltol@f1+2)^0,f,c
  3138   001AA8  1E39               	comf	(___fltol@f1+1)^0,f,c
  3139   001AAA  6C38               	negf	___fltol@f1^0,c
  3140   001AAC  0E00               	movlw	0
  3141   001AAE  2239               	addwfc	(___fltol@f1+1)^0,f,c
  3142   001AB0  223A               	addwfc	(___fltol@f1+2)^0,f,c
  3143   001AB2  223B               	addwfc	(___fltol@f1+3)^0,f,c
  3144   001AB4                     l2402:
  3145   001AB4  C038  F038         	movff	___fltol@f1,?___fltol
  3146   001AB8  C039  F039         	movff	___fltol@f1+1,?___fltol+1
  3147   001ABC  C03A  F03A         	movff	___fltol@f1+2,?___fltol+2
  3148   001AC0  C03B  F03B         	movff	___fltol@f1+3,?___fltol+3
  3149   001AC4                     l505:
  3150   001AC4  0012               	return		;funcret
  3151   001AC6                     __end_of___fltol:
  3152                           	callstack 0
  3153                           
  3154 ;; *************** function ___flsub *****************
  3155 ;; Defined at:
  3156 ;;		line 245 in file "C:\Program Files\Microchip\xc8\v2.50\pic\sources\c99\common\sprcadd.c"
  3157 ;; Parameters:    Size  Location     Type
  3158 ;;  b               4   55[COMRAM] long 
  3159 ;;  a               4   59[COMRAM] long 
  3160 ;; Auto vars:     Size  Location     Type
  3161 ;;		None
  3162 ;; Return value:  Size  Location     Type
  3163 ;;                  4   55[COMRAM] long 
  3164 ;; Registers used:
  3165 ;;		wreg, status,2, status,0, cstack
  3166 ;; Tracked objects:
  3167 ;;		On entry : 0/0
  3168 ;;		On exit  : 0/0
  3169 ;;		Unchanged: 0/0
  3170 ;; Data sizes:     COMRAM   BANK0   BANK1   BANK2   BANK3   BANK4   BANK5   BANK6   BANK7
  3171 ;;      Params:         8       0       0       0       0       0       0       0       0
  3172 ;;      Locals:         0       0       0       0       0       0       0       0       0
  3173 ;;      Temps:          0       0       0       0       0       0       0       0       0
  3174 ;;      Totals:         8       0       0       0       0       0       0       0       0
  3175 ;;Total ram usage:        8 bytes
  3176 ;; Hardware stack levels used: 1
  3177 ;; Hardware stack levels required when called: 2
  3178 ;; This function calls:
  3179 ;;		___fladd
  3180 ;; This function is called by:
  3181 ;;		_mapping
  3182 ;; This function uses a non-reentrant model
  3183 ;;
  3184                           
  3185                           	psect	text12
  3186   001E0C                     __ptext12:
  3187                           	callstack 0
  3188   001E0C                     ___flsub:
  3189                           	callstack 27
  3190   001E0C  0E00               	movlw	0
  3191   001E0E  1A3C               	xorwf	___flsub@a^0,f,c
  3192   001E10  0E00               	movlw	0
  3193   001E12  1A3D               	xorwf	(___flsub@a+1)^0,f,c
  3194   001E14  0E00               	movlw	0
  3195   001E16  1A3E               	xorwf	(___flsub@a+2)^0,f,c
  3196   001E18  0E80               	movlw	128
  3197   001E1A  1A3F               	xorwf	(___flsub@a+3)^0,f,c
  3198   001E1C  C038  F028         	movff	___flsub@b,___fladd@b
  3199   001E20  C039  F029         	movff	___flsub@b+1,___fladd@b+1
  3200   001E24  C03A  F02A         	movff	___flsub@b+2,___fladd@b+2
  3201   001E28  C03B  F02B         	movff	___flsub@b+3,___fladd@b+3
  3202   001E2C  C03C  F02C         	movff	___flsub@a,___fladd@a
  3203   001E30  C03D  F02D         	movff	___flsub@a+1,___fladd@a+1
  3204   001E34  C03E  F02E         	movff	___flsub@a+2,___fladd@a+2
  3205   001E38  C03F  F02F         	movff	___flsub@a+3,___fladd@a+3
  3206   001E3C  EC0F  F004         	call	___fladd	;wreg free
  3207   001E40  C028  F038         	movff	?___fladd,?___flsub
  3208   001E44  C029  F039         	movff	?___fladd+1,?___flsub+1
  3209   001E48  C02A  F03A         	movff	?___fladd+2,?___flsub+2
  3210   001E4C  C02B  F03B         	movff	?___fladd+3,?___flsub+3
  3211   001E50  0012               	return		;funcret
  3212   001E52                     __end_of___flsub:
  3213                           	callstack 0
  3214                           
  3215 ;; *************** function ___fladd *****************
  3216 ;; Defined at:
  3217 ;;		line 10 in file "C:\Program Files\Microchip\xc8\v2.50\pic\sources\c99\common\sprcadd.c"
  3218 ;; Parameters:    Size  Location     Type
  3219 ;;  b               4   39[COMRAM] long 
  3220 ;;  a               4   43[COMRAM] long 
  3221 ;; Auto vars:     Size  Location     Type
  3222 ;;  grs             1   54[COMRAM] unsigned char 
  3223 ;;  bexp            1   53[COMRAM] unsigned char 
  3224 ;;  aexp            1   52[COMRAM] unsigned char 
  3225 ;;  signs           1   51[COMRAM] unsigned char 
  3226 ;; Return value:  Size  Location     Type
  3227 ;;                  4   39[COMRAM] unsigned char 
  3228 ;; Registers used:
  3229 ;;		wreg, status,2, status,0
  3230 ;; Tracked objects:
  3231 ;;		On entry : 0/0
  3232 ;;		On exit  : 0/0
  3233 ;;		Unchanged: 0/0
  3234 ;; Data sizes:     COMRAM   BANK0   BANK1   BANK2   BANK3   BANK4   BANK5   BANK6   BANK7
  3235 ;;      Params:         8       0       0       0       0       0       0       0       0
  3236 ;;      Locals:         4       0       0       0       0       0       0       0       0
  3237 ;;      Temps:          4       0       0       0       0       0       0       0       0
  3238 ;;      Totals:        16       0       0       0       0       0       0       0       0
  3239 ;;Total ram usage:       16 bytes
  3240 ;; Hardware stack levels used: 1
  3241 ;; Hardware stack levels required when called: 1
  3242 ;; This function calls:
  3243 ;;		Nothing
  3244 ;; This function is called by:
  3245 ;;		_mapping
  3246 ;;		___flsub
  3247 ;; This function uses a non-reentrant model
  3248 ;;
  3249                           
  3250                           	psect	text13
  3251   00081E                     __ptext13:
  3252                           	callstack 0
  3253   00081E                     ___fladd:
  3254                           	callstack 27
  3255   00081E  502B               	movf	(___fladd@b+3)^0,w,c
  3256   000820  0B80               	andlw	128
  3257   000822  6E34               	movwf	___fladd@signs^0,c
  3258   000824  502B               	movf	(___fladd@b+3)^0,w,c
  3259   000826  242B               	addwf	(___fladd@b+3)^0,w,c
  3260   000828  6E36               	movwf	___fladd@bexp^0,c
  3261   00082A  AE2A               	btfss	(___fladd@b+2)^0,7,c
  3262   00082C  EF1A  F004         	goto	u1281
  3263   000830  EF1C  F004         	goto	u1280
  3264   000834                     u1281:
  3265   000834  EF1D  F004         	goto	l1836
  3266   000838                     u1280:
  3267   000838  8036               	bsf	___fladd@bexp^0,0,c
  3268   00083A                     l1836:
  3269   00083A  5036               	movf	___fladd@bexp^0,w,c
  3270   00083C  B4D8               	btfsc	status,2,c
  3271   00083E  EF23  F004         	goto	u1291
  3272   000842  EF25  F004         	goto	u1290
  3273   000846                     u1291:
  3274   000846  EF39  F004         	goto	l1846
  3275   00084A                     u1290:
  3276   00084A  2836               	incf	___fladd@bexp^0,w,c
  3277   00084C  A4D8               	btfss	status,2,c
  3278   00084E  EF2B  F004         	goto	u1301
  3279   000852  EF2D  F004         	goto	u1300
  3280   000856                     u1301:
  3281   000856  EF35  F004         	goto	l1842
  3282   00085A                     u1300:
  3283   00085A  0E00               	movlw	0
  3284   00085C  6E28               	movwf	___fladd@b^0,c
  3285   00085E  0E00               	movlw	0
  3286   000860  6E29               	movwf	(___fladd@b+1)^0,c
  3287   000862  0E00               	movlw	0
  3288   000864  6E2A               	movwf	(___fladd@b+2)^0,c
  3289   000866  0E00               	movlw	0
  3290   000868  6E2B               	movwf	(___fladd@b+3)^0,c
  3291   00086A                     l1842:
  3292   00086A  8E2A               	bsf	(___fladd@b+2)^0,7,c
  3293   00086C  6A2B               	clrf	(___fladd@b+3)^0,c
  3294   00086E  EF41  F004         	goto	l1848
  3295   000872                     l1846:
  3296   000872  0E00               	movlw	0
  3297   000874  6E28               	movwf	___fladd@b^0,c
  3298   000876  0E00               	movlw	0
  3299   000878  6E29               	movwf	(___fladd@b+1)^0,c
  3300   00087A  0E00               	movlw	0
  3301   00087C  6E2A               	movwf	(___fladd@b+2)^0,c
  3302   00087E  0E00               	movlw	0
  3303   000880  6E2B               	movwf	(___fladd@b+3)^0,c
  3304   000882                     l1848:
  3305   000882  502F               	movf	(___fladd@a+3)^0,w,c
  3306   000884  0B80               	andlw	128
  3307   000886  6E35               	movwf	___fladd@aexp^0,c
  3308   000888  5034               	movf	___fladd@signs^0,w,c
  3309   00088A  1835               	xorwf	___fladd@aexp^0,w,c
  3310   00088C  B4D8               	btfsc	status,2,c
  3311   00088E  EF4B  F004         	goto	u1311
  3312   000892  EF4D  F004         	goto	u1310
  3313   000896                     u1311:
  3314   000896  EF4E  F004         	goto	l1854
  3315   00089A                     u1310:
  3316   00089A  8C34               	bsf	___fladd@signs^0,6,c
  3317   00089C                     l1854:
  3318   00089C  502F               	movf	(___fladd@a+3)^0,w,c
  3319   00089E  242F               	addwf	(___fladd@a+3)^0,w,c
  3320   0008A0  6E35               	movwf	___fladd@aexp^0,c
  3321   0008A2  AE2E               	btfss	(___fladd@a+2)^0,7,c
  3322   0008A4  EF56  F004         	goto	u1321
  3323   0008A8  EF58  F004         	goto	u1320
  3324   0008AC                     u1321:
  3325   0008AC  EF59  F004         	goto	l1860
  3326   0008B0                     u1320:
  3327   0008B0  8035               	bsf	___fladd@aexp^0,0,c
  3328   0008B2                     l1860:
  3329   0008B2  5035               	movf	___fladd@aexp^0,w,c
  3330   0008B4  B4D8               	btfsc	status,2,c
  3331   0008B6  EF5F  F004         	goto	u1331
  3332   0008BA  EF61  F004         	goto	u1330
  3333   0008BE                     u1331:
  3334   0008BE  EF75  F004         	goto	l1870
  3335   0008C2                     u1330:
  3336   0008C2  2835               	incf	___fladd@aexp^0,w,c
  3337   0008C4  A4D8               	btfss	status,2,c
  3338   0008C6  EF67  F004         	goto	u1341
  3339   0008CA  EF69  F004         	goto	u1340
  3340   0008CE                     u1341:
  3341   0008CE  EF71  F004         	goto	l1866
  3342   0008D2                     u1340:
  3343   0008D2  0E00               	movlw	0
  3344   0008D4  6E2C               	movwf	___fladd@a^0,c
  3345   0008D6  0E00               	movlw	0
  3346   0008D8  6E2D               	movwf	(___fladd@a+1)^0,c
  3347   0008DA  0E00               	movlw	0
  3348   0008DC  6E2E               	movwf	(___fladd@a+2)^0,c
  3349   0008DE  0E00               	movlw	0
  3350   0008E0  6E2F               	movwf	(___fladd@a+3)^0,c
  3351   0008E2                     l1866:
  3352   0008E2  8E2E               	bsf	(___fladd@a+2)^0,7,c
  3353   0008E4  6A2F               	clrf	(___fladd@a+3)^0,c
  3354   0008E6  EF7D  F004         	goto	l1872
  3355   0008EA                     l1870:
  3356   0008EA  0E00               	movlw	0
  3357   0008EC  6E2C               	movwf	___fladd@a^0,c
  3358   0008EE  0E00               	movlw	0
  3359   0008F0  6E2D               	movwf	(___fladd@a+1)^0,c
  3360   0008F2  0E00               	movlw	0
  3361   0008F4  6E2E               	movwf	(___fladd@a+2)^0,c
  3362   0008F6  0E00               	movlw	0
  3363   0008F8  6E2F               	movwf	(___fladd@a+3)^0,c
  3364   0008FA                     l1872:
  3365   0008FA  5036               	movf	___fladd@bexp^0,w,c
  3366   0008FC  5C35               	subwf	___fladd@aexp^0,w,c
  3367   0008FE  B0D8               	btfsc	status,0,c
  3368   000900  EF84  F004         	goto	u1351
  3369   000904  EF86  F004         	goto	u1350
  3370   000908                     u1351:
  3371   000908  EFAD  F004         	goto	l1908
  3372   00090C                     u1350:
  3373   00090C  AC34               	btfss	___fladd@signs^0,6,c
  3374   00090E  EF8B  F004         	goto	u1361
  3375   000912  EF8D  F004         	goto	u1360
  3376   000916                     u1361:
  3377   000916  EF8F  F004         	goto	l1878
  3378   00091A                     u1360:
  3379   00091A  0E80               	movlw	128
  3380   00091C  1A34               	xorwf	___fladd@signs^0,f,c
  3381   00091E                     l1878:
  3382   00091E  C036  F037         	movff	___fladd@bexp,___fladd@grs
  3383   000922  C035  F036         	movff	___fladd@aexp,___fladd@bexp
  3384   000926  C037  F035         	movff	___fladd@grs,___fladd@aexp
  3385   00092A  C028  F037         	movff	___fladd@b,___fladd@grs
  3386   00092E  C02C  F028         	movff	___fladd@a,___fladd@b
  3387   000932  C037  F02C         	movff	___fladd@grs,___fladd@a
  3388   000936  C029  F037         	movff	___fladd@b+1,___fladd@grs
  3389   00093A  C02D  F029         	movff	___fladd@a+1,___fladd@b+1
  3390   00093E  C037  F02D         	movff	___fladd@grs,___fladd@a+1
  3391   000942  C02A  F037         	movff	___fladd@b+2,___fladd@grs
  3392   000946  C02E  F02A         	movff	___fladd@a+2,___fladd@b+2
  3393   00094A  C037  F02E         	movff	___fladd@grs,___fladd@a+2
  3394   00094E  C02B  F037         	movff	___fladd@b+3,___fladd@grs
  3395   000952  C02F  F02B         	movff	___fladd@a+3,___fladd@b+3
  3396   000956  C037  F02F         	movff	___fladd@grs,___fladd@a+3
  3397   00095A                     l1908:
  3398   00095A  6A37               	clrf	___fladd@grs^0,c
  3399   00095C  5036               	movf	___fladd@bexp^0,w,c
  3400   00095E  C035  F030         	movff	___fladd@aexp,??___fladd
  3401   000962  6A31               	clrf	(??___fladd+1)^0,c
  3402   000964  5E30               	subwf	??___fladd^0,f,c
  3403   000966  0E00               	movlw	0
  3404   000968  5A31               	subwfb	(??___fladd+1)^0,f,c
  3405   00096A  BE31               	btfsc	(??___fladd+1)^0,7,c
  3406   00096C  EFC1  F004         	goto	u1371
  3407   000970  5031               	movf	(??___fladd+1)^0,w,c
  3408   000972  E109               	bnz	u1370
  3409   000974  0E1A               	movlw	26
  3410   000976  5C30               	subwf	??___fladd^0,w,c
  3411   000978  A0D8               	btfss	status,0,c
  3412   00097A  EFC1  F004         	goto	u1371
  3413   00097E  EFC3  F004         	goto	u1370
  3414   000982                     u1371:
  3415   000982  EFFA  F004         	goto	l737
  3416   000986                     u1370:
  3417   000986  5028               	movf	___fladd@b^0,w,c
  3418   000988  1029               	iorwf	(___fladd@b+1)^0,w,c
  3419   00098A  102A               	iorwf	(___fladd@b+2)^0,w,c
  3420   00098C  102B               	iorwf	(___fladd@b+3)^0,w,c
  3421   00098E  A4D8               	btfss	status,2,c
  3422   000990  EFCC  F004         	goto	u1381
  3423   000994  EFCF  F004         	goto	u1380
  3424   000998                     u1381:
  3425   000998  0E01               	movlw	1
  3426   00099A  EFD0  F004         	goto	u1390
  3427   00099E                     u1380:
  3428   00099E  0E00               	movlw	0
  3429   0009A0                     u1390:
  3430   0009A0  6E37               	movwf	___fladd@grs^0,c
  3431   0009A2  0E00               	movlw	0
  3432   0009A4  6E28               	movwf	___fladd@b^0,c
  3433   0009A6  0E00               	movlw	0
  3434   0009A8  6E29               	movwf	(___fladd@b+1)^0,c
  3435   0009AA  0E00               	movlw	0
  3436   0009AC  6E2A               	movwf	(___fladd@b+2)^0,c
  3437   0009AE  0E00               	movlw	0
  3438   0009B0  6E2B               	movwf	(___fladd@b+3)^0,c
  3439   0009B2  C035  F036         	movff	___fladd@aexp,___fladd@bexp
  3440   0009B6  EF03  F005         	goto	l736
  3441   0009BA                     l738:
  3442   0009BA  A037               	btfss	___fladd@grs^0,0,c
  3443   0009BC  EFE2  F004         	goto	u1401
  3444   0009C0  EFE4  F004         	goto	u1400
  3445   0009C4                     u1401:
  3446   0009C4  EFEA  F004         	goto	l1918
  3447   0009C8                     u1400:
  3448   0009C8  90D8               	bcf	status,0,c
  3449   0009CA  3037               	rrcf	___fladd@grs^0,w,c
  3450   0009CC  0901               	iorlw	1
  3451   0009CE  6E37               	movwf	___fladd@grs^0,c
  3452   0009D0  EFEC  F004         	goto	l1920
  3453   0009D4                     l1918:
  3454   0009D4  90D8               	bcf	status,0,c
  3455   0009D6  3237               	rrcf	___fladd@grs^0,f,c
  3456   0009D8                     l1920:
  3457   0009D8  A028               	btfss	___fladd@b^0,0,c
  3458   0009DA  EFF1  F004         	goto	u1411
  3459   0009DE  EFF3  F004         	goto	u1410
  3460   0009E2                     u1411:
  3461   0009E2  EFF4  F004         	goto	l1924
  3462   0009E6                     u1410:
  3463   0009E6  8E37               	bsf	___fladd@grs^0,7,c
  3464   0009E8                     l1924:
  3465   0009E8  342B               	rlcf	(___fladd@b+3)^0,w,c
  3466   0009EA  322B               	rrcf	(___fladd@b+3)^0,f,c
  3467   0009EC  322A               	rrcf	(___fladd@b+2)^0,f,c
  3468   0009EE  3229               	rrcf	(___fladd@b+1)^0,f,c
  3469   0009F0  3228               	rrcf	___fladd@b^0,f,c
  3470   0009F2  2A36               	incf	___fladd@bexp^0,f,c
  3471   0009F4                     l737:
  3472   0009F4  5035               	movf	___fladd@aexp^0,w,c
  3473   0009F6  5C36               	subwf	___fladd@bexp^0,w,c
  3474   0009F8  A0D8               	btfss	status,0,c
  3475   0009FA  EF01  F005         	goto	u1421
  3476   0009FE  EF03  F005         	goto	u1420
  3477   000A02                     u1421:
  3478   000A02  EFDD  F004         	goto	l738
  3479   000A06                     u1420:
  3480   000A06                     l736:
  3481   000A06  BC34               	btfsc	___fladd@signs^0,6,c
  3482   000A08  EF08  F005         	goto	u1431
  3483   000A0C  EF0A  F005         	goto	u1430
  3484   000A10                     u1431:
  3485   000A10  EF4A  F005         	goto	l1952
  3486   000A14                     u1430:
  3487   000A14  5036               	movf	___fladd@bexp^0,w,c
  3488   000A16  A4D8               	btfss	status,2,c
  3489   000A18  EF10  F005         	goto	u1441
  3490   000A1C  EF12  F005         	goto	u1440
  3491   000A20                     u1441:
  3492   000A20  EF1C  F005         	goto	l1934
  3493   000A24                     u1440:
  3494   000A24  0E00               	movlw	0
  3495   000A26  6E28               	movwf	?___fladd^0,c
  3496   000A28  0E00               	movlw	0
  3497   000A2A  6E29               	movwf	(?___fladd+1)^0,c
  3498   000A2C  0E00               	movlw	0
  3499   000A2E  6E2A               	movwf	(?___fladd+2)^0,c
  3500   000A30  0E00               	movlw	0
  3501   000A32  6E2B               	movwf	(?___fladd+3)^0,c
  3502   000A34  EF69  F006         	goto	l745
  3503   000A38                     l1934:
  3504   000A38  502C               	movf	___fladd@a^0,w,c
  3505   000A3A  2628               	addwf	___fladd@b^0,f,c
  3506   000A3C  502D               	movf	(___fladd@a+1)^0,w,c
  3507   000A3E  2229               	addwfc	(___fladd@b+1)^0,f,c
  3508   000A40  502E               	movf	(___fladd@a+2)^0,w,c
  3509   000A42  222A               	addwfc	(___fladd@b+2)^0,f,c
  3510   000A44  502F               	movf	(___fladd@a+3)^0,w,c
  3511   000A46  222B               	addwfc	(___fladd@b+3)^0,f,c
  3512   000A48  A02B               	btfss	(___fladd@b+3)^0,0,c
  3513   000A4A  EF29  F005         	goto	u1451
  3514   000A4E  EF2B  F005         	goto	u1450
  3515   000A52                     u1451:
  3516   000A52  EFD7  F005         	goto	l750
  3517   000A56                     u1450:
  3518   000A56  A037               	btfss	___fladd@grs^0,0,c
  3519   000A58  EF30  F005         	goto	u1461
  3520   000A5C  EF32  F005         	goto	u1460
  3521   000A60                     u1461:
  3522   000A60  EF38  F005         	goto	l1942
  3523   000A64                     u1460:
  3524   000A64  90D8               	bcf	status,0,c
  3525   000A66  3037               	rrcf	___fladd@grs^0,w,c
  3526   000A68  0901               	iorlw	1
  3527   000A6A  6E37               	movwf	___fladd@grs^0,c
  3528   000A6C  EF3A  F005         	goto	l1944
  3529   000A70                     l1942:
  3530   000A70  90D8               	bcf	status,0,c
  3531   000A72  3237               	rrcf	___fladd@grs^0,f,c
  3532   000A74                     l1944:
  3533   000A74  A028               	btfss	___fladd@b^0,0,c
  3534   000A76  EF3F  F005         	goto	u1471
  3535   000A7A  EF41  F005         	goto	u1470
  3536   000A7E                     u1471:
  3537   000A7E  EF42  F005         	goto	l1948
  3538   000A82                     u1470:
  3539   000A82  8E37               	bsf	___fladd@grs^0,7,c
  3540   000A84                     l1948:
  3541   000A84  342B               	rlcf	(___fladd@b+3)^0,w,c
  3542   000A86  322B               	rrcf	(___fladd@b+3)^0,f,c
  3543   000A88  322A               	rrcf	(___fladd@b+2)^0,f,c
  3544   000A8A  3229               	rrcf	(___fladd@b+1)^0,f,c
  3545   000A8C  3228               	rrcf	___fladd@b^0,f,c
  3546   000A8E  2A36               	incf	___fladd@bexp^0,f,c
  3547   000A90  EFD7  F005         	goto	l750
  3548   000A94                     l1952:
  3549   000A94  502C               	movf	___fladd@a^0,w,c
  3550   000A96  5C28               	subwf	___fladd@b^0,w,c
  3551   000A98  502D               	movf	(___fladd@a+1)^0,w,c
  3552   000A9A  5829               	subwfb	(___fladd@b+1)^0,w,c
  3553   000A9C  502E               	movf	(___fladd@a+2)^0,w,c
  3554   000A9E  582A               	subwfb	(___fladd@b+2)^0,w,c
  3555   000AA0  502B               	movf	(___fladd@b+3)^0,w,c
  3556   000AA2  0A80               	xorlw	128
  3557   000AA4  6E30               	movwf	??___fladd^0,c
  3558   000AA6  502F               	movf	(___fladd@a+3)^0,w,c
  3559   000AA8  0A80               	xorlw	128
  3560   000AAA  5830               	subwfb	??___fladd^0,w,c
  3561   000AAC  B0D8               	btfsc	status,0,c
  3562   000AAE  EF5B  F005         	goto	u1481
  3563   000AB2  EF5D  F005         	goto	u1480
  3564   000AB6                     u1481:
  3565   000AB6  EF88  F005         	goto	l1962
  3566   000ABA                     u1480:
  3567   000ABA  5028               	movf	___fladd@b^0,w,c
  3568   000ABC  5C2C               	subwf	___fladd@a^0,w,c
  3569   000ABE  6E30               	movwf	??___fladd^0,c
  3570   000AC0  5029               	movf	(___fladd@b+1)^0,w,c
  3571   000AC2  582D               	subwfb	(___fladd@a+1)^0,w,c
  3572   000AC4  6E31               	movwf	(??___fladd+1)^0,c
  3573   000AC6  502A               	movf	(___fladd@b+2)^0,w,c
  3574   000AC8  582E               	subwfb	(___fladd@a+2)^0,w,c
  3575   000ACA  6E32               	movwf	(??___fladd+2)^0,c
  3576   000ACC  502B               	movf	(___fladd@b+3)^0,w,c
  3577   000ACE  582F               	subwfb	(___fladd@a+3)^0,w,c
  3578   000AD0  6E33               	movwf	(??___fladd+3)^0,c
  3579   000AD2  0EFF               	movlw	255
  3580   000AD4  2430               	addwf	??___fladd^0,w,c
  3581   000AD6  6E28               	movwf	___fladd@b^0,c
  3582   000AD8  0EFF               	movlw	255
  3583   000ADA  2031               	addwfc	(??___fladd+1)^0,w,c
  3584   000ADC  6E29               	movwf	(___fladd@b+1)^0,c
  3585   000ADE  0EFF               	movlw	255
  3586   000AE0  2032               	addwfc	(??___fladd+2)^0,w,c
  3587   000AE2  6E2A               	movwf	(___fladd@b+2)^0,c
  3588   000AE4  0EFF               	movlw	255
  3589   000AE6  2033               	addwfc	(??___fladd+3)^0,w,c
  3590   000AE8  6E2B               	movwf	(___fladd@b+3)^0,c
  3591   000AEA  0E80               	movlw	128
  3592   000AEC  1A34               	xorwf	___fladd@signs^0,f,c
  3593   000AEE  6C37               	negf	___fladd@grs^0,c
  3594   000AF0  5037               	movf	___fladd@grs^0,w,c
  3595   000AF2  A4D8               	btfss	status,2,c
  3596   000AF4  EF7E  F005         	goto	u1491
  3597   000AF8  EF80  F005         	goto	u1490
  3598   000AFC                     u1491:
  3599   000AFC  EF90  F005         	goto	l753
  3600   000B00                     u1490:
  3601   000B00  0E01               	movlw	1
  3602   000B02  2628               	addwf	___fladd@b^0,f,c
  3603   000B04  0E00               	movlw	0
  3604   000B06  2229               	addwfc	(___fladd@b+1)^0,f,c
  3605   000B08  222A               	addwfc	(___fladd@b+2)^0,f,c
  3606   000B0A  222B               	addwfc	(___fladd@b+3)^0,f,c
  3607   000B0C  EF90  F005         	goto	l753
  3608   000B10                     l1962:
  3609   000B10  502C               	movf	___fladd@a^0,w,c
  3610   000B12  5E28               	subwf	___fladd@b^0,f,c
  3611   000B14  502D               	movf	(___fladd@a+1)^0,w,c
  3612   000B16  5A29               	subwfb	(___fladd@b+1)^0,f,c
  3613   000B18  502E               	movf	(___fladd@a+2)^0,w,c
  3614   000B1A  5A2A               	subwfb	(___fladd@b+2)^0,f,c
  3615   000B1C  502F               	movf	(___fladd@a+3)^0,w,c
  3616   000B1E  5A2B               	subwfb	(___fladd@b+3)^0,f,c
  3617   000B20                     l753:
  3618   000B20  5028               	movf	___fladd@b^0,w,c
  3619   000B22  1029               	iorwf	(___fladd@b+1)^0,w,c
  3620   000B24  102A               	iorwf	(___fladd@b+2)^0,w,c
  3621   000B26  102B               	iorwf	(___fladd@b+3)^0,w,c
  3622   000B28  A4D8               	btfss	status,2,c
  3623   000B2A  EF99  F005         	goto	u1501
  3624   000B2E  EF9B  F005         	goto	u1500
  3625   000B32                     u1501:
  3626   000B32  EFD0  F005         	goto	l1986
  3627   000B36                     u1500:
  3628   000B36  5037               	movf	___fladd@grs^0,w,c
  3629   000B38  A4D8               	btfss	status,2,c
  3630   000B3A  EFA1  F005         	goto	u1511
  3631   000B3E  EFA3  F005         	goto	u1510
  3632   000B42                     u1511:
  3633   000B42  EFD0  F005         	goto	l1986
  3634   000B46                     u1510:
  3635   000B46  0E00               	movlw	0
  3636   000B48  6E28               	movwf	?___fladd^0,c
  3637   000B4A  0E00               	movlw	0
  3638   000B4C  6E29               	movwf	(?___fladd+1)^0,c
  3639   000B4E  0E00               	movlw	0
  3640   000B50  6E2A               	movwf	(?___fladd+2)^0,c
  3641   000B52  0E00               	movlw	0
  3642   000B54  6E2B               	movwf	(?___fladd+3)^0,c
  3643   000B56  EF69  F006         	goto	l745
  3644   000B5A                     l1970:
  3645   000B5A  90D8               	bcf	status,0,c
  3646   000B5C  3628               	rlcf	___fladd@b^0,f,c
  3647   000B5E  3629               	rlcf	(___fladd@b+1)^0,f,c
  3648   000B60  362A               	rlcf	(___fladd@b+2)^0,f,c
  3649   000B62  362B               	rlcf	(___fladd@b+3)^0,f,c
  3650   000B64  AE37               	btfss	___fladd@grs^0,7,c
  3651   000B66  EFB7  F005         	goto	u1521
  3652   000B6A  EFB9  F005         	goto	u1520
  3653   000B6E                     u1521:
  3654   000B6E  EFBA  F005         	goto	l1976
  3655   000B72                     u1520:
  3656   000B72  8028               	bsf	___fladd@b^0,0,c
  3657   000B74                     l1976:
  3658   000B74  A037               	btfss	___fladd@grs^0,0,c
  3659   000B76  EFBF  F005         	goto	u1531
  3660   000B7A  EFC1  F005         	goto	u1530
  3661   000B7E                     u1531:
  3662   000B7E  EFC5  F005         	goto	l1980
  3663   000B82                     u1530:
  3664   000B82  80D8               	bsf	status,0,c
  3665   000B84  3637               	rlcf	___fladd@grs^0,f,c
  3666   000B86  EFC7  F005         	goto	l1982
  3667   000B8A                     l1980:
  3668   000B8A  90D8               	bcf	status,0,c
  3669   000B8C  3637               	rlcf	___fladd@grs^0,f,c
  3670   000B8E                     l1982:
  3671   000B8E  5036               	movf	___fladd@bexp^0,w,c
  3672   000B90  B4D8               	btfsc	status,2,c
  3673   000B92  EFCD  F005         	goto	u1541
  3674   000B96  EFCF  F005         	goto	u1540
  3675   000B9A                     u1541:
  3676   000B9A  EFD0  F005         	goto	l1986
  3677   000B9E                     u1540:
  3678   000B9E  0636               	decf	___fladd@bexp^0,f,c
  3679   000BA0                     l1986:
  3680   000BA0  AE2A               	btfss	(___fladd@b+2)^0,7,c
  3681   000BA2  EFD5  F005         	goto	u1551
  3682   000BA6  EFD7  F005         	goto	u1550
  3683   000BAA                     u1551:
  3684   000BAA  EFAD  F005         	goto	l1970
  3685   000BAE                     u1550:
  3686   000BAE                     l750:
  3687   000BAE  6A35               	clrf	___fladd@aexp^0,c
  3688   000BB0  AE37               	btfss	___fladd@grs^0,7,c
  3689   000BB2  EFDD  F005         	goto	u1561
  3690   000BB6  EFDF  F005         	goto	u1560
  3691   000BBA                     u1561:
  3692   000BBA  EFF7  F005         	goto	l762
  3693   000BBE                     u1560:
  3694   000BBE  C037  F030         	movff	___fladd@grs,??___fladd
  3695   000BC2  0E7F               	movlw	127
  3696   000BC4  1630               	andwf	??___fladd^0,f,c
  3697   000BC6  B4D8               	btfsc	status,2,c
  3698   000BC8  EFE8  F005         	goto	u1571
  3699   000BCC  EFEA  F005         	goto	u1570
  3700   000BD0                     u1571:
  3701   000BD0  EFEE  F005         	goto	l763
  3702   000BD4                     u1570:
  3703   000BD4                     l1990:
  3704   000BD4  0E01               	movlw	1
  3705   000BD6  6E35               	movwf	___fladd@aexp^0,c
  3706   000BD8  EFF7  F005         	goto	l762
  3707   000BDC                     l763:
  3708   000BDC  A028               	btfss	___fladd@b^0,0,c
  3709   000BDE  EFF3  F005         	goto	u1581
  3710   000BE2  EFF5  F005         	goto	u1580
  3711   000BE6                     u1581:
  3712   000BE6  EFF7  F005         	goto	l762
  3713   000BEA                     u1580:
  3714   000BEA  EFEA  F005         	goto	l1990
  3715   000BEE                     l762:
  3716   000BEE  5035               	movf	___fladd@aexp^0,w,c
  3717   000BF0  B4D8               	btfsc	status,2,c
  3718   000BF2  EFFD  F005         	goto	u1591
  3719   000BF6  EFFF  F005         	goto	u1590
  3720   000BFA                     u1591:
  3721   000BFA  EF2A  F006         	goto	l2002
  3722   000BFE                     u1590:
  3723   000BFE  0E01               	movlw	1
  3724   000C00  2628               	addwf	___fladd@b^0,f,c
  3725   000C02  0E00               	movlw	0
  3726   000C04  2229               	addwfc	(___fladd@b+1)^0,f,c
  3727   000C06  222A               	addwfc	(___fladd@b+2)^0,f,c
  3728   000C08  222B               	addwfc	(___fladd@b+3)^0,f,c
  3729   000C0A  A02B               	btfss	(___fladd@b+3)^0,0,c
  3730   000C0C  EF0A  F006         	goto	u1601
  3731   000C10  EF0C  F006         	goto	u1600
  3732   000C14                     u1601:
  3733   000C14  EF2A  F006         	goto	l2002
  3734   000C18                     u1600:
  3735   000C18  C028  F030         	movff	___fladd@b,??___fladd
  3736   000C1C  C029  F031         	movff	___fladd@b+1,??___fladd+1
  3737   000C20  C02A  F032         	movff	___fladd@b+2,??___fladd+2
  3738   000C24  C02B  F033         	movff	___fladd@b+3,??___fladd+3
  3739   000C28  3433               	rlcf	(??___fladd+3)^0,w,c
  3740   000C2A  3233               	rrcf	(??___fladd+3)^0,f,c
  3741   000C2C  3232               	rrcf	(??___fladd+2)^0,f,c
  3742   000C2E  3231               	rrcf	(??___fladd+1)^0,f,c
  3743   000C30  3230               	rrcf	??___fladd^0,f,c
  3744   000C32  C030  F028         	movff	??___fladd,___fladd@b
  3745   000C36  C031  F029         	movff	??___fladd+1,___fladd@b+1
  3746   000C3A  C032  F02A         	movff	??___fladd+2,___fladd@b+2
  3747   000C3E  C033  F02B         	movff	??___fladd+3,___fladd@b+3
  3748   000C42  2836               	incf	___fladd@bexp^0,w,c
  3749   000C44  B4D8               	btfsc	status,2,c
  3750   000C46  EF27  F006         	goto	u1611
  3751   000C4A  EF29  F006         	goto	u1610
  3752   000C4E                     u1611:
  3753   000C4E  EF2A  F006         	goto	l2002
  3754   000C52                     u1610:
  3755   000C52  2A36               	incf	___fladd@bexp^0,f,c
  3756   000C54                     l2002:
  3757   000C54  2836               	incf	___fladd@bexp^0,w,c
  3758   000C56  B4D8               	btfsc	status,2,c
  3759   000C58  EF30  F006         	goto	u1621
  3760   000C5C  EF32  F006         	goto	u1620
  3761   000C60                     u1621:
  3762   000C60  EF3A  F006         	goto	l2006
  3763   000C64                     u1620:
  3764   000C64  5036               	movf	___fladd@bexp^0,w,c
  3765   000C66  A4D8               	btfss	status,2,c
  3766   000C68  EF38  F006         	goto	u1631
  3767   000C6C  EF3A  F006         	goto	u1630
  3768   000C70                     u1631:
  3769   000C70  EF4B  F006         	goto	l769
  3770   000C74                     u1630:
  3771   000C74                     l2006:
  3772   000C74  0E00               	movlw	0
  3773   000C76  6E28               	movwf	___fladd@b^0,c
  3774   000C78  0E00               	movlw	0
  3775   000C7A  6E29               	movwf	(___fladd@b+1)^0,c
  3776   000C7C  0E00               	movlw	0
  3777   000C7E  6E2A               	movwf	(___fladd@b+2)^0,c
  3778   000C80  0E00               	movlw	0
  3779   000C82  6E2B               	movwf	(___fladd@b+3)^0,c
  3780   000C84  5036               	movf	___fladd@bexp^0,w,c
  3781   000C86  A4D8               	btfss	status,2,c
  3782   000C88  EF48  F006         	goto	u1641
  3783   000C8C  EF4A  F006         	goto	u1640
  3784   000C90                     u1641:
  3785   000C90  EF4B  F006         	goto	l769
  3786   000C94                     u1640:
  3787   000C94  6A34               	clrf	___fladd@signs^0,c
  3788   000C96                     l769:
  3789   000C96  A036               	btfss	___fladd@bexp^0,0,c
  3790   000C98  EF50  F006         	goto	u1651
  3791   000C9C  EF52  F006         	goto	u1650
  3792   000CA0                     u1651:
  3793   000CA0  EF55  F006         	goto	l2012
  3794   000CA4                     u1650:
  3795   000CA4  8E2A               	bsf	(___fladd@b+2)^0,7,c
  3796   000CA6  EF56  F006         	goto	l2014
  3797   000CAA                     l2012:
  3798   000CAA  9E2A               	bcf	(___fladd@b+2)^0,7,c
  3799   000CAC                     l2014:
  3800   000CAC  90D8               	bcf	status,0,c
  3801   000CAE  3036               	rrcf	___fladd@bexp^0,w,c
  3802   000CB0  6E2B               	movwf	(___fladd@b+3)^0,c
  3803   000CB2  AE34               	btfss	___fladd@signs^0,7,c
  3804   000CB4  EF5E  F006         	goto	u1661
  3805   000CB8  EF60  F006         	goto	u1660
  3806   000CBC                     u1661:
  3807   000CBC  EF61  F006         	goto	l2020
  3808   000CC0                     u1660:
  3809   000CC0  8E2B               	bsf	(___fladd@b+3)^0,7,c
  3810   000CC2                     l2020:
  3811   000CC2  C028  F028         	movff	___fladd@b,?___fladd
  3812   000CC6  C029  F029         	movff	___fladd@b+1,?___fladd+1
  3813   000CCA  C02A  F02A         	movff	___fladd@b+2,?___fladd+2
  3814   000CCE  C02B  F02B         	movff	___fladd@b+3,?___fladd+3
  3815   000CD2                     l745:
  3816   000CD2  0012               	return		;funcret
  3817   000CD4                     __end_of___fladd:
  3818                           	callstack 0
  3819                           
  3820 ;; *************** function ___flmul *****************
  3821 ;; Defined at:
  3822 ;;		line 8 in file "C:\Program Files\Microchip\xc8\v2.50\pic\sources\c99\common\sprcmul.c"
  3823 ;; Parameters:    Size  Location     Type
  3824 ;;  b               4   14[COMRAM] unsigned char 
  3825 ;;  a               4   18[COMRAM] unsigned char 
  3826 ;; Auto vars:     Size  Location     Type
  3827 ;;  prod            4   33[COMRAM] struct .
  3828 ;;  grs             4   27[COMRAM] unsigned long 
  3829 ;;  temp            2   37[COMRAM] struct .
  3830 ;;  bexp            1   32[COMRAM] unsigned char 
  3831 ;;  aexp            1   31[COMRAM] unsigned char 
  3832 ;;  sign            1   26[COMRAM] unsigned char 
  3833 ;; Return value:  Size  Location     Type
  3834 ;;                  4   14[COMRAM] unsigned char 
  3835 ;; Registers used:
  3836 ;;		wreg, status,2, status,0, prodl, prodh
  3837 ;; Tracked objects:
  3838 ;;		On entry : 0/0
  3839 ;;		On exit  : 0/0
  3840 ;;		Unchanged: 0/0
  3841 ;; Data sizes:     COMRAM   BANK0   BANK1   BANK2   BANK3   BANK4   BANK5   BANK6   BANK7
  3842 ;;      Params:         8       0       0       0       0       0       0       0       0
  3843 ;;      Locals:        13       0       0       0       0       0       0       0       0
  3844 ;;      Temps:          4       0       0       0       0       0       0       0       0
  3845 ;;      Totals:        25       0       0       0       0       0       0       0       0
  3846 ;;Total ram usage:       25 bytes
  3847 ;; Hardware stack levels used: 1
  3848 ;; Hardware stack levels required when called: 1
  3849 ;; This function calls:
  3850 ;;		Nothing
  3851 ;; This function is called by:
  3852 ;;		_mapping
  3853 ;; This function uses a non-reentrant model
  3854 ;;
  3855                           
  3856                           	psect	text14
  3857   000CD4                     __ptext14:
  3858                           	callstack 0
  3859   000CD4                     ___flmul:
  3860                           	callstack 28
  3861   000CD4  5012               	movf	(___flmul@b+3)^0,w,c
  3862   000CD6  0B80               	andlw	128
  3863   000CD8  6E1B               	movwf	___flmul@sign^0,c
  3864   000CDA  5012               	movf	(___flmul@b+3)^0,w,c
  3865   000CDC  2412               	addwf	(___flmul@b+3)^0,w,c
  3866   000CDE  6E21               	movwf	___flmul@bexp^0,c
  3867   000CE0  AE11               	btfss	(___flmul@b+2)^0,7,c
  3868   000CE2  EF75  F006         	goto	u1911
  3869   000CE6  EF77  F006         	goto	u1910
  3870   000CEA                     u1911:
  3871   000CEA  EF78  F006         	goto	l2234
  3872   000CEE                     u1910:
  3873   000CEE  8021               	bsf	___flmul@bexp^0,0,c
  3874   000CF0                     l2234:
  3875   000CF0  5021               	movf	___flmul@bexp^0,w,c
  3876   000CF2  B4D8               	btfsc	status,2,c
  3877   000CF4  EF7E  F006         	goto	u1921
  3878   000CF8  EF80  F006         	goto	u1920
  3879   000CFC                     u1921:
  3880   000CFC  EF93  F006         	goto	l2242
  3881   000D00                     u1920:
  3882   000D00  2821               	incf	___flmul@bexp^0,w,c
  3883   000D02  A4D8               	btfss	status,2,c
  3884   000D04  EF86  F006         	goto	u1931
  3885   000D08  EF88  F006         	goto	u1930
  3886   000D0C                     u1931:
  3887   000D0C  EF90  F006         	goto	l2240
  3888   000D10                     u1930:
  3889   000D10  0E00               	movlw	0
  3890   000D12  6E0F               	movwf	___flmul@b^0,c
  3891   000D14  0E00               	movlw	0
  3892   000D16  6E10               	movwf	(___flmul@b+1)^0,c
  3893   000D18  0E00               	movlw	0
  3894   000D1A  6E11               	movwf	(___flmul@b+2)^0,c
  3895   000D1C  0E00               	movlw	0
  3896   000D1E  6E12               	movwf	(___flmul@b+3)^0,c
  3897   000D20                     l2240:
  3898   000D20  8E11               	bsf	(___flmul@b+2)^0,7,c
  3899   000D22  EF9B  F006         	goto	l2244
  3900   000D26                     l2242:
  3901   000D26  0E00               	movlw	0
  3902   000D28  6E0F               	movwf	___flmul@b^0,c
  3903   000D2A  0E00               	movlw	0
  3904   000D2C  6E10               	movwf	(___flmul@b+1)^0,c
  3905   000D2E  0E00               	movlw	0
  3906   000D30  6E11               	movwf	(___flmul@b+2)^0,c
  3907   000D32  0E00               	movlw	0
  3908   000D34  6E12               	movwf	(___flmul@b+3)^0,c
  3909   000D36                     l2244:
  3910   000D36  5016               	movf	(___flmul@a+3)^0,w,c
  3911   000D38  0B80               	andlw	128
  3912   000D3A  1A1B               	xorwf	___flmul@sign^0,f,c
  3913   000D3C  5016               	movf	(___flmul@a+3)^0,w,c
  3914   000D3E  2416               	addwf	(___flmul@a+3)^0,w,c
  3915   000D40  6E20               	movwf	___flmul@aexp^0,c
  3916   000D42  AE15               	btfss	(___flmul@a+2)^0,7,c
  3917   000D44  EFA6  F006         	goto	u1941
  3918   000D48  EFA8  F006         	goto	u1940
  3919   000D4C                     u1941:
  3920   000D4C  EFA9  F006         	goto	l2252
  3921   000D50                     u1940:
  3922   000D50  8020               	bsf	___flmul@aexp^0,0,c
  3923   000D52                     l2252:
  3924   000D52  5020               	movf	___flmul@aexp^0,w,c
  3925   000D54  B4D8               	btfsc	status,2,c
  3926   000D56  EFAF  F006         	goto	u1951
  3927   000D5A  EFB1  F006         	goto	u1950
  3928   000D5E                     u1951:
  3929   000D5E  EFC4  F006         	goto	l2260
  3930   000D62                     u1950:
  3931   000D62  2820               	incf	___flmul@aexp^0,w,c
  3932   000D64  A4D8               	btfss	status,2,c
  3933   000D66  EFB7  F006         	goto	u1961
  3934   000D6A  EFB9  F006         	goto	u1960
  3935   000D6E                     u1961:
  3936   000D6E  EFC1  F006         	goto	l2258
  3937   000D72                     u1960:
  3938   000D72  0E00               	movlw	0
  3939   000D74  6E13               	movwf	___flmul@a^0,c
  3940   000D76  0E00               	movlw	0
  3941   000D78  6E14               	movwf	(___flmul@a+1)^0,c
  3942   000D7A  0E00               	movlw	0
  3943   000D7C  6E15               	movwf	(___flmul@a+2)^0,c
  3944   000D7E  0E00               	movlw	0
  3945   000D80  6E16               	movwf	(___flmul@a+3)^0,c
  3946   000D82                     l2258:
  3947   000D82  8E15               	bsf	(___flmul@a+2)^0,7,c
  3948   000D84  EFCC  F006         	goto	l822
  3949   000D88                     l2260:
  3950   000D88  0E00               	movlw	0
  3951   000D8A  6E13               	movwf	___flmul@a^0,c
  3952   000D8C  0E00               	movlw	0
  3953   000D8E  6E14               	movwf	(___flmul@a+1)^0,c
  3954   000D90  0E00               	movlw	0
  3955   000D92  6E15               	movwf	(___flmul@a+2)^0,c
  3956   000D94  0E00               	movlw	0
  3957   000D96  6E16               	movwf	(___flmul@a+3)^0,c
  3958   000D98                     l822:
  3959   000D98  5020               	movf	___flmul@aexp^0,w,c
  3960   000D9A  B4D8               	btfsc	status,2,c
  3961   000D9C  EFD2  F006         	goto	u1971
  3962   000DA0  EFD4  F006         	goto	u1970
  3963   000DA4                     u1971:
  3964   000DA4  EFDC  F006         	goto	l2264
  3965   000DA8                     u1970:
  3966   000DA8  5021               	movf	___flmul@bexp^0,w,c
  3967   000DAA  A4D8               	btfss	status,2,c
  3968   000DAC  EFDA  F006         	goto	u1981
  3969   000DB0  EFDC  F006         	goto	u1980
  3970   000DB4                     u1981:
  3971   000DB4  EFE6  F006         	goto	l2268
  3972   000DB8                     u1980:
  3973   000DB8                     l2264:
  3974   000DB8  0E00               	movlw	0
  3975   000DBA  6E0F               	movwf	?___flmul^0,c
  3976   000DBC  0E00               	movlw	0
  3977   000DBE  6E10               	movwf	(?___flmul+1)^0,c
  3978   000DC0  0E00               	movlw	0
  3979   000DC2  6E11               	movwf	(?___flmul+2)^0,c
  3980   000DC4  0E00               	movlw	0
  3981   000DC6  6E12               	movwf	(?___flmul+3)^0,c
  3982   000DC8  EF7C  F008         	goto	l826
  3983   000DCC                     l2268:
  3984   000DCC  5015               	movf	(___flmul@a+2)^0,w,c
  3985   000DCE  020F               	mulwf	___flmul@b^0,c
  3986   000DD0  CFF3 F026          	movff	prodl,___flmul@temp
  3987   000DD4  CFF4 F027          	movff	prodh,___flmul@temp+1
  3988   000DD8  5026               	movf	___flmul@temp^0,w,c
  3989   000DDA  6E1C               	movwf	___flmul@grs^0,c
  3990   000DDC  6A1D               	clrf	(___flmul@grs+1)^0,c
  3991   000DDE  6A1E               	clrf	(___flmul@grs+2)^0,c
  3992   000DE0  6A1F               	clrf	(___flmul@grs+3)^0,c
  3993   000DE2  5027               	movf	(___flmul@temp+1)^0,w,c
  3994   000DE4  6E22               	movwf	___flmul@prod^0,c
  3995   000DE6  6A23               	clrf	(___flmul@prod+1)^0,c
  3996   000DE8  6A24               	clrf	(___flmul@prod+2)^0,c
  3997   000DEA  6A25               	clrf	(___flmul@prod+3)^0,c
  3998   000DEC  5014               	movf	(___flmul@a+1)^0,w,c
  3999   000DEE  0210               	mulwf	(___flmul@b+1)^0,c
  4000   000DF0  CFF3 F026          	movff	prodl,___flmul@temp
  4001   000DF4  CFF4 F027          	movff	prodh,___flmul@temp+1
  4002   000DF8  5026               	movf	___flmul@temp^0,w,c
  4003   000DFA  261C               	addwf	___flmul@grs^0,f,c
  4004   000DFC  0E00               	movlw	0
  4005   000DFE  221D               	addwfc	(___flmul@grs+1)^0,f,c
  4006   000E00  221E               	addwfc	(___flmul@grs+2)^0,f,c
  4007   000E02  221F               	addwfc	(___flmul@grs+3)^0,f,c
  4008   000E04  5027               	movf	(___flmul@temp+1)^0,w,c
  4009   000E06  2622               	addwf	___flmul@prod^0,f,c
  4010   000E08  0E00               	movlw	0
  4011   000E0A  2223               	addwfc	(___flmul@prod+1)^0,f,c
  4012   000E0C  2224               	addwfc	(___flmul@prod+2)^0,f,c
  4013   000E0E  2225               	addwfc	(___flmul@prod+3)^0,f,c
  4014   000E10  5013               	movf	___flmul@a^0,w,c
  4015   000E12  0211               	mulwf	(___flmul@b+2)^0,c
  4016   000E14  CFF3 F026          	movff	prodl,___flmul@temp
  4017   000E18  CFF4 F027          	movff	prodh,___flmul@temp+1
  4018   000E1C  5026               	movf	___flmul@temp^0,w,c
  4019   000E1E  261C               	addwf	___flmul@grs^0,f,c
  4020   000E20  0E00               	movlw	0
  4021   000E22  221D               	addwfc	(___flmul@grs+1)^0,f,c
  4022   000E24  221E               	addwfc	(___flmul@grs+2)^0,f,c
  4023   000E26  221F               	addwfc	(___flmul@grs+3)^0,f,c
  4024   000E28  5027               	movf	(___flmul@temp+1)^0,w,c
  4025   000E2A  2622               	addwf	___flmul@prod^0,f,c
  4026   000E2C  0E00               	movlw	0
  4027   000E2E  2223               	addwfc	(___flmul@prod+1)^0,f,c
  4028   000E30  2224               	addwfc	(___flmul@prod+2)^0,f,c
  4029   000E32  2225               	addwfc	(___flmul@prod+3)^0,f,c
  4030   000E34  C01E  F01F         	movff	___flmul@grs+2,___flmul@grs+3
  4031   000E38  C01D  F01E         	movff	___flmul@grs+1,___flmul@grs+2
  4032   000E3C  C01C  F01D         	movff	___flmul@grs,___flmul@grs+1
  4033   000E40  6A1C               	clrf	___flmul@grs^0,c
  4034   000E42  5013               	movf	___flmul@a^0,w,c
  4035   000E44  0210               	mulwf	(___flmul@b+1)^0,c
  4036   000E46  CFF3 F026          	movff	prodl,___flmul@temp
  4037   000E4A  CFF4 F027          	movff	prodh,___flmul@temp+1
  4038   000E4E  5026               	movf	___flmul@temp^0,w,c
  4039   000E50  261C               	addwf	___flmul@grs^0,f,c
  4040   000E52  5027               	movf	(___flmul@temp+1)^0,w,c
  4041   000E54  221D               	addwfc	(___flmul@grs+1)^0,f,c
  4042   000E56  0E00               	movlw	0
  4043   000E58  221E               	addwfc	(___flmul@grs+2)^0,f,c
  4044   000E5A  0E00               	movlw	0
  4045   000E5C  221F               	addwfc	(___flmul@grs+3)^0,f,c
  4046   000E5E  5014               	movf	(___flmul@a+1)^0,w,c
  4047   000E60  020F               	mulwf	___flmul@b^0,c
  4048   000E62  CFF3 F026          	movff	prodl,___flmul@temp
  4049   000E66  CFF4 F027          	movff	prodh,___flmul@temp+1
  4050   000E6A  5026               	movf	___flmul@temp^0,w,c
  4051   000E6C  261C               	addwf	___flmul@grs^0,f,c
  4052   000E6E  5027               	movf	(___flmul@temp+1)^0,w,c
  4053   000E70  221D               	addwfc	(___flmul@grs+1)^0,f,c
  4054   000E72  0E00               	movlw	0
  4055   000E74  221E               	addwfc	(___flmul@grs+2)^0,f,c
  4056   000E76  0E00               	movlw	0
  4057   000E78  221F               	addwfc	(___flmul@grs+3)^0,f,c
  4058   000E7A  C01E  F01F         	movff	___flmul@grs+2,___flmul@grs+3
  4059   000E7E  C01D  F01E         	movff	___flmul@grs+1,___flmul@grs+2
  4060   000E82  C01C  F01D         	movff	___flmul@grs,___flmul@grs+1
  4061   000E86  6A1C               	clrf	___flmul@grs^0,c
  4062   000E88  5013               	movf	___flmul@a^0,w,c
  4063   000E8A  020F               	mulwf	___flmul@b^0,c
  4064   000E8C  CFF3 F026          	movff	prodl,___flmul@temp
  4065   000E90  CFF4 F027          	movff	prodh,___flmul@temp+1
  4066   000E94  5026               	movf	___flmul@temp^0,w,c
  4067   000E96  261C               	addwf	___flmul@grs^0,f,c
  4068   000E98  5027               	movf	(___flmul@temp+1)^0,w,c
  4069   000E9A  221D               	addwfc	(___flmul@grs+1)^0,f,c
  4070   000E9C  0E00               	movlw	0
  4071   000E9E  221E               	addwfc	(___flmul@grs+2)^0,f,c
  4072   000EA0  0E00               	movlw	0
  4073   000EA2  221F               	addwfc	(___flmul@grs+3)^0,f,c
  4074   000EA4  5015               	movf	(___flmul@a+2)^0,w,c
  4075   000EA6  0210               	mulwf	(___flmul@b+1)^0,c
  4076   000EA8  CFF3 F026          	movff	prodl,___flmul@temp
  4077   000EAC  CFF4 F027          	movff	prodh,___flmul@temp+1
  4078   000EB0  5026               	movf	___flmul@temp^0,w,c
  4079   000EB2  2622               	addwf	___flmul@prod^0,f,c
  4080   000EB4  5027               	movf	(___flmul@temp+1)^0,w,c
  4081   000EB6  2223               	addwfc	(___flmul@prod+1)^0,f,c
  4082   000EB8  0E00               	movlw	0
  4083   000EBA  2224               	addwfc	(___flmul@prod+2)^0,f,c
  4084   000EBC  0E00               	movlw	0
  4085   000EBE  2225               	addwfc	(___flmul@prod+3)^0,f,c
  4086   000EC0  5014               	movf	(___flmul@a+1)^0,w,c
  4087   000EC2  0211               	mulwf	(___flmul@b+2)^0,c
  4088   000EC4  CFF3 F026          	movff	prodl,___flmul@temp
  4089   000EC8  CFF4 F027          	movff	prodh,___flmul@temp+1
  4090   000ECC  5026               	movf	___flmul@temp^0,w,c
  4091   000ECE  2622               	addwf	___flmul@prod^0,f,c
  4092   000ED0  5027               	movf	(___flmul@temp+1)^0,w,c
  4093   000ED2  2223               	addwfc	(___flmul@prod+1)^0,f,c
  4094   000ED4  0E00               	movlw	0
  4095   000ED6  2224               	addwfc	(___flmul@prod+2)^0,f,c
  4096   000ED8  0E00               	movlw	0
  4097   000EDA  2225               	addwfc	(___flmul@prod+3)^0,f,c
  4098   000EDC  5015               	movf	(___flmul@a+2)^0,w,c
  4099   000EDE  0211               	mulwf	(___flmul@b+2)^0,c
  4100   000EE0  CFF3 F026          	movff	prodl,___flmul@temp
  4101   000EE4  CFF4 F027          	movff	prodh,___flmul@temp+1
  4102   000EE8  5026               	movf	___flmul@temp^0,w,c
  4103   000EEA  6E17               	movwf	??___flmul^0,c
  4104   000EEC  5027               	movf	(___flmul@temp+1)^0,w,c
  4105   000EEE  6E18               	movwf	(??___flmul+1)^0,c
  4106   000EF0  6A19               	clrf	(??___flmul+2)^0,c
  4107   000EF2  6A1A               	clrf	(??___flmul+3)^0,c
  4108   000EF4  C019  F01A         	movff	??___flmul+2,??___flmul+3
  4109   000EF8  C018  F019         	movff	??___flmul+1,??___flmul+2
  4110   000EFC  C017  F018         	movff	??___flmul,??___flmul+1
  4111   000F00  6A17               	clrf	??___flmul^0,c
  4112   000F02  5017               	movf	??___flmul^0,w,c
  4113   000F04  2622               	addwf	___flmul@prod^0,f,c
  4114   000F06  5018               	movf	(??___flmul+1)^0,w,c
  4115   000F08  2223               	addwfc	(___flmul@prod+1)^0,f,c
  4116   000F0A  5019               	movf	(??___flmul+2)^0,w,c
  4117   000F0C  2224               	addwfc	(___flmul@prod+2)^0,f,c
  4118   000F0E  501A               	movf	(??___flmul+3)^0,w,c
  4119   000F10  2225               	addwfc	(___flmul@prod+3)^0,f,c
  4120   000F12  C01C  F017         	movff	___flmul@grs,??___flmul
  4121   000F16  C01D  F018         	movff	___flmul@grs+1,??___flmul+1
  4122   000F1A  C01E  F019         	movff	___flmul@grs+2,??___flmul+2
  4123   000F1E  C01F  F01A         	movff	___flmul@grs+3,??___flmul+3
  4124   000F22  0E19               	movlw	25
  4125   000F24  EF99  F007         	goto	u1990
  4126   000F28                     u1995:
  4127   000F28  90D8               	bcf	status,0,c
  4128   000F2A  321A               	rrcf	(??___flmul+3)^0,f,c
  4129   000F2C  3219               	rrcf	(??___flmul+2)^0,f,c
  4130   000F2E  3218               	rrcf	(??___flmul+1)^0,f,c
  4131   000F30  3217               	rrcf	??___flmul^0,f,c
  4132   000F32                     u1990:
  4133   000F32  2EE8               	decfsz	wreg,f,c
  4134   000F34  EF94  F007         	goto	u1995
  4135   000F38  5017               	movf	??___flmul^0,w,c
  4136   000F3A  2622               	addwf	___flmul@prod^0,f,c
  4137   000F3C  5018               	movf	(??___flmul+1)^0,w,c
  4138   000F3E  2223               	addwfc	(___flmul@prod+1)^0,f,c
  4139   000F40  5019               	movf	(??___flmul+2)^0,w,c
  4140   000F42  2224               	addwfc	(___flmul@prod+2)^0,f,c
  4141   000F44  501A               	movf	(??___flmul+3)^0,w,c
  4142   000F46  2225               	addwfc	(___flmul@prod+3)^0,f,c
  4143   000F48  C01E  F01F         	movff	___flmul@grs+2,___flmul@grs+3
  4144   000F4C  C01D  F01E         	movff	___flmul@grs+1,___flmul@grs+2
  4145   000F50  C01C  F01D         	movff	___flmul@grs,___flmul@grs+1
  4146   000F54  6A1C               	clrf	___flmul@grs^0,c
  4147   000F56  5020               	movf	___flmul@aexp^0,w,c
  4148   000F58  C021  F017         	movff	___flmul@bexp,??___flmul
  4149   000F5C  6A18               	clrf	(??___flmul+1)^0,c
  4150   000F5E  2617               	addwf	??___flmul^0,f,c
  4151   000F60  0E00               	movlw	0
  4152   000F62  2218               	addwfc	(??___flmul+1)^0,f,c
  4153   000F64  0E82               	movlw	130
  4154   000F66  2417               	addwf	??___flmul^0,w,c
  4155   000F68  6E26               	movwf	___flmul@temp^0,c
  4156   000F6A  0EFF               	movlw	255
  4157   000F6C  2018               	addwfc	(??___flmul+1)^0,w,c
  4158   000F6E  6E27               	movwf	(___flmul@temp+1)^0,c
  4159   000F70  EFCF  F007         	goto	l2316
  4160   000F74                     l2310:
  4161   000F74  90D8               	bcf	status,0,c
  4162   000F76  3622               	rlcf	___flmul@prod^0,f,c
  4163   000F78  3623               	rlcf	(___flmul@prod+1)^0,f,c
  4164   000F7A  3624               	rlcf	(___flmul@prod+2)^0,f,c
  4165   000F7C  3625               	rlcf	(___flmul@prod+3)^0,f,c
  4166   000F7E  AE1F               	btfss	(___flmul@grs+3)^0,7,c
  4167   000F80  EFC4  F007         	goto	u2001
  4168   000F84  EFC6  F007         	goto	u2000
  4169   000F88                     u2001:
  4170   000F88  EFC7  F007         	goto	l829
  4171   000F8C                     u2000:
  4172   000F8C  8022               	bsf	___flmul@prod^0,0,c
  4173   000F8E                     l829:
  4174   000F8E  90D8               	bcf	status,0,c
  4175   000F90  361C               	rlcf	___flmul@grs^0,f,c
  4176   000F92  361D               	rlcf	(___flmul@grs+1)^0,f,c
  4177   000F94  361E               	rlcf	(___flmul@grs+2)^0,f,c
  4178   000F96  361F               	rlcf	(___flmul@grs+3)^0,f,c
  4179   000F98  0626               	decf	___flmul@temp^0,f,c
  4180   000F9A  A0D8               	btfss	status,0,c
  4181   000F9C  0627               	decf	(___flmul@temp+1)^0,f,c
  4182   000F9E                     l2316:
  4183   000F9E  AE24               	btfss	(___flmul@prod+2)^0,7,c
  4184   000FA0  EFD4  F007         	goto	u2011
  4185   000FA4  EFD6  F007         	goto	u2010
  4186   000FA8                     u2011:
  4187   000FA8  EFBA  F007         	goto	l2310
  4188   000FAC                     u2010:
  4189   000FAC  6A20               	clrf	___flmul@aexp^0,c
  4190   000FAE  AE1F               	btfss	(___flmul@grs+3)^0,7,c
  4191   000FB0  EFDC  F007         	goto	u2021
  4192   000FB4  EFDE  F007         	goto	u2020
  4193   000FB8                     u2021:
  4194   000FB8  EF02  F008         	goto	l831
  4195   000FBC                     u2020:
  4196   000FBC  0EFF               	movlw	255
  4197   000FBE  141C               	andwf	___flmul@grs^0,w,c
  4198   000FC0  6E17               	movwf	??___flmul^0,c
  4199   000FC2  0EFF               	movlw	255
  4200   000FC4  141D               	andwf	(___flmul@grs+1)^0,w,c
  4201   000FC6  6E18               	movwf	(??___flmul+1)^0,c
  4202   000FC8  0EFF               	movlw	255
  4203   000FCA  141E               	andwf	(___flmul@grs+2)^0,w,c
  4204   000FCC  6E19               	movwf	(??___flmul+2)^0,c
  4205   000FCE  0E7F               	movlw	127
  4206   000FD0  141F               	andwf	(___flmul@grs+3)^0,w,c
  4207   000FD2  6E1A               	movwf	(??___flmul+3)^0,c
  4208   000FD4  5017               	movf	??___flmul^0,w,c
  4209   000FD6  1018               	iorwf	(??___flmul+1)^0,w,c
  4210   000FD8  1019               	iorwf	(??___flmul+2)^0,w,c
  4211   000FDA  101A               	iorwf	(??___flmul+3)^0,w,c
  4212   000FDC  B4D8               	btfsc	status,2,c
  4213   000FDE  EFF3  F007         	goto	u2031
  4214   000FE2  EFF5  F007         	goto	u2030
  4215   000FE6                     u2031:
  4216   000FE6  EFF9  F007         	goto	l832
  4217   000FEA                     u2030:
  4218   000FEA                     l2320:
  4219   000FEA  0E01               	movlw	1
  4220   000FEC  6E20               	movwf	___flmul@aexp^0,c
  4221   000FEE  EF02  F008         	goto	l831
  4222   000FF2                     l832:
  4223   000FF2  A022               	btfss	___flmul@prod^0,0,c
  4224   000FF4  EFFE  F007         	goto	u2041
  4225   000FF8  EF00  F008         	goto	u2040
  4226   000FFC                     u2041:
  4227   000FFC  EF02  F008         	goto	l831
  4228   001000                     u2040:
  4229   001000  EFF5  F007         	goto	l2320
  4230   001004                     l831:
  4231   001004  5020               	movf	___flmul@aexp^0,w,c
  4232   001006  B4D8               	btfsc	status,2,c
  4233   001008  EF08  F008         	goto	u2051
  4234   00100C  EF0A  F008         	goto	u2050
  4235   001010                     u2051:
  4236   001010  EF2E  F008         	goto	l2332
  4237   001014                     u2050:
  4238   001014  0E01               	movlw	1
  4239   001016  2622               	addwf	___flmul@prod^0,f,c
  4240   001018  0E00               	movlw	0
  4241   00101A  2223               	addwfc	(___flmul@prod+1)^0,f,c
  4242   00101C  2224               	addwfc	(___flmul@prod+2)^0,f,c
  4243   00101E  2225               	addwfc	(___flmul@prod+3)^0,f,c
  4244   001020  A025               	btfss	(___flmul@prod+3)^0,0,c
  4245   001022  EF15  F008         	goto	u2061
  4246   001026  EF17  F008         	goto	u2060
  4247   00102A                     u2061:
  4248   00102A  EF2E  F008         	goto	l2332
  4249   00102E                     u2060:
  4250   00102E  C022  F017         	movff	___flmul@prod,??___flmul
  4251   001032  C023  F018         	movff	___flmul@prod+1,??___flmul+1
  4252   001036  C024  F019         	movff	___flmul@prod+2,??___flmul+2
  4253   00103A  C025  F01A         	movff	___flmul@prod+3,??___flmul+3
  4254   00103E  341A               	rlcf	(??___flmul+3)^0,w,c
  4255   001040  321A               	rrcf	(??___flmul+3)^0,f,c
  4256   001042  3219               	rrcf	(??___flmul+2)^0,f,c
  4257   001044  3218               	rrcf	(??___flmul+1)^0,f,c
  4258   001046  3217               	rrcf	??___flmul^0,f,c
  4259   001048  C017  F022         	movff	??___flmul,___flmul@prod
  4260   00104C  C018  F023         	movff	??___flmul+1,___flmul@prod+1
  4261   001050  C019  F024         	movff	??___flmul+2,___flmul@prod+2
  4262   001054  C01A  F025         	movff	??___flmul+3,___flmul@prod+3
  4263   001058  4A26               	infsnz	___flmul@temp^0,f,c
  4264   00105A  2A27               	incf	(___flmul@temp+1)^0,f,c
  4265   00105C                     l2332:
  4266   00105C  BE27               	btfsc	(___flmul@temp+1)^0,7,c
  4267   00105E  EF39  F008         	goto	u2071
  4268   001062  5027               	movf	(___flmul@temp+1)^0,w,c
  4269   001064  E108               	bnz	u2070
  4270   001066  2826               	incf	___flmul@temp^0,w,c
  4271   001068  A0D8               	btfss	status,0,c
  4272   00106A  EF39  F008         	goto	u2071
  4273   00106E  EF3B  F008         	goto	u2070
  4274   001072                     u2071:
  4275   001072  EF45  F008         	goto	l2336
  4276   001076                     u2070:
  4277   001076  0E00               	movlw	0
  4278   001078  6E22               	movwf	___flmul@prod^0,c
  4279   00107A  0E00               	movlw	0
  4280   00107C  6E23               	movwf	(___flmul@prod+1)^0,c
  4281   00107E  0E80               	movlw	128
  4282   001080  6E24               	movwf	(___flmul@prod+2)^0,c
  4283   001082  0E7F               	movlw	127
  4284   001084  6E25               	movwf	(___flmul@prod+3)^0,c
  4285   001086  EF72  F008         	goto	l2350
  4286   00108A                     l2336:
  4287   00108A  BE27               	btfsc	(___flmul@temp+1)^0,7,c
  4288   00108C  EF52  F008         	goto	u2080
  4289   001090  5027               	movf	(___flmul@temp+1)^0,w,c
  4290   001092  E106               	bnz	u2081
  4291   001094  0426               	decf	___flmul@temp^0,w,c
  4292   001096  B0D8               	btfsc	status,0,c
  4293   001098  EF50  F008         	goto	u2081
  4294   00109C  EF52  F008         	goto	u2080
  4295   0010A0                     u2081:
  4296   0010A0  EF5D  F008         	goto	l839
  4297   0010A4                     u2080:
  4298   0010A4  0E00               	movlw	0
  4299   0010A6  6E22               	movwf	___flmul@prod^0,c
  4300   0010A8  0E00               	movlw	0
  4301   0010AA  6E23               	movwf	(___flmul@prod+1)^0,c
  4302   0010AC  0E00               	movlw	0
  4303   0010AE  6E24               	movwf	(___flmul@prod+2)^0,c
  4304   0010B0  0E00               	movlw	0
  4305   0010B2  6E25               	movwf	(___flmul@prod+3)^0,c
  4306   0010B4  6A1B               	clrf	___flmul@sign^0,c
  4307   0010B6  EF72  F008         	goto	l2350
  4308   0010BA                     l839:
  4309   0010BA  C026  F021         	movff	___flmul@temp,___flmul@bexp
  4310   0010BE  0EFF               	movlw	255
  4311   0010C0  1622               	andwf	___flmul@prod^0,f,c
  4312   0010C2  0EFF               	movlw	255
  4313   0010C4  1623               	andwf	(___flmul@prod+1)^0,f,c
  4314   0010C6  0E7F               	movlw	127
  4315   0010C8  1624               	andwf	(___flmul@prod+2)^0,f,c
  4316   0010CA  0E00               	movlw	0
  4317   0010CC  1625               	andwf	(___flmul@prod+3)^0,f,c
  4318   0010CE  A021               	btfss	___flmul@bexp^0,0,c
  4319   0010D0  EF6C  F008         	goto	u2091
  4320   0010D4  EF6E  F008         	goto	u2090
  4321   0010D8                     u2091:
  4322   0010D8  EF6F  F008         	goto	l2348
  4323   0010DC                     u2090:
  4324   0010DC  8E24               	bsf	(___flmul@prod+2)^0,7,c
  4325   0010DE                     l2348:
  4326   0010DE  90D8               	bcf	status,0,c
  4327   0010E0  3021               	rrcf	___flmul@bexp^0,w,c
  4328   0010E2  6E25               	movwf	(___flmul@prod+3)^0,c
  4329   0010E4                     l2350:
  4330   0010E4  501B               	movf	___flmul@sign^0,w,c
  4331   0010E6  1225               	iorwf	(___flmul@prod+3)^0,f,c
  4332   0010E8  C022  F00F         	movff	___flmul@prod,?___flmul
  4333   0010EC  C023  F010         	movff	___flmul@prod+1,?___flmul+1
  4334   0010F0  C024  F011         	movff	___flmul@prod+2,?___flmul+2
  4335   0010F4  C025  F012         	movff	___flmul@prod+3,?___flmul+3
  4336   0010F8                     l826:
  4337   0010F8  0012               	return		;funcret
  4338   0010FA                     __end_of___flmul:
  4339                           	callstack 0
  4340                           
  4341 ;; *************** function ___fldiv *****************
  4342 ;; Defined at:
  4343 ;;		line 11 in file "C:\Program Files\Microchip\xc8\v2.50\pic\sources\c99\common\sprcdiv.c"
  4344 ;; Parameters:    Size  Location     Type
  4345 ;;  b               4   63[COMRAM] unsigned char 
  4346 ;;  a               4   67[COMRAM] unsigned char 
  4347 ;; Auto vars:     Size  Location     Type
  4348 ;;  grs             4   82[COMRAM] unsigned long 
  4349 ;;  rem             4   75[COMRAM] unsigned long 
  4350 ;;  new_exp         2   80[COMRAM] short 
  4351 ;;  aexp            1   87[COMRAM] unsigned char 
  4352 ;;  bexp            1   86[COMRAM] unsigned char 
  4353 ;;  sign            1   79[COMRAM] unsigned char 
  4354 ;; Return value:  Size  Location     Type
  4355 ;;                  4   63[COMRAM] unsigned char 
  4356 ;; Registers used:
  4357 ;;		wreg, status,2, status,0
  4358 ;; Tracked objects:
  4359 ;;		On entry : 0/0
  4360 ;;		On exit  : 0/0
  4361 ;;		Unchanged: 0/0
  4362 ;; Data sizes:     COMRAM   BANK0   BANK1   BANK2   BANK3   BANK4   BANK5   BANK6   BANK7
  4363 ;;      Params:         8       0       0       0       0       0       0       0       0
  4364 ;;      Locals:        13       0       0       0       0       0       0       0       0
  4365 ;;      Temps:          4       0       0       0       0       0       0       0       0
  4366 ;;      Totals:        25       0       0       0       0       0       0       0       0
  4367 ;;Total ram usage:       25 bytes
  4368 ;; Hardware stack levels used: 1
  4369 ;; Hardware stack levels required when called: 1
  4370 ;; This function calls:
  4371 ;;		Nothing
  4372 ;; This function is called by:
  4373 ;;		_mapping
  4374 ;; This function uses a non-reentrant model
  4375 ;;
  4376                           
  4377                           	psect	text15
  4378   0010FA                     __ptext15:
  4379                           	callstack 0
  4380   0010FA                     ___fldiv:
  4381                           	callstack 28
  4382   0010FA  5043               	movf	(___fldiv@b+3)^0,w,c
  4383   0010FC  0B80               	andlw	128
  4384   0010FE  6E50               	movwf	___fldiv@sign^0,c
  4385   001100  5043               	movf	(___fldiv@b+3)^0,w,c
  4386   001102  2443               	addwf	(___fldiv@b+3)^0,w,c
  4387   001104  6E57               	movwf	___fldiv@bexp^0,c
  4388   001106  AE42               	btfss	(___fldiv@b+2)^0,7,c
  4389   001108  EF88  F008         	goto	u1681
  4390   00110C  EF8A  F008         	goto	u1680
  4391   001110                     u1681:
  4392   001110  EF8B  F008         	goto	l2098
  4393   001114                     u1680:
  4394   001114  8057               	bsf	___fldiv@bexp^0,0,c
  4395   001116                     l2098:
  4396   001116  5057               	movf	___fldiv@bexp^0,w,c
  4397   001118  B4D8               	btfsc	status,2,c
  4398   00111A  EF91  F008         	goto	u1691
  4399   00111E  EF93  F008         	goto	u1690
  4400   001122                     u1691:
  4401   001122  EFA7  F008         	goto	l2108
  4402   001126                     u1690:
  4403   001126  2857               	incf	___fldiv@bexp^0,w,c
  4404   001128  A4D8               	btfss	status,2,c
  4405   00112A  EF99  F008         	goto	u1701
  4406   00112E  EF9B  F008         	goto	u1700
  4407   001132                     u1701:
  4408   001132  EFA3  F008         	goto	l2104
  4409   001136                     u1700:
  4410   001136  0E00               	movlw	0
  4411   001138  6E40               	movwf	___fldiv@b^0,c
  4412   00113A  0E00               	movlw	0
  4413   00113C  6E41               	movwf	(___fldiv@b+1)^0,c
  4414   00113E  0E00               	movlw	0
  4415   001140  6E42               	movwf	(___fldiv@b+2)^0,c
  4416   001142  0E00               	movlw	0
  4417   001144  6E43               	movwf	(___fldiv@b+3)^0,c
  4418   001146                     l2104:
  4419   001146  8E42               	bsf	(___fldiv@b+2)^0,7,c
  4420   001148  6A43               	clrf	(___fldiv@b+3)^0,c
  4421   00114A  EFAF  F008         	goto	l2110
  4422   00114E                     l2108:
  4423   00114E  0E00               	movlw	0
  4424   001150  6E40               	movwf	___fldiv@b^0,c
  4425   001152  0E00               	movlw	0
  4426   001154  6E41               	movwf	(___fldiv@b+1)^0,c
  4427   001156  0E00               	movlw	0
  4428   001158  6E42               	movwf	(___fldiv@b+2)^0,c
  4429   00115A  0E00               	movlw	0
  4430   00115C  6E43               	movwf	(___fldiv@b+3)^0,c
  4431   00115E                     l2110:
  4432   00115E  5047               	movf	(___fldiv@a+3)^0,w,c
  4433   001160  0B80               	andlw	128
  4434   001162  1A50               	xorwf	___fldiv@sign^0,f,c
  4435   001164  5047               	movf	(___fldiv@a+3)^0,w,c
  4436   001166  2447               	addwf	(___fldiv@a+3)^0,w,c
  4437   001168  6E58               	movwf	___fldiv@aexp^0,c
  4438   00116A  AE46               	btfss	(___fldiv@a+2)^0,7,c
  4439   00116C  EFBA  F008         	goto	u1711
  4440   001170  EFBC  F008         	goto	u1710
  4441   001174                     u1711:
  4442   001174  EFBD  F008         	goto	l2118
  4443   001178                     u1710:
  4444   001178  8058               	bsf	___fldiv@aexp^0,0,c
  4445   00117A                     l2118:
  4446   00117A  5058               	movf	___fldiv@aexp^0,w,c
  4447   00117C  B4D8               	btfsc	status,2,c
  4448   00117E  EFC3  F008         	goto	u1721
  4449   001182  EFC5  F008         	goto	u1720
  4450   001186                     u1721:
  4451   001186  EFD9  F008         	goto	l2128
  4452   00118A                     u1720:
  4453   00118A  2858               	incf	___fldiv@aexp^0,w,c
  4454   00118C  A4D8               	btfss	status,2,c
  4455   00118E  EFCB  F008         	goto	u1731
  4456   001192  EFCD  F008         	goto	u1730
  4457   001196                     u1731:
  4458   001196  EFD5  F008         	goto	l2124
  4459   00119A                     u1730:
  4460   00119A  0E00               	movlw	0
  4461   00119C  6E44               	movwf	___fldiv@a^0,c
  4462   00119E  0E00               	movlw	0
  4463   0011A0  6E45               	movwf	(___fldiv@a+1)^0,c
  4464   0011A2  0E00               	movlw	0
  4465   0011A4  6E46               	movwf	(___fldiv@a+2)^0,c
  4466   0011A6  0E00               	movlw	0
  4467   0011A8  6E47               	movwf	(___fldiv@a+3)^0,c
  4468   0011AA                     l2124:
  4469   0011AA  8E46               	bsf	(___fldiv@a+2)^0,7,c
  4470   0011AC  6A47               	clrf	(___fldiv@a+3)^0,c
  4471   0011AE  EFE1  F008         	goto	l2130
  4472   0011B2                     l2128:
  4473   0011B2  0E00               	movlw	0
  4474   0011B4  6E44               	movwf	___fldiv@a^0,c
  4475   0011B6  0E00               	movlw	0
  4476   0011B8  6E45               	movwf	(___fldiv@a+1)^0,c
  4477   0011BA  0E00               	movlw	0
  4478   0011BC  6E46               	movwf	(___fldiv@a+2)^0,c
  4479   0011BE  0E00               	movlw	0
  4480   0011C0  6E47               	movwf	(___fldiv@a+3)^0,c
  4481   0011C2                     l2130:
  4482   0011C2  5044               	movf	___fldiv@a^0,w,c
  4483   0011C4  1045               	iorwf	(___fldiv@a+1)^0,w,c
  4484   0011C6  1046               	iorwf	(___fldiv@a+2)^0,w,c
  4485   0011C8  1047               	iorwf	(___fldiv@a+3)^0,w,c
  4486   0011CA  A4D8               	btfss	status,2,c
  4487   0011CC  EFEA  F008         	goto	u1741
  4488   0011D0  EFEC  F008         	goto	u1740
  4489   0011D4                     u1741:
  4490   0011D4  EF04  F009         	goto	l2142
  4491   0011D8                     u1740:
  4492   0011D8  0E00               	movlw	0
  4493   0011DA  6E40               	movwf	___fldiv@b^0,c
  4494   0011DC  0E00               	movlw	0
  4495   0011DE  6E41               	movwf	(___fldiv@b+1)^0,c
  4496   0011E0  0E00               	movlw	0
  4497   0011E2  6E42               	movwf	(___fldiv@b+2)^0,c
  4498   0011E4  0E00               	movlw	0
  4499   0011E6  6E43               	movwf	(___fldiv@b+3)^0,c
  4500   0011E8  0E80               	movlw	128
  4501   0011EA  1242               	iorwf	(___fldiv@b+2)^0,f,c
  4502   0011EC  0E7F               	movlw	127
  4503   0011EE  1243               	iorwf	(___fldiv@b+3)^0,f,c
  4504   0011F0                     l2136:
  4505   0011F0  5050               	movf	___fldiv@sign^0,w,c
  4506   0011F2  1243               	iorwf	(___fldiv@b+3)^0,f,c
  4507   0011F4  C040  F040         	movff	___fldiv@b,?___fldiv
  4508   0011F8  C041  F041         	movff	___fldiv@b+1,?___fldiv+1
  4509   0011FC  C042  F042         	movff	___fldiv@b+2,?___fldiv+2
  4510   001200  C043  F043         	movff	___fldiv@b+3,?___fldiv+3
  4511   001204  EF44  F00A         	goto	l790
  4512   001208                     l2142:
  4513   001208  5057               	movf	___fldiv@bexp^0,w,c
  4514   00120A  A4D8               	btfss	status,2,c
  4515   00120C  EF0A  F009         	goto	u1751
  4516   001210  EF0C  F009         	goto	u1750
  4517   001214                     u1751:
  4518   001214  EF16  F009         	goto	l2150
  4519   001218                     u1750:
  4520   001218  0E00               	movlw	0
  4521   00121A  6E40               	movwf	?___fldiv^0,c
  4522   00121C  0E00               	movlw	0
  4523   00121E  6E41               	movwf	(?___fldiv+1)^0,c
  4524   001220  0E00               	movlw	0
  4525   001222  6E42               	movwf	(?___fldiv+2)^0,c
  4526   001224  0E00               	movlw	0
  4527   001226  6E43               	movwf	(?___fldiv+3)^0,c
  4528   001228  EF44  F00A         	goto	l790
  4529   00122C                     l2150:
  4530   00122C  5058               	movf	___fldiv@aexp^0,w,c
  4531   00122E  C057  F048         	movff	___fldiv@bexp,??___fldiv
  4532   001232  6A49               	clrf	(??___fldiv+1)^0,c
  4533   001234  5E48               	subwf	??___fldiv^0,f,c
  4534   001236  0E00               	movlw	0
  4535   001238  5A49               	subwfb	(??___fldiv+1)^0,f,c
  4536   00123A  0E7F               	movlw	127
  4537   00123C  2448               	addwf	??___fldiv^0,w,c
  4538   00123E  6E51               	movwf	___fldiv@new_exp^0,c
  4539   001240  0E00               	movlw	0
  4540   001242  2049               	addwfc	(??___fldiv+1)^0,w,c
  4541   001244  6E52               	movwf	(___fldiv@new_exp+1)^0,c
  4542   001246  C040  F04C         	movff	___fldiv@b,___fldiv@rem
  4543   00124A  C041  F04D         	movff	___fldiv@b+1,___fldiv@rem+1
  4544   00124E  C042  F04E         	movff	___fldiv@b+2,___fldiv@rem+2
  4545   001252  C043  F04F         	movff	___fldiv@b+3,___fldiv@rem+3
  4546   001256  0E00               	movlw	0
  4547   001258  6E40               	movwf	___fldiv@b^0,c
  4548   00125A  0E00               	movlw	0
  4549   00125C  6E41               	movwf	(___fldiv@b+1)^0,c
  4550   00125E  0E00               	movlw	0
  4551   001260  6E42               	movwf	(___fldiv@b+2)^0,c
  4552   001262  0E00               	movlw	0
  4553   001264  6E43               	movwf	(___fldiv@b+3)^0,c
  4554   001266  0E00               	movlw	0
  4555   001268  6E53               	movwf	___fldiv@grs^0,c
  4556   00126A  0E00               	movlw	0
  4557   00126C  6E54               	movwf	(___fldiv@grs+1)^0,c
  4558   00126E  0E00               	movlw	0
  4559   001270  6E55               	movwf	(___fldiv@grs+2)^0,c
  4560   001272  0E00               	movlw	0
  4561   001274  6E56               	movwf	(___fldiv@grs+3)^0,c
  4562   001276  6A58               	clrf	___fldiv@aexp^0,c
  4563   001278  EF76  F009         	goto	l792
  4564   00127C                     l2160:
  4565   00127C  5058               	movf	___fldiv@aexp^0,w,c
  4566   00127E  B4D8               	btfsc	status,2,c
  4567   001280  EF44  F009         	goto	u1761
  4568   001284  EF46  F009         	goto	u1760
  4569   001288                     u1761:
  4570   001288  EF5D  F009         	goto	l2168
  4571   00128C                     u1760:
  4572   00128C  90D8               	bcf	status,0,c
  4573   00128E  364C               	rlcf	___fldiv@rem^0,f,c
  4574   001290  364D               	rlcf	(___fldiv@rem+1)^0,f,c
  4575   001292  364E               	rlcf	(___fldiv@rem+2)^0,f,c
  4576   001294  364F               	rlcf	(___fldiv@rem+3)^0,f,c
  4577   001296  90D8               	bcf	status,0,c
  4578   001298  3640               	rlcf	___fldiv@b^0,f,c
  4579   00129A  3641               	rlcf	(___fldiv@b+1)^0,f,c
  4580   00129C  3642               	rlcf	(___fldiv@b+2)^0,f,c
  4581   00129E  3643               	rlcf	(___fldiv@b+3)^0,f,c
  4582   0012A0  AE56               	btfss	(___fldiv@grs+3)^0,7,c
  4583   0012A2  EF55  F009         	goto	u1771
  4584   0012A6  EF57  F009         	goto	u1770
  4585   0012AA                     u1771:
  4586   0012AA  EF58  F009         	goto	l795
  4587   0012AE                     u1770:
  4588   0012AE  8040               	bsf	___fldiv@b^0,0,c
  4589   0012B0                     l795:
  4590   0012B0  90D8               	bcf	status,0,c
  4591   0012B2  3653               	rlcf	___fldiv@grs^0,f,c
  4592   0012B4  3654               	rlcf	(___fldiv@grs+1)^0,f,c
  4593   0012B6  3655               	rlcf	(___fldiv@grs+2)^0,f,c
  4594   0012B8  3656               	rlcf	(___fldiv@grs+3)^0,f,c
  4595   0012BA                     l2168:
  4596   0012BA  5044               	movf	___fldiv@a^0,w,c
  4597   0012BC  5C4C               	subwf	___fldiv@rem^0,w,c
  4598   0012BE  5045               	movf	(___fldiv@a+1)^0,w,c
  4599   0012C0  584D               	subwfb	(___fldiv@rem+1)^0,w,c
  4600   0012C2  5046               	movf	(___fldiv@a+2)^0,w,c
  4601   0012C4  584E               	subwfb	(___fldiv@rem+2)^0,w,c
  4602   0012C6  5047               	movf	(___fldiv@a+3)^0,w,c
  4603   0012C8  584F               	subwfb	(___fldiv@rem+3)^0,w,c
  4604   0012CA  A0D8               	btfss	status,0,c
  4605   0012CC  EF6A  F009         	goto	u1781
  4606   0012D0  EF6C  F009         	goto	u1780
  4607   0012D4                     u1781:
  4608   0012D4  EF75  F009         	goto	l2174
  4609   0012D8                     u1780:
  4610   0012D8  8C56               	bsf	(___fldiv@grs+3)^0,6,c
  4611   0012DA  5044               	movf	___fldiv@a^0,w,c
  4612   0012DC  5E4C               	subwf	___fldiv@rem^0,f,c
  4613   0012DE  5045               	movf	(___fldiv@a+1)^0,w,c
  4614   0012E0  5A4D               	subwfb	(___fldiv@rem+1)^0,f,c
  4615   0012E2  5046               	movf	(___fldiv@a+2)^0,w,c
  4616   0012E4  5A4E               	subwfb	(___fldiv@rem+2)^0,f,c
  4617   0012E6  5047               	movf	(___fldiv@a+3)^0,w,c
  4618   0012E8  5A4F               	subwfb	(___fldiv@rem+3)^0,f,c
  4619   0012EA                     l2174:
  4620   0012EA  2A58               	incf	___fldiv@aexp^0,f,c
  4621   0012EC                     l792:
  4622   0012EC  0E19               	movlw	25
  4623   0012EE  6458               	cpfsgt	___fldiv@aexp^0,c
  4624   0012F0  EF7C  F009         	goto	u1791
  4625   0012F4  EF7E  F009         	goto	u1790
  4626   0012F8                     u1791:
  4627   0012F8  EF3E  F009         	goto	l2160
  4628   0012FC                     u1790:
  4629   0012FC  504C               	movf	___fldiv@rem^0,w,c
  4630   0012FE  104D               	iorwf	(___fldiv@rem+1)^0,w,c
  4631   001300  104E               	iorwf	(___fldiv@rem+2)^0,w,c
  4632   001302  104F               	iorwf	(___fldiv@rem+3)^0,w,c
  4633   001304  B4D8               	btfsc	status,2,c
  4634   001306  EF87  F009         	goto	u1801
  4635   00130A  EF89  F009         	goto	u1800
  4636   00130E                     u1801:
  4637   00130E  EFA1  F009         	goto	l2186
  4638   001312                     u1800:
  4639   001312  8053               	bsf	___fldiv@grs^0,0,c
  4640   001314  EFA1  F009         	goto	l2186
  4641   001318                     l2180:
  4642   001318  90D8               	bcf	status,0,c
  4643   00131A  3640               	rlcf	___fldiv@b^0,f,c
  4644   00131C  3641               	rlcf	(___fldiv@b+1)^0,f,c
  4645   00131E  3642               	rlcf	(___fldiv@b+2)^0,f,c
  4646   001320  3643               	rlcf	(___fldiv@b+3)^0,f,c
  4647   001322  AE56               	btfss	(___fldiv@grs+3)^0,7,c
  4648   001324  EF96  F009         	goto	u1811
  4649   001328  EF98  F009         	goto	u1810
  4650   00132C                     u1811:
  4651   00132C  EF99  F009         	goto	l801
  4652   001330                     u1810:
  4653   001330  8040               	bsf	___fldiv@b^0,0,c
  4654   001332                     l801:
  4655   001332  90D8               	bcf	status,0,c
  4656   001334  3653               	rlcf	___fldiv@grs^0,f,c
  4657   001336  3654               	rlcf	(___fldiv@grs+1)^0,f,c
  4658   001338  3655               	rlcf	(___fldiv@grs+2)^0,f,c
  4659   00133A  3656               	rlcf	(___fldiv@grs+3)^0,f,c
  4660   00133C  0651               	decf	___fldiv@new_exp^0,f,c
  4661   00133E  A0D8               	btfss	status,0,c
  4662   001340  0652               	decf	(___fldiv@new_exp+1)^0,f,c
  4663   001342                     l2186:
  4664   001342  AE42               	btfss	(___fldiv@b+2)^0,7,c
  4665   001344  EFA6  F009         	goto	u1821
  4666   001348  EFA8  F009         	goto	u1820
  4667   00134C                     u1821:
  4668   00134C  EF8C  F009         	goto	l2180
  4669   001350                     u1820:
  4670   001350  6A58               	clrf	___fldiv@aexp^0,c
  4671   001352  AE56               	btfss	(___fldiv@grs+3)^0,7,c
  4672   001354  EFAE  F009         	goto	u1831
  4673   001358  EFB0  F009         	goto	u1830
  4674   00135C                     u1831:
  4675   00135C  EFD4  F009         	goto	l803
  4676   001360                     u1830:
  4677   001360  0EFF               	movlw	255
  4678   001362  1453               	andwf	___fldiv@grs^0,w,c
  4679   001364  6E48               	movwf	??___fldiv^0,c
  4680   001366  0EFF               	movlw	255
  4681   001368  1454               	andwf	(___fldiv@grs+1)^0,w,c
  4682   00136A  6E49               	movwf	(??___fldiv+1)^0,c
  4683   00136C  0EFF               	movlw	255
  4684   00136E  1455               	andwf	(___fldiv@grs+2)^0,w,c
  4685   001370  6E4A               	movwf	(??___fldiv+2)^0,c
  4686   001372  0E7F               	movlw	127
  4687   001374  1456               	andwf	(___fldiv@grs+3)^0,w,c
  4688   001376  6E4B               	movwf	(??___fldiv+3)^0,c
  4689   001378  5048               	movf	??___fldiv^0,w,c
  4690   00137A  1049               	iorwf	(??___fldiv+1)^0,w,c
  4691   00137C  104A               	iorwf	(??___fldiv+2)^0,w,c
  4692   00137E  104B               	iorwf	(??___fldiv+3)^0,w,c
  4693   001380  B4D8               	btfsc	status,2,c
  4694   001382  EFC5  F009         	goto	u1841
  4695   001386  EFC7  F009         	goto	u1840
  4696   00138A                     u1841:
  4697   00138A  EFCB  F009         	goto	l804
  4698   00138E                     u1840:
  4699   00138E                     l2190:
  4700   00138E  0E01               	movlw	1
  4701   001390  6E58               	movwf	___fldiv@aexp^0,c
  4702   001392  EFD4  F009         	goto	l803
  4703   001396                     l804:
  4704   001396  A040               	btfss	___fldiv@b^0,0,c
  4705   001398  EFD0  F009         	goto	u1851
  4706   00139C  EFD2  F009         	goto	u1850
  4707   0013A0                     u1851:
  4708   0013A0  EFD4  F009         	goto	l803
  4709   0013A4                     u1850:
  4710   0013A4  EFC7  F009         	goto	l2190
  4711   0013A8                     l803:
  4712   0013A8  5058               	movf	___fldiv@aexp^0,w,c
  4713   0013AA  B4D8               	btfsc	status,2,c
  4714   0013AC  EFDA  F009         	goto	u1861
  4715   0013B0  EFDC  F009         	goto	u1860
  4716   0013B4                     u1861:
  4717   0013B4  EF00  F00A         	goto	l2202
  4718   0013B8                     u1860:
  4719   0013B8  0E01               	movlw	1
  4720   0013BA  2640               	addwf	___fldiv@b^0,f,c
  4721   0013BC  0E00               	movlw	0
  4722   0013BE  2241               	addwfc	(___fldiv@b+1)^0,f,c
  4723   0013C0  2242               	addwfc	(___fldiv@b+2)^0,f,c
  4724   0013C2  2243               	addwfc	(___fldiv@b+3)^0,f,c
  4725   0013C4  A043               	btfss	(___fldiv@b+3)^0,0,c
  4726   0013C6  EFE7  F009         	goto	u1871
  4727   0013CA  EFE9  F009         	goto	u1870
  4728   0013CE                     u1871:
  4729   0013CE  EF00  F00A         	goto	l2202
  4730   0013D2                     u1870:
  4731   0013D2  C040  F048         	movff	___fldiv@b,??___fldiv
  4732   0013D6  C041  F049         	movff	___fldiv@b+1,??___fldiv+1
  4733   0013DA  C042  F04A         	movff	___fldiv@b+2,??___fldiv+2
  4734   0013DE  C043  F04B         	movff	___fldiv@b+3,??___fldiv+3
  4735   0013E2  344B               	rlcf	(??___fldiv+3)^0,w,c
  4736   0013E4  324B               	rrcf	(??___fldiv+3)^0,f,c
  4737   0013E6  324A               	rrcf	(??___fldiv+2)^0,f,c
  4738   0013E8  3249               	rrcf	(??___fldiv+1)^0,f,c
  4739   0013EA  3248               	rrcf	??___fldiv^0,f,c
  4740   0013EC  C048  F040         	movff	??___fldiv,___fldiv@b
  4741   0013F0  C049  F041         	movff	??___fldiv+1,___fldiv@b+1
  4742   0013F4  C04A  F042         	movff	??___fldiv+2,___fldiv@b+2
  4743   0013F8  C04B  F043         	movff	??___fldiv+3,___fldiv@b+3
  4744   0013FC  4A51               	infsnz	___fldiv@new_exp^0,f,c
  4745   0013FE  2A52               	incf	(___fldiv@new_exp+1)^0,f,c
  4746   001400                     l2202:
  4747   001400  BE52               	btfsc	(___fldiv@new_exp+1)^0,7,c
  4748   001402  EF0B  F00A         	goto	u1881
  4749   001406  5052               	movf	(___fldiv@new_exp+1)^0,w,c
  4750   001408  E108               	bnz	u1880
  4751   00140A  2851               	incf	___fldiv@new_exp^0,w,c
  4752   00140C  A0D8               	btfss	status,0,c
  4753   00140E  EF0B  F00A         	goto	u1881
  4754   001412  EF0D  F00A         	goto	u1880
  4755   001416                     u1881:
  4756   001416  EF18  F00A         	goto	l2206
  4757   00141A                     u1880:
  4758   00141A  0E00               	movlw	0
  4759   00141C  6E52               	movwf	(___fldiv@new_exp+1)^0,c
  4760   00141E  6851               	setf	___fldiv@new_exp^0,c
  4761   001420  0E00               	movlw	0
  4762   001422  6E40               	movwf	___fldiv@b^0,c
  4763   001424  0E00               	movlw	0
  4764   001426  6E41               	movwf	(___fldiv@b+1)^0,c
  4765   001428  0E00               	movlw	0
  4766   00142A  6E42               	movwf	(___fldiv@b+2)^0,c
  4767   00142C  0E00               	movlw	0
  4768   00142E  6E43               	movwf	(___fldiv@b+3)^0,c
  4769   001430                     l2206:
  4770   001430  BE52               	btfsc	(___fldiv@new_exp+1)^0,7,c
  4771   001432  EF25  F00A         	goto	u1890
  4772   001436  5052               	movf	(___fldiv@new_exp+1)^0,w,c
  4773   001438  E106               	bnz	u1891
  4774   00143A  0451               	decf	___fldiv@new_exp^0,w,c
  4775   00143C  B0D8               	btfsc	status,0,c
  4776   00143E  EF23  F00A         	goto	u1891
  4777   001442  EF25  F00A         	goto	u1890
  4778   001446                     u1891:
  4779   001446  EF32  F00A         	goto	l2212
  4780   00144A                     u1890:
  4781   00144A  0E00               	movlw	0
  4782   00144C  6E52               	movwf	(___fldiv@new_exp+1)^0,c
  4783   00144E  0E00               	movlw	0
  4784   001450  6E51               	movwf	___fldiv@new_exp^0,c
  4785   001452  0E00               	movlw	0
  4786   001454  6E40               	movwf	___fldiv@b^0,c
  4787   001456  0E00               	movlw	0
  4788   001458  6E41               	movwf	(___fldiv@b+1)^0,c
  4789   00145A  0E00               	movlw	0
  4790   00145C  6E42               	movwf	(___fldiv@b+2)^0,c
  4791   00145E  0E00               	movlw	0
  4792   001460  6E43               	movwf	(___fldiv@b+3)^0,c
  4793   001462  6A50               	clrf	___fldiv@sign^0,c
  4794   001464                     l2212:
  4795   001464  C051  F057         	movff	___fldiv@new_exp,___fldiv@bexp
  4796   001468  A057               	btfss	___fldiv@bexp^0,0,c
  4797   00146A  EF39  F00A         	goto	u1901
  4798   00146E  EF3B  F00A         	goto	u1900
  4799   001472                     u1901:
  4800   001472  EF3E  F00A         	goto	l2218
  4801   001476                     u1900:
  4802   001476  8E42               	bsf	(___fldiv@b+2)^0,7,c
  4803   001478  EF3F  F00A         	goto	l2220
  4804   00147C                     l2218:
  4805   00147C  9E42               	bcf	(___fldiv@b+2)^0,7,c
  4806   00147E                     l2220:
  4807   00147E  90D8               	bcf	status,0,c
  4808   001480  3057               	rrcf	___fldiv@bexp^0,w,c
  4809   001482  6E43               	movwf	(___fldiv@b+3)^0,c
  4810   001484  EFF8  F008         	goto	l2136
  4811   001488                     l790:
  4812   001488  0012               	return		;funcret
  4813   00148A                     __end_of___fldiv:
  4814                           	callstack 0
  4815                           
  4816 ;; *************** function _init_LCD *****************
  4817 ;; Defined at:
  4818 ;;		line 4 in file "lcd_lib.c"
  4819 ;; Parameters:    Size  Location     Type
  4820 ;;		None
  4821 ;; Auto vars:     Size  Location     Type
  4822 ;;		None
  4823 ;; Return value:  Size  Location     Type
  4824 ;;                  1    wreg      void 
  4825 ;; Registers used:
  4826 ;;		wreg, status,2, status,0, cstack
  4827 ;; Tracked objects:
  4828 ;;		On entry : 0/0
  4829 ;;		On exit  : 0/0
  4830 ;;		Unchanged: 0/0
  4831 ;; Data sizes:     COMRAM   BANK0   BANK1   BANK2   BANK3   BANK4   BANK5   BANK6   BANK7
  4832 ;;      Params:         0       0       0       0       0       0       0       0       0
  4833 ;;      Locals:         0       0       0       0       0       0       0       0       0
  4834 ;;      Temps:          2       0       0       0       0       0       0       0       0
  4835 ;;      Totals:         2       0       0       0       0       0       0       0       0
  4836 ;;Total ram usage:        2 bytes
  4837 ;; Hardware stack levels used: 1
  4838 ;; Hardware stack levels required when called: 2
  4839 ;; This function calls:
  4840 ;;		_clear_LCD
  4841 ;;		_set_Cursor_LCD
  4842 ;; This function is called by:
  4843 ;;		_main
  4844 ;; This function uses a non-reentrant model
  4845 ;;
  4846                           
  4847                           	psect	text16
  4848   001BFA                     __ptext16:
  4849                           	callstack 0
  4850   001BFA                     _init_LCD:
  4851                           	callstack 28
  4852   001BFA                     
  4853                           ;lcd_lib.c: 6:     TRISD = 0x00;
  4854   001BFA  6A95               	clrf	149,c	;volatile
  4855                           
  4856                           ;lcd_lib.c: 7:     LATD = 0x00;
  4857   001BFC  6A8C               	clrf	140,c	;volatile
  4858                           
  4859                           ;lcd_lib.c: 10:     TRISBbits.RB3 = 0;
  4860   001BFE  9693               	bcf	147,3,c	;volatile
  4861                           
  4862                           ;lcd_lib.c: 11:     TRISBbits.RB4 = 0;
  4863   001C00  9893               	bcf	147,4,c	;volatile
  4864                           
  4865                           ;lcd_lib.c: 12:     LATBbits.LB3 = 0;
  4866   001C02  968A               	bcf	138,3,c	;volatile
  4867                           
  4868                           ;lcd_lib.c: 13:     LATBbits.LB4 = 0;
  4869   001C04  988A               	bcf	138,4,c	;volatile
  4870                           
  4871                           ;lcd_lib.c: 17:     LATBbits.LB3 = 0;
  4872   001C06  968A               	bcf	138,3,c	;volatile
  4873   001C08                     
  4874                           ;lcd_lib.c: 18:     LATD = 0b00111000;
  4875   001C08  0E38               	movlw	56
  4876   001C0A  6E8C               	movwf	140,c	;volatile
  4877   001C0C                     
  4878                           ;lcd_lib.c: 19:     LATBbits.LB4 = 1;
  4879   001C0C  888A               	bsf	138,4,c	;volatile
  4880   001C0E                     
  4881                           ;lcd_lib.c: 20:     _delay((unsigned long)((50)*(48000000UL/4000.0)));
  4882   001C0E  0E04               	movlw	4
  4883   001C10  6E05               	movwf	(??_init_LCD+1)^0,c
  4884   001C12  0E0C               	movlw	12
  4885   001C14  6E04               	movwf	??_init_LCD^0,c
  4886   001C16  0E34               	movlw	52
  4887   001C18                     u2487:
  4888   001C18  2EE8               	decfsz	wreg,f,c
  4889   001C1A  D7FE               	bra	u2487
  4890   001C1C  2E04               	decfsz	??_init_LCD^0,f,c
  4891   001C1E  D7FC               	bra	u2487
  4892   001C20  2E05               	decfsz	(??_init_LCD+1)^0,f,c
  4893   001C22  D7FA               	bra	u2487
  4894   001C24                     
  4895                           ;lcd_lib.c: 21:     LATBbits.LB4 = 0;
  4896   001C24  988A               	bcf	138,4,c	;volatile
  4897   001C26                     
  4898                           ;lcd_lib.c: 24:     LATD = 0b00001100;
  4899   001C26  0E0C               	movlw	12
  4900   001C28  6E8C               	movwf	140,c	;volatile
  4901   001C2A                     
  4902                           ;lcd_lib.c: 25:     LATBbits.LB4 = 1;
  4903   001C2A  888A               	bsf	138,4,c	;volatile
  4904                           
  4905                           ;lcd_lib.c: 26:     _delay((unsigned long)((50)*(48000000UL/4000.0)));
  4906   001C2C  0E04               	movlw	4
  4907   001C2E  6E05               	movwf	(??_init_LCD+1)^0,c
  4908   001C30  0E0C               	movlw	12
  4909   001C32  6E04               	movwf	??_init_LCD^0,c
  4910   001C34  0E34               	movlw	52
  4911   001C36                     u2497:
  4912   001C36  2EE8               	decfsz	wreg,f,c
  4913   001C38  D7FE               	bra	u2497
  4914   001C3A  2E04               	decfsz	??_init_LCD^0,f,c
  4915   001C3C  D7FC               	bra	u2497
  4916   001C3E  2E05               	decfsz	(??_init_LCD+1)^0,f,c
  4917   001C40  D7FA               	bra	u2497
  4918   001C42                     
  4919                           ;lcd_lib.c: 27:     LATBbits.LB4 = 0;
  4920   001C42  988A               	bcf	138,4,c	;volatile
  4921   001C44                     
  4922                           ;lcd_lib.c: 30:     clear_LCD();
  4923   001C44  ECA0  F00F         	call	_clear_LCD	;wreg free
  4924   001C48                     
  4925                           ;lcd_lib.c: 33:     LATD = 0b00000010;
  4926   001C48  0E02               	movlw	2
  4927   001C4A  6E8C               	movwf	140,c	;volatile
  4928   001C4C                     
  4929                           ;lcd_lib.c: 34:     LATBbits.LB4 = 1;
  4930   001C4C  888A               	bsf	138,4,c	;volatile
  4931   001C4E                     
  4932                           ;lcd_lib.c: 35:     _delay((unsigned long)((50)*(48000000UL/4000.0)));
  4933   001C4E  0E04               	movlw	4
  4934   001C50  6E05               	movwf	(??_init_LCD+1)^0,c
  4935   001C52  0E0C               	movlw	12
  4936   001C54  6E04               	movwf	??_init_LCD^0,c
  4937   001C56  0E34               	movlw	52
  4938   001C58                     u2507:
  4939   001C58  2EE8               	decfsz	wreg,f,c
  4940   001C5A  D7FE               	bra	u2507
  4941   001C5C  2E04               	decfsz	??_init_LCD^0,f,c
  4942   001C5E  D7FC               	bra	u2507
  4943   001C60  2E05               	decfsz	(??_init_LCD+1)^0,f,c
  4944   001C62  D7FA               	bra	u2507
  4945   001C64                     
  4946                           ;lcd_lib.c: 36:     LATBbits.LB4 = 0;
  4947   001C64  988A               	bcf	138,4,c	;volatile
  4948   001C66                     
  4949                           ;lcd_lib.c: 39:     set_Cursor_LCD(1,1);
  4950   001C66  0E01               	movlw	1
  4951   001C68  6E01               	movwf	set_Cursor_LCD@y^0,c
  4952   001C6A  0E01               	movlw	1
  4953   001C6C  EC39  F00E         	call	_set_Cursor_LCD
  4954   001C70  0012               	return		;funcret
  4955   001C72                     __end_of_init_LCD:
  4956                           	callstack 0
  4957                           
  4958 ;; *************** function _set_Cursor_LCD *****************
  4959 ;; Defined at:
  4960 ;;		line 70 in file "lcd_lib.c"
  4961 ;; Parameters:    Size  Location     Type
  4962 ;;  x               1    wreg     unsigned char 
  4963 ;;  y               1    0[COMRAM] unsigned char 
  4964 ;; Auto vars:     Size  Location     Type
  4965 ;;  x               1    2[COMRAM] unsigned char 
  4966 ;; Return value:  Size  Location     Type
  4967 ;;                  1    wreg      void 
  4968 ;; Registers used:
  4969 ;;		wreg, status,2, status,0
  4970 ;; Tracked objects:
  4971 ;;		On entry : 0/0
  4972 ;;		On exit  : 0/0
  4973 ;;		Unchanged: 0/0
  4974 ;; Data sizes:     COMRAM   BANK0   BANK1   BANK2   BANK3   BANK4   BANK5   BANK6   BANK7
  4975 ;;      Params:         1       0       0       0       0       0       0       0       0
  4976 ;;      Locals:         1       0       0       0       0       0       0       0       0
  4977 ;;      Temps:          1       0       0       0       0       0       0       0       0
  4978 ;;      Totals:         3       0       0       0       0       0       0       0       0
  4979 ;;Total ram usage:        3 bytes
  4980 ;; Hardware stack levels used: 1
  4981 ;; Hardware stack levels required when called: 1
  4982 ;; This function calls:
  4983 ;;		Nothing
  4984 ;; This function is called by:
  4985 ;;		_init_LCD
  4986 ;;		_main
  4987 ;; This function uses a non-reentrant model
  4988 ;;
  4989                           
  4990                           	psect	text17
  4991   001C72                     __ptext17:
  4992                           	callstack 0
  4993   001C72                     _set_Cursor_LCD:
  4994                           	callstack 29
  4995                           
  4996                           ;incstack = 0
  4997                           ;set_Cursor_LCD@x stored from wreg
  4998   001C72  6E03               	movwf	set_Cursor_LCD@x^0,c
  4999   001C74                     
  5000                           ;lcd_lib.c: 72:     LATBbits.LB3 = 0;
  5001   001C74  968A               	bcf	138,3,c	;volatile
  5002                           
  5003                           ;lcd_lib.c: 73:     switch(x){
  5004   001C76  EF69  F00E         	goto	l2080
  5005   001C7A                     l2054:
  5006                           
  5007                           ;lcd_lib.c: 75:             LATD = 0b10000000+(y-1);
  5008   001C7A  5001               	movf	set_Cursor_LCD@y^0,w,c
  5009   001C7C  0F7F               	addlw	127
  5010   001C7E  6E8C               	movwf	140,c	;volatile
  5011   001C80                     
  5012                           ;lcd_lib.c: 76:             LATBbits.LB4 = 1;
  5013   001C80  888A               	bsf	138,4,c	;volatile
  5014   001C82                     
  5015                           ;lcd_lib.c: 77:             _delay((unsigned long)((5)*(48000000UL/4000.0)));
  5016   001C82  0E4E               	movlw	78
  5017   001C84  6E02               	movwf	??_set_Cursor_LCD^0,c
  5018   001C86  0EEB               	movlw	235
  5019   001C88                     u2517:
  5020   001C88  2EE8               	decfsz	wreg,f,c
  5021   001C8A  D7FE               	bra	u2517
  5022   001C8C  2E02               	decfsz	??_set_Cursor_LCD^0,f,c
  5023   001C8E  D7FC               	bra	u2517
  5024   001C90  0000               	nop	
  5025   001C92                     
  5026                           ;lcd_lib.c: 78:             LATBbits.LB4 = 0;
  5027   001C92  988A               	bcf	138,4,c	;volatile
  5028                           
  5029                           ;lcd_lib.c: 79:             break;
  5030   001C94  EF74  F00E         	goto	l37
  5031   001C98                     l2062:
  5032                           
  5033                           ;lcd_lib.c: 81:             LATD = 0b10000000+0x40+(y-1);
  5034   001C98  5001               	movf	set_Cursor_LCD@y^0,w,c
  5035   001C9A  0FBF               	addlw	191
  5036   001C9C  6E8C               	movwf	140,c	;volatile
  5037   001C9E                     
  5038                           ;lcd_lib.c: 82:             LATBbits.LB4 = 1;
  5039   001C9E  888A               	bsf	138,4,c	;volatile
  5040   001CA0                     
  5041                           ;lcd_lib.c: 83:             _delay((unsigned long)((5)*(48000000UL/4000.0)));
  5042   001CA0  0E4E               	movlw	78
  5043   001CA2  6E02               	movwf	??_set_Cursor_LCD^0,c
  5044   001CA4  0EEB               	movlw	235
  5045   001CA6                     u2527:
  5046   001CA6  2EE8               	decfsz	wreg,f,c
  5047   001CA8  D7FE               	bra	u2527
  5048   001CAA  2E02               	decfsz	??_set_Cursor_LCD^0,f,c
  5049   001CAC  D7FC               	bra	u2527
  5050   001CAE  0000               	nop	
  5051   001CB0                     
  5052                           ;lcd_lib.c: 84:             LATBbits.LB4 = 0;
  5053   001CB0  988A               	bcf	138,4,c	;volatile
  5054                           
  5055                           ;lcd_lib.c: 85:             break;
  5056   001CB2  EF74  F00E         	goto	l37
  5057   001CB6                     l2070:
  5058                           
  5059                           ;lcd_lib.c: 87:             LATD = 0b10000000;
  5060   001CB6  0E80               	movlw	128
  5061   001CB8  6E8C               	movwf	140,c	;volatile
  5062   001CBA                     
  5063                           ;lcd_lib.c: 88:             LATBbits.LB4 = 1;
  5064   001CBA  888A               	bsf	138,4,c	;volatile
  5065   001CBC                     
  5066                           ;lcd_lib.c: 89:             _delay((unsigned long)((5)*(48000000UL/4000.0)));
  5067   001CBC  0E4E               	movlw	78
  5068   001CBE  6E02               	movwf	??_set_Cursor_LCD^0,c
  5069   001CC0  0EEB               	movlw	235
  5070   001CC2                     u2537:
  5071   001CC2  2EE8               	decfsz	wreg,f,c
  5072   001CC4  D7FE               	bra	u2537
  5073   001CC6  2E02               	decfsz	??_set_Cursor_LCD^0,f,c
  5074   001CC8  D7FC               	bra	u2537
  5075   001CCA  0000               	nop	
  5076   001CCC                     
  5077                           ;lcd_lib.c: 90:             LATBbits.LB4 = 0;
  5078   001CCC  988A               	bcf	138,4,c	;volatile
  5079                           
  5080                           ;lcd_lib.c: 91:             break;
  5081   001CCE  EF74  F00E         	goto	l37
  5082   001CD2                     l2080:
  5083   001CD2  5003               	movf	set_Cursor_LCD@x^0,w,c
  5084                           
  5085                           ; Switch size 1, requested type "simple"
  5086                           ; Number of cases is 2, Range of values is 1 to 2
  5087                           ; switch strategies available:
  5088                           ; Name         Instructions Cycles
  5089                           ; simple_byte            7     4 (average)
  5090                           ;	Chosen strategy is simple_byte
  5091   001CD4  0A01               	xorlw	1	; case 1
  5092   001CD6  B4D8               	btfsc	status,2,c
  5093   001CD8  EF3D  F00E         	goto	l2054
  5094   001CDC  0A03               	xorlw	3	; case 2
  5095   001CDE  B4D8               	btfsc	status,2,c
  5096   001CE0  EF4C  F00E         	goto	l2062
  5097   001CE4  EF5B  F00E         	goto	l2070
  5098   001CE8                     l37:
  5099   001CE8  0012               	return		;funcret
  5100   001CEA                     __end_of_set_Cursor_LCD:
  5101                           	callstack 0
  5102                           
  5103 ;; *************** function _clear_LCD *****************
  5104 ;; Defined at:
  5105 ;;		line 43 in file "lcd_lib.c"
  5106 ;; Parameters:    Size  Location     Type
  5107 ;;		None
  5108 ;; Auto vars:     Size  Location     Type
  5109 ;;		None
  5110 ;; Return value:  Size  Location     Type
  5111 ;;                  1    wreg      void 
  5112 ;; Registers used:
  5113 ;;		wreg, status,2
  5114 ;; Tracked objects:
  5115 ;;		On entry : 0/0
  5116 ;;		On exit  : 0/0
  5117 ;;		Unchanged: 0/0
  5118 ;; Data sizes:     COMRAM   BANK0   BANK1   BANK2   BANK3   BANK4   BANK5   BANK6   BANK7
  5119 ;;      Params:         0       0       0       0       0       0       0       0       0
  5120 ;;      Locals:         0       0       0       0       0       0       0       0       0
  5121 ;;      Temps:          1       0       0       0       0       0       0       0       0
  5122 ;;      Totals:         1       0       0       0       0       0       0       0       0
  5123 ;;Total ram usage:        1 bytes
  5124 ;; Hardware stack levels used: 1
  5125 ;; Hardware stack levels required when called: 1
  5126 ;; This function calls:
  5127 ;;		Nothing
  5128 ;; This function is called by:
  5129 ;;		_init_LCD
  5130 ;;		_main
  5131 ;; This function uses a non-reentrant model
  5132 ;;
  5133                           
  5134                           	psect	text18
  5135   001F40                     __ptext18:
  5136                           	callstack 0
  5137   001F40                     _clear_LCD:
  5138                           	callstack 28
  5139   001F40                     
  5140                           ;lcd_lib.c: 44:     LATBbits.LB3 = 0;
  5141   001F40  968A               	bcf	138,3,c	;volatile
  5142   001F42                     
  5143                           ;lcd_lib.c: 45:     LATD = 0b00000001;
  5144   001F42  0E01               	movlw	1
  5145   001F44  6E8C               	movwf	140,c	;volatile
  5146   001F46                     
  5147                           ;lcd_lib.c: 46:     LATBbits.LB4 = 1;
  5148   001F46  888A               	bsf	138,4,c	;volatile
  5149   001F48                     
  5150                           ;lcd_lib.c: 47:     _delay((unsigned long)((5)*(48000000UL/4000.0)));
  5151   001F48  0E4E               	movlw	78
  5152   001F4A  6E01               	movwf	??_clear_LCD^0,c
  5153   001F4C  0EEB               	movlw	235
  5154   001F4E                     u2547:
  5155   001F4E  2EE8               	decfsz	wreg,f,c
  5156   001F50  D7FE               	bra	u2547
  5157   001F52  2E01               	decfsz	??_clear_LCD^0,f,c
  5158   001F54  D7FC               	bra	u2547
  5159   001F56  0000               	nop	
  5160   001F58                     
  5161                           ;lcd_lib.c: 48:     LATBbits.LB4 = 0;
  5162   001F58  988A               	bcf	138,4,c	;volatile
  5163   001F5A  0012               	return		;funcret
  5164   001F5C                     __end_of_clear_LCD:
  5165                           	callstack 0
  5166                           
  5167 ;; *************** function _init_ADC *****************
  5168 ;; Defined at:
  5169 ;;		line 4 in file "adc_lib.c"
  5170 ;; Parameters:    Size  Location     Type
  5171 ;;  Puertos_ADC     1    wreg     unsigned char 
  5172 ;; Auto vars:     Size  Location     Type
  5173 ;;  Puertos_ADC     1    0[COMRAM] unsigned char 
  5174 ;; Return value:  Size  Location     Type
  5175 ;;                  1    wreg      void 
  5176 ;; Registers used:
  5177 ;;		wreg, status,2
  5178 ;; Tracked objects:
  5179 ;;		On entry : 0/0
  5180 ;;		On exit  : 0/0
  5181 ;;		Unchanged: 0/0
  5182 ;; Data sizes:     COMRAM   BANK0   BANK1   BANK2   BANK3   BANK4   BANK5   BANK6   BANK7
  5183 ;;      Params:         0       0       0       0       0       0       0       0       0
  5184 ;;      Locals:         1       0       0       0       0       0       0       0       0
  5185 ;;      Temps:          0       0       0       0       0       0       0       0       0
  5186 ;;      Totals:         1       0       0       0       0       0       0       0       0
  5187 ;;Total ram usage:        1 bytes
  5188 ;; Hardware stack levels used: 1
  5189 ;; Hardware stack levels required when called: 1
  5190 ;; This function calls:
  5191 ;;		Nothing
  5192 ;; This function is called by:
  5193 ;;		_main
  5194 ;; This function uses a non-reentrant model
  5195 ;;
  5196                           
  5197                           	psect	text19
  5198   001F70                     __ptext19:
  5199                           	callstack 0
  5200   001F70                     _init_ADC:
  5201                           	callstack 29
  5202                           
  5203                           ;incstack = 0
  5204                           ;init_ADC@Puertos_ADC stored from wreg
  5205   001F70  6E01               	movwf	init_ADC@Puertos_ADC^0,c
  5206   001F72                     
  5207                           ;adc_lib.c: 6:     ADCON1 = Puertos_ADC;
  5208   001F72  C001  FFC1         	movff	init_ADC@Puertos_ADC,4033	;volatile
  5209   001F76                     
  5210                           ;adc_lib.c: 7:     ADCON0 = 0x00;
  5211   001F76  6AC2               	clrf	194,c	;volatile
  5212   001F78                     
  5213                           ;adc_lib.c: 8:     ADCON2 = 0x8F;
  5214   001F78  0E8F               	movlw	143
  5215   001F7A  6EC0               	movwf	192,c	;volatile
  5216   001F7C  0012               	return		;funcret
  5217   001F7E                     __end_of_init_ADC:
  5218                           	callstack 0
  5219                           
  5220 ;; *************** function _SPI_Tx *****************
  5221 ;; Defined at:
  5222 ;;		line 93 in file "SPI.c"
  5223 ;; Parameters:    Size  Location     Type
  5224 ;;  dato            1    wreg     unsigned char 
  5225 ;; Auto vars:     Size  Location     Type
  5226 ;;  dato            1    0[COMRAM] unsigned char 
  5227 ;; Return value:  Size  Location     Type
  5228 ;;                  1    wreg      void 
  5229 ;; Registers used:
  5230 ;;		wreg
  5231 ;; Tracked objects:
  5232 ;;		On entry : 0/0
  5233 ;;		On exit  : 0/0
  5234 ;;		Unchanged: 0/0
  5235 ;; Data sizes:     COMRAM   BANK0   BANK1   BANK2   BANK3   BANK4   BANK5   BANK6   BANK7
  5236 ;;      Params:         0       0       0       0       0       0       0       0       0
  5237 ;;      Locals:         1       0       0       0       0       0       0       0       0
  5238 ;;      Temps:          0       0       0       0       0       0       0       0       0
  5239 ;;      Totals:         1       0       0       0       0       0       0       0       0
  5240 ;;Total ram usage:        1 bytes
  5241 ;; Hardware stack levels used: 1
  5242 ;; Hardware stack levels required when called: 1
  5243 ;; This function calls:
  5244 ;;		Nothing
  5245 ;; This function is called by:
  5246 ;;		_main
  5247 ;; This function uses a non-reentrant model
  5248 ;;
  5249                           
  5250                           	psect	text20
  5251   001F7E                     __ptext20:
  5252                           	callstack 0
  5253   001F7E                     _SPI_Tx:
  5254                           	callstack 29
  5255                           
  5256                           ;incstack = 0
  5257                           ;SPI_Tx@dato stored from wreg
  5258   001F7E  6E01               	movwf	SPI_Tx@dato^0,c
  5259   001F80                     
  5260                           ;SPI.c: 94:     SSPBUF = dato;
  5261   001F80  C001  FFC9         	movff	SPI_Tx@dato,4041	;volatile
  5262   001F84  0012               	return		;funcret
  5263   001F86                     __end_of_SPI_Tx:
  5264                           	callstack 0
  5265                           
  5266 ;; *************** function _SPI_Init_Master *****************
  5267 ;; Defined at:
  5268 ;;		line 4 in file "SPI.c"
  5269 ;; Parameters:    Size  Location     Type
  5270 ;;  reloj           1    wreg     unsigned char 
  5271 ;;  modo            1    0[COMRAM] unsigned char 
  5272 ;;  smp             1    1[COMRAM] unsigned char 
  5273 ;; Auto vars:     Size  Location     Type
  5274 ;;  reloj           1    2[COMRAM] unsigned char 
  5275 ;; Return value:  Size  Location     Type
  5276 ;;                  1    wreg      void 
  5277 ;; Registers used:
  5278 ;;		wreg, status,2, status,0
  5279 ;; Tracked objects:
  5280 ;;		On entry : 0/0
  5281 ;;		On exit  : 0/0
  5282 ;;		Unchanged: 0/0
  5283 ;; Data sizes:     COMRAM   BANK0   BANK1   BANK2   BANK3   BANK4   BANK5   BANK6   BANK7
  5284 ;;      Params:         2       0       0       0       0       0       0       0       0
  5285 ;;      Locals:         1       0       0       0       0       0       0       0       0
  5286 ;;      Temps:          0       0       0       0       0       0       0       0       0
  5287 ;;      Totals:         3       0       0       0       0       0       0       0       0
  5288 ;;Total ram usage:        3 bytes
  5289 ;; Hardware stack levels used: 1
  5290 ;; Hardware stack levels required when called: 1
  5291 ;; This function calls:
  5292 ;;		Nothing
  5293 ;; This function is called by:
  5294 ;;		_main
  5295 ;; This function uses a non-reentrant model
  5296 ;;
  5297                           
  5298                           	psect	text21
  5299   001B70                     __ptext21:
  5300                           	callstack 0
  5301   001B70                     _SPI_Init_Master:
  5302                           	callstack 29
  5303                           
  5304                           ;incstack = 0
  5305                           ;SPI_Init_Master@reloj stored from wreg
  5306   001B70  6E03               	movwf	SPI_Init_Master@reloj^0,c
  5307   001B72                     
  5308                           ;SPI.c: 7:     ADCON1 = 0x0F;
  5309   001B72  0E0F               	movlw	15
  5310   001B74  6EC1               	movwf	193,c	;volatile
  5311   001B76                     
  5312                           ;SPI.c: 10:     TRISBbits.RB0 = 1;
  5313   001B76  8093               	bsf	147,0,c	;volatile
  5314   001B78                     
  5315                           ;SPI.c: 11:     TRISBbits.RB1 = 0;
  5316   001B78  9293               	bcf	147,1,c	;volatile
  5317   001B7A                     
  5318                           ;SPI.c: 12:     TRISAbits.RA5 = 0;
  5319   001B7A  9A92               	bcf	146,5,c	;volatile
  5320   001B7C                     
  5321                           ;SPI.c: 13:     TRISCbits.RC7 = 0;
  5322   001B7C  9E94               	bcf	148,7,c	;volatile
  5323   001B7E                     
  5324                           ;SPI.c: 16:     SSPCON1bits.SSPM = reloj;
  5325   001B7E  50C6               	movf	198,w,c	;volatile
  5326   001B80  1803               	xorwf	SPI_Init_Master@reloj^0,w,c
  5327   001B82  0BF0               	andlw	-16
  5328   001B84  1803               	xorwf	SPI_Init_Master@reloj^0,w,c
  5329   001B86  6EC6               	movwf	198,c	;volatile
  5330   001B88                     
  5331                           ;SPI.c: 24:     if (modo == '1'){
  5332   001B88  0E31               	movlw	49
  5333   001B8A  1801               	xorwf	SPI_Init_Master@modo^0,w,c
  5334   001B8C  A4D8               	btfss	status,2,c
  5335   001B8E  EFCB  F00D         	goto	u2291
  5336   001B92  EFCD  F00D         	goto	u2290
  5337   001B96                     u2291:
  5338   001B96  EFD1  F00D         	goto	l2546
  5339   001B9A                     u2290:
  5340   001B9A                     
  5341                           ;SPI.c: 25:         SSPCON1bits.CKP = 1;
  5342   001B9A  88C6               	bsf	198,4,c	;volatile
  5343                           
  5344                           ;SPI.c: 26:         SSPSTATbits.CKE = 1;
  5345   001B9C  8CC7               	bsf	199,6,c	;volatile
  5346                           
  5347                           ;SPI.c: 27:     }
  5348   001B9E  EFF6  F00D         	goto	l124
  5349   001BA2                     l2546:
  5350   001BA2  0E32               	movlw	50
  5351   001BA4  1801               	xorwf	SPI_Init_Master@modo^0,w,c
  5352   001BA6  A4D8               	btfss	status,2,c
  5353   001BA8  EFD8  F00D         	goto	u2301
  5354   001BAC  EFDA  F00D         	goto	u2300
  5355   001BB0                     u2301:
  5356   001BB0  EFDE  F00D         	goto	l2550
  5357   001BB4                     u2300:
  5358   001BB4                     
  5359                           ;SPI.c: 29:         SSPCON1bits.CKP = 0;
  5360   001BB4  98C6               	bcf	198,4,c	;volatile
  5361                           
  5362                           ;SPI.c: 30:         SSPSTATbits.CKE = 1;
  5363   001BB6  8CC7               	bsf	199,6,c	;volatile
  5364                           
  5365                           ;SPI.c: 31:     }
  5366   001BB8  EFF6  F00D         	goto	l124
  5367   001BBC                     l2550:
  5368   001BBC  0E33               	movlw	51
  5369   001BBE  1801               	xorwf	SPI_Init_Master@modo^0,w,c
  5370   001BC0  A4D8               	btfss	status,2,c
  5371   001BC2  EFE5  F00D         	goto	u2311
  5372   001BC6  EFE7  F00D         	goto	u2310
  5373   001BCA                     u2311:
  5374   001BCA  EFEB  F00D         	goto	l2554
  5375   001BCE                     u2310:
  5376   001BCE                     
  5377                           ;SPI.c: 33:         SSPCON1bits.CKP = 1;
  5378   001BCE  88C6               	bsf	198,4,c	;volatile
  5379                           
  5380                           ;SPI.c: 34:         SSPSTATbits.CKE = 0;
  5381   001BD0  9CC7               	bcf	199,6,c	;volatile
  5382                           
  5383                           ;SPI.c: 35:     }
  5384   001BD2  EFF6  F00D         	goto	l124
  5385   001BD6                     l2554:
  5386   001BD6  0E34               	movlw	52
  5387   001BD8  1801               	xorwf	SPI_Init_Master@modo^0,w,c
  5388   001BDA  A4D8               	btfss	status,2,c
  5389   001BDC  EFF2  F00D         	goto	u2321
  5390   001BE0  EFF4  F00D         	goto	u2320
  5391   001BE4                     u2321:
  5392   001BE4  EFF6  F00D         	goto	l124
  5393   001BE8                     u2320:
  5394   001BE8                     
  5395                           ;SPI.c: 37:         SSPCON1bits.CKP = 0;
  5396   001BE8  98C6               	bcf	198,4,c	;volatile
  5397                           
  5398                           ;SPI.c: 38:         SSPSTATbits.CKE = 0;
  5399   001BEA  9CC7               	bcf	199,6,c	;volatile
  5400   001BEC                     l124:
  5401                           
  5402                           ;SPI.c: 42:     SSPSTATbits.SMP = smp;
  5403   001BEC  B002               	btfsc	SPI_Init_Master@smp^0,0,c
  5404   001BEE  D002               	bra	u2335
  5405   001BF0  9EC7               	bcf	199,7,c	;volatile
  5406   001BF2  D001               	bra	u2336
  5407   001BF4                     u2335:
  5408   001BF4  8EC7               	bsf	199,7,c	;volatile
  5409   001BF6                     u2336:
  5410                           
  5411                           ;SPI.c: 46:     SSPCON1bits.SSPEN = 1;
  5412   001BF6  8AC6               	bsf	198,5,c	;volatile
  5413   001BF8  0012               	return		;funcret
  5414   001BFA                     __end_of_SPI_Init_Master:
  5415                           	callstack 0
  5416                           
  5417 ;; *************** function _PWM_Init_Ports *****************
  5418 ;; Defined at:
  5419 ;;		line 85 in file "pwm_soft.c"
  5420 ;; Parameters:    Size  Location     Type
  5421 ;;		None
  5422 ;; Auto vars:     Size  Location     Type
  5423 ;;		None
  5424 ;; Return value:  Size  Location     Type
  5425 ;;                  1    wreg      void 
  5426 ;; Registers used:
  5427 ;;		None
  5428 ;; Tracked objects:
  5429 ;;		On entry : 0/0
  5430 ;;		On exit  : 0/0
  5431 ;;		Unchanged: 0/0
  5432 ;; Data sizes:     COMRAM   BANK0   BANK1   BANK2   BANK3   BANK4   BANK5   BANK6   BANK7
  5433 ;;      Params:         0       0       0       0       0       0       0       0       0
  5434 ;;      Locals:         0       0       0       0       0       0       0       0       0
  5435 ;;      Temps:          0       0       0       0       0       0       0       0       0
  5436 ;;      Totals:         0       0       0       0       0       0       0       0       0
  5437 ;;Total ram usage:        0 bytes
  5438 ;; Hardware stack levels used: 1
  5439 ;; Hardware stack levels required when called: 1
  5440 ;; This function calls:
  5441 ;;		Nothing
  5442 ;; This function is called by:
  5443 ;;		_main
  5444 ;; This function uses a non-reentrant model
  5445 ;;
  5446                           
  5447                           	psect	text22
  5448   001F86                     __ptext22:
  5449                           	callstack 0
  5450   001F86                     _PWM_Init_Ports:
  5451                           	callstack 29
  5452   001F86                     
  5453                           ;pwm_soft.c: 96:     TRISBbits.RB2 = 0;
  5454   001F86  9493               	bcf	147,2,c	;volatile
  5455                           
  5456                           ;pwm_soft.c: 97:     LATBbits.LB2 = 0;
  5457   001F88  948A               	bcf	138,2,c	;volatile
  5458   001F8A  0012               	return		;funcret
  5459   001F8C                     __end_of_PWM_Init_Ports:
  5460                           	callstack 0
  5461                           
  5462 ;; *************** function _PWM_Init *****************
  5463 ;; Defined at:
  5464 ;;		line 69 in file "pwm_soft.c"
  5465 ;; Parameters:    Size  Location     Type
  5466 ;;		None
  5467 ;; Auto vars:     Size  Location     Type
  5468 ;;		None
  5469 ;; Return value:  Size  Location     Type
  5470 ;;                  1    wreg      void 
  5471 ;; Registers used:
  5472 ;;		wreg, status,2
  5473 ;; Tracked objects:
  5474 ;;		On entry : 0/0
  5475 ;;		On exit  : 0/0
  5476 ;;		Unchanged: 0/0
  5477 ;; Data sizes:     COMRAM   BANK0   BANK1   BANK2   BANK3   BANK4   BANK5   BANK6   BANK7
  5478 ;;      Params:         0       0       0       0       0       0       0       0       0
  5479 ;;      Locals:         0       0       0       0       0       0       0       0       0
  5480 ;;      Temps:          0       0       0       0       0       0       0       0       0
  5481 ;;      Totals:         0       0       0       0       0       0       0       0       0
  5482 ;;Total ram usage:        0 bytes
  5483 ;; Hardware stack levels used: 1
  5484 ;; Hardware stack levels required when called: 1
  5485 ;; This function calls:
  5486 ;;		Nothing
  5487 ;; This function is called by:
  5488 ;;		_main
  5489 ;; This function uses a non-reentrant model
  5490 ;;
  5491                           
  5492                           	psect	text23
  5493   001F1E                     __ptext23:
  5494                           	callstack 0
  5495   001F1E                     _PWM_Init:
  5496                           	callstack 29
  5497   001F1E                     
  5498                           ;pwm_soft.c: 71:     INTCONbits.GIE = 0;
  5499   001F1E  9EF2               	bcf	242,7,c	;volatile
  5500                           
  5501                           ;pwm_soft.c: 72:     INTCONbits.PEIE = 0;
  5502   001F20  9CF2               	bcf	242,6,c	;volatile
  5503                           
  5504                           ;pwm_soft.c: 73:     RCONbits.IPEN = 1;
  5505   001F22  8ED0               	bsf	208,7,c	;volatile
  5506                           
  5507                           ;pwm_soft.c: 74:     INTCON2bits.TMR0IP = 1;
  5508   001F24  84F1               	bsf	241,2,c	;volatile
  5509                           
  5510                           ;pwm_soft.c: 75:     INTCONbits.TMR0IF = 0;
  5511   001F26  94F2               	bcf	242,2,c	;volatile
  5512                           
  5513                           ;pwm_soft.c: 76:     INTCONbits.TMR0IE = 1;
  5514   001F28  8AF2               	bsf	242,5,c	;volatile
  5515   001F2A                     
  5516                           ;pwm_soft.c: 77:     T0CON = 0x48;
  5517   001F2A  0E48               	movlw	72
  5518   001F2C  6ED5               	movwf	213,c	;volatile
  5519   001F2E                     
  5520                           ;pwm_soft.c: 78:     INTCONbits.TMR0IF = 1;
  5521   001F2E  84F2               	bsf	242,2,c	;volatile
  5522   001F30                     
  5523                           ;pwm_soft.c: 79:     INTCONbits.GIE = 1;
  5524   001F30  8EF2               	bsf	242,7,c	;volatile
  5525   001F32                     
  5526                           ;pwm_soft.c: 80:     INTCONbits.PEIE = 1;
  5527   001F32  8CF2               	bsf	242,6,c	;volatile
  5528   001F34                     
  5529                           ;pwm_soft.c: 81:     T0CONbits.TMR0ON = 1;
  5530   001F34  8ED5               	bsf	213,7,c	;volatile
  5531                           
  5532                           ;pwm_soft.c: 82:     TMR0 = 0;
  5533   001F36  0E00               	movlw	0
  5534   001F38  6ED7               	movwf	215,c	;volatile
  5535   001F3A  0E00               	movlw	0
  5536   001F3C  6ED6               	movwf	214,c	;volatile
  5537   001F3E  0012               	return		;funcret
  5538   001F40                     __end_of_PWM_Init:
  5539                           	callstack 0
  5540                           
  5541 ;; *************** function _INT_TMR0 *****************
  5542 ;; Defined at:
  5543 ;;		line 15 in file "pwm_soft.c"
  5544 ;; Parameters:    Size  Location     Type
  5545 ;;		None
  5546 ;; Auto vars:     Size  Location     Type
  5547 ;;		None
  5548 ;; Return value:  Size  Location     Type
  5549 ;;                  1    wreg      void 
  5550 ;; Registers used:
  5551 ;;		wreg, status,2, status,0
  5552 ;; Tracked objects:
  5553 ;;		On entry : 0/0
  5554 ;;		On exit  : 0/0
  5555 ;;		Unchanged: 0/0
  5556 ;; Data sizes:     COMRAM   BANK0   BANK1   BANK2   BANK3   BANK4   BANK5   BANK6   BANK7
  5557 ;;      Params:         0       0       0       0       0       0       0       0       0
  5558 ;;      Locals:         0       0       0       0       0       0       0       0       0
  5559 ;;      Temps:          0       0       0       0       0       0       0       0       0
  5560 ;;      Totals:         0       0       0       0       0       0       0       0       0
  5561 ;;Total ram usage:        0 bytes
  5562 ;; Hardware stack levels used: 1
  5563 ;; This function calls:
  5564 ;;		Nothing
  5565 ;; This function is called by:
  5566 ;;		Interrupt level 2
  5567 ;; This function uses a non-reentrant model
  5568 ;;
  5569                           
  5570                           	psect	intcode
  5571   000008                     __pintcode:
  5572                           	callstack 0
  5573   000008                     _INT_TMR0:
  5574                           	callstack 25
  5575                           
  5576                           ;incstack = 0
  5577   000008  825F               	bsf	int$flags,1,c	;set compiler interrupt flag (level 2)
  5578   00000A  EDAB  F00E         	call	int_func,f	;refresh shadow registers
  5579                           
  5580                           	psect	intcode_body
  5581   001D56                     __pintcode_body:
  5582                           	callstack 25
  5583   001D56                     int_func:
  5584                           	callstack 25
  5585   001D56  0006               	pop		; remove dummy address from shadow register refresh
  5586   001D58                     
  5587                           ;pwm_soft.c: 17:     if(INTCONbits.TMR0IF)
  5588   001D58  A4F2               	btfss	242,2,c	;volatile
  5589   001D5A  EFB1  F00E         	goto	i2u240_41
  5590   001D5E  EFB3  F00E         	goto	i2u240_40
  5591   001D62                     i2u240_41:
  5592   001D62  EFDC  F00E         	goto	i2l196
  5593   001D66                     i2u240_40:
  5594   001D66                     
  5595                           ;pwm_soft.c: 18:     {;pwm_soft.c: 19:         contador = contador + 7;
  5596   001D66  0E07               	movlw	7
  5597   001D68  245B               	addwf	_contador^0,w,c
  5598   001D6A  6E5B               	movwf	_contador^0,c
  5599   001D6C  0E00               	movlw	0
  5600   001D6E  205C               	addwfc	(_contador+1)^0,w,c
  5601   001D70  6E5C               	movwf	(_contador+1)^0,c
  5602                           
  5603                           ;pwm_soft.c: 20:         if(contador > 256){
  5604   001D72  045B               	decf	_contador^0,w,c
  5605   001D74  0E01               	movlw	1
  5606   001D76  585C               	subwfb	(_contador+1)^0,w,c
  5607   001D78  A0D8               	btfss	status,0,c
  5608   001D7A  EFC1  F00E         	goto	i2u241_41
  5609   001D7E  EFC3  F00E         	goto	i2u241_40
  5610   001D82                     i2u241_41:
  5611   001D82  EFC7  F00E         	goto	i2l2650
  5612   001D86                     i2u241_40:
  5613   001D86                     
  5614                           ;pwm_soft.c: 21:             contador = 0;
  5615   001D86  0E00               	movlw	0
  5616   001D88  6E5C               	movwf	(_contador+1)^0,c
  5617   001D8A  0E00               	movlw	0
  5618   001D8C  6E5B               	movwf	_contador^0,c
  5619   001D8E                     i2l2650:
  5620                           
  5621                           ;pwm_soft.c: 32:         if(contador < pwm_value[2]){LATBbits.LB2 = 1;} else{LATBbits.LB
      +                          2 = 0;}
  5622   001D8E  0100               	movlb	0	; () banked
  5623   001D90  5184               	movf	(_pwm_value+4)& (0+255),w,b
  5624   001D92  5C5B               	subwf	_contador^0,w,c
  5625   001D94  5185               	movf	(_pwm_value+5)& (0+255),w,b
  5626   001D96  585C               	subwfb	(_contador+1)^0,w,c
  5627   001D98  B0D8               	btfsc	status,0,c
  5628   001D9A  EFD1  F00E         	goto	i2u242_41
  5629   001D9E  EFD3  F00E         	goto	i2u242_40
  5630   001DA2                     i2u242_41:
  5631   001DA2  EFD6  F00E         	goto	i2l194
  5632   001DA6                     i2u242_40:
  5633   001DA6                     
  5634                           ; BSR set to: 0
  5635   001DA6  848A               	bsf	138,2,c	;volatile
  5636   001DA8  EFD7  F00E         	goto	i2l2654
  5637   001DAC                     i2l194:
  5638                           
  5639                           ; BSR set to: 0
  5640   001DAC  948A               	bcf	138,2,c	;volatile
  5641   001DAE                     i2l2654:
  5642                           
  5643                           ; BSR set to: 0
  5644                           ;pwm_soft.c: 63:         TMR0 = 0;
  5645   001DAE  0E00               	movlw	0
  5646   001DB0  6ED7               	movwf	215,c	;volatile
  5647   001DB2  0E00               	movlw	0
  5648   001DB4  6ED6               	movwf	214,c	;volatile
  5649   001DB6                     
  5650                           ; BSR set to: 0
  5651                           ;pwm_soft.c: 64:         INTCONbits.TMR0IF = 0;
  5652   001DB6  94F2               	bcf	242,2,c	;volatile
  5653   001DB8                     i2l196:
  5654   001DB8  925F               	bcf	int$flags,1,c	;clear compiler interrupt flag (level 2)
  5655   001DBA  0011               	retfie		f
  5656   001DBC                     __end_of_INT_TMR0:
  5657                           	callstack 0
  5658                           
  5659                           	psect	rparam
  5660   000001                     ___rparam_used  equ	1
  5661   000000                     ___param_bank   equ	0
  5662   000000                     __Lparam        equ	__Lrparam
  5663   000000                     __Hparam        equ	__Hrparam
  5664                           
  5665                           	psect	temp
  5666   00005F                     btemp:
  5667                           	callstack 0
  5668   00005F                     	ds	1
  5669   00005F                     int$flags       set	btemp
  5670   000060                     wtemp8          set	btemp+1
  5671   000060                     ttemp5          set	btemp+1
  5672   000063                     ttemp6          set	btemp+4
  5673   000067                     ttemp7          set	btemp+8
  5674                           
  5675                           	psect	config
  5676                           
  5677                           ;Config register CONFIG1L @ 0x300000
  5678                           ;	PLL Prescaler Selection bits
  5679                           ;	PLLDIV = 5, Divide by 5 (20 MHz oscillator input)
  5680                           ;	System Clock Postscaler Selection bits
  5681                           ;	CPUDIV = OSC1_PLL2, [Primary Oscillator Src: /1][96 MHz PLL Src: /2]
  5682                           ;	USB Clock Selection bit (used in Full-Speed USB mode only; UCFG:FSEN = 1)
  5683                           ;	USBDIV = 1, USB clock source comes directly from the primary oscillator block with no 
      +                          postscale
  5684   300000                     	org	3145728
  5685   300000  04                 	db	4
  5686                           
  5687                           ;Config register CONFIG1H @ 0x300001
  5688                           ;	Oscillator Selection bits
  5689                           ;	FOSC = HSPLL_HS, HS oscillator, PLL enabled (HSPLL)
  5690                           ;	Fail-Safe Clock Monitor Enable bit
  5691                           ;	FCMEN = OFF, Fail-Safe Clock Monitor disabled
  5692                           ;	Internal/External Oscillator Switchover bit
  5693                           ;	IESO = OFF, Oscillator Switchover mode disabled
  5694   300001                     	org	3145729
  5695   300001  0E                 	db	14
  5696                           
  5697                           ;Config register CONFIG2L @ 0x300002
  5698                           ;	Power-up Timer Enable bit
  5699                           ;	PWRT = OFF, PWRT disabled
  5700                           ;	Brown-out Reset Enable bits
  5701                           ;	BOR = OFF, Brown-out Reset disabled in hardware and software
  5702                           ;	Brown-out Reset Voltage bits
  5703                           ;	BORV = 3, Minimum setting 2.05V
  5704                           ;	USB Voltage Regulator Enable bit
  5705                           ;	VREGEN = OFF, USB voltage regulator disabled
  5706   300002                     	org	3145730
  5707   300002  19                 	db	25
  5708                           
  5709                           ;Config register CONFIG2H @ 0x300003
  5710                           ;	Watchdog Timer Enable bit
  5711                           ;	WDT = OFF, WDT disabled (control is placed on the SWDTEN bit)
  5712                           ;	Watchdog Timer Postscale Select bits
  5713                           ;	WDTPS = 32768, 1:32768
  5714   300003                     	org	3145731
  5715   300003  1E                 	db	30
  5716                           
  5717                           ; Padding undefined space
  5718   300004                     	org	3145732
  5719   300004  FF                 	db	255
  5720                           
  5721                           ;Config register CONFIG3H @ 0x300005
  5722                           ;	CCP2 MUX bit
  5723                           ;	CCP2MX = ON, CCP2 input/output is multiplexed with RC1
  5724                           ;	PORTB A/D Enable bit
  5725                           ;	PBADEN = ON, PORTB<4:0> pins are configured as analog input channels on Reset
  5726                           ;	Low-Power Timer 1 Oscillator Enable bit
  5727                           ;	LPT1OSC = OFF, Timer1 configured for higher power operation
  5728                           ;	MCLR Pin Enable bit
  5729                           ;	MCLRE = ON, MCLR pin enabled; RE3 input pin disabled
  5730   300005                     	org	3145733
  5731   300005  83                 	db	131
  5732                           
  5733                           ;Config register CONFIG4L @ 0x300006
  5734                           ;	Stack Full/Underflow Reset Enable bit
  5735                           ;	STVREN = ON, Stack full/underflow will cause Reset
  5736                           ;	Single-Supply ICSP Enable bit
  5737                           ;	LVP = ON, Single-Supply ICSP enabled
  5738                           ;	Dedicated In-Circuit Debug/Programming Port (ICPORT) Enable bit
  5739                           ;	ICPRT = OFF, ICPORT disabled
  5740                           ;	Extended Instruction Set Enable bit
  5741                           ;	XINST = OFF, Instruction set extension and Indexed Addressing mode disabled (Legacy mo
      +                          de)
  5742                           ;	Background Debugger Enable bit
  5743                           ;	DEBUG = 0x1, unprogrammed default
  5744   300006                     	org	3145734
  5745   300006  85                 	db	133
  5746                           
  5747                           ; Padding undefined space
  5748   300007                     	org	3145735
  5749   300007  FF                 	db	255
  5750                           
  5751                           ;Config register CONFIG5L @ 0x300008
  5752                           ;	Code Protection bit
  5753                           ;	CP0 = OFF, Block 0 (000800-001FFFh) is not code-protected
  5754                           ;	Code Protection bit
  5755                           ;	CP1 = OFF, Block 1 (002000-003FFFh) is not code-protected
  5756                           ;	Code Protection bit
  5757                           ;	CP2 = OFF, Block 2 (004000-005FFFh) is not code-protected
  5758                           ;	Code Protection bit
  5759                           ;	CP3 = OFF, Block 3 (006000-007FFFh) is not code-protected
  5760   300008                     	org	3145736
  5761   300008  0F                 	db	15
  5762                           
  5763                           ;Config register CONFIG5H @ 0x300009
  5764                           ;	Boot Block Code Protection bit
  5765                           ;	CPB = OFF, Boot block (000000-0007FFh) is not code-protected
  5766                           ;	Data EEPROM Code Protection bit
  5767                           ;	CPD = OFF, Data EEPROM is not code-protected
  5768   300009                     	org	3145737
  5769   300009  C0                 	db	192
  5770                           
  5771                           ;Config register CONFIG6L @ 0x30000A
  5772                           ;	Write Protection bit
  5773                           ;	WRT0 = OFF, Block 0 (000800-001FFFh) is not write-protected
  5774                           ;	Write Protection bit
  5775                           ;	WRT1 = OFF, Block 1 (002000-003FFFh) is not write-protected
  5776                           ;	Write Protection bit
  5777                           ;	WRT2 = OFF, Block 2 (004000-005FFFh) is not write-protected
  5778                           ;	Write Protection bit
  5779                           ;	WRT3 = OFF, Block 3 (006000-007FFFh) is not write-protected
  5780   30000A                     	org	3145738
  5781   30000A  0F                 	db	15
  5782                           
  5783                           ;Config register CONFIG6H @ 0x30000B
  5784                           ;	Configuration Register Write Protection bit
  5785                           ;	WRTC = OFF, Configuration registers (300000-3000FFh) are not write-protected
  5786                           ;	Boot Block Write Protection bit
  5787                           ;	WRTB = OFF, Boot block (000000-0007FFh) is not write-protected
  5788                           ;	Data EEPROM Write Protection bit
  5789                           ;	WRTD = OFF, Data EEPROM is not write-protected
  5790   30000B                     	org	3145739
  5791   30000B  E0                 	db	224
  5792                           
  5793                           ;Config register CONFIG7L @ 0x30000C
  5794                           ;	Table Read Protection bit
  5795                           ;	EBTR0 = OFF, Block 0 (000800-001FFFh) is not protected from table reads executed in ot
      +                          her blocks
  5796                           ;	Table Read Protection bit
  5797                           ;	EBTR1 = OFF, Block 1 (002000-003FFFh) is not protected from table reads executed in ot
      +                          her blocks
  5798                           ;	Table Read Protection bit
  5799                           ;	EBTR2 = OFF, Block 2 (004000-005FFFh) is not protected from table reads executed in ot
      +                          her blocks
  5800                           ;	Table Read Protection bit
  5801                           ;	EBTR3 = OFF, Block 3 (006000-007FFFh) is not protected from table reads executed in ot
      +                          her blocks
  5802   30000C                     	org	3145740
  5803   30000C  0F                 	db	15
  5804                           
  5805                           ;Config register CONFIG7H @ 0x30000D
  5806                           ;	Boot Block Table Read Protection bit
  5807                           ;	EBTRB = OFF, Boot block (000000-0007FFh) is not protected from table reads executed in
      +                           other blocks
  5808   30000D                     	org	3145741
  5809   30000D  40                 	db	64
  5810                           tosu	equ	0xFFF
  5811                           tosh	equ	0xFFE
  5812                           tosl	equ	0xFFD
  5813                           stkptr	equ	0xFFC
  5814                           pclatu	equ	0xFFB
  5815                           pclath	equ	0xFFA
  5816                           pcl	equ	0xFF9
  5817                           tblptru	equ	0xFF8
  5818                           tblptrh	equ	0xFF7
  5819                           tblptrl	equ	0xFF6
  5820                           tablat	equ	0xFF5
  5821                           prodh	equ	0xFF4
  5822                           prodl	equ	0xFF3
  5823                           indf0	equ	0xFEF
  5824                           postinc0	equ	0xFEE
  5825                           postdec0	equ	0xFED
  5826                           preinc0	equ	0xFEC
  5827                           plusw0	equ	0xFEB
  5828                           fsr0h	equ	0xFEA
  5829                           fsr0l	equ	0xFE9
  5830                           wreg	equ	0xFE8
  5831                           indf1	equ	0xFE7
  5832                           postinc1	equ	0xFE6
  5833                           postdec1	equ	0xFE5
  5834                           preinc1	equ	0xFE4
  5835                           plusw1	equ	0xFE3
  5836                           fsr1h	equ	0xFE2
  5837                           fsr1l	equ	0xFE1
  5838                           bsr	equ	0xFE0
  5839                           indf2	equ	0xFDF
  5840                           postinc2	equ	0xFDE
  5841                           postdec2	equ	0xFDD
  5842                           preinc2	equ	0xFDC
  5843                           plusw2	equ	0xFDB
  5844                           fsr2h	equ	0xFDA
  5845                           fsr2l	equ	0xFD9
  5846                           status	equ	0xFD8

Data Sizes:
    Strings     27
    Constant    0
    Data        0
    BSS         101
    Persistent  0
    Stack       0

Auto Spaces:
    Space          Size  Autos    Used
    COMRAM           94     90      94
    BANK0           160     28     125
    BANK1           256      0       0
    BANK2           256      0       0
    BANK3           256      0       0
    BANK4           256      0       0
    BANK5           256      0       0
    BANK6           256      0       0
    BANK7           256      0       0

Pointer List with Targets:

    f$.$buffer	PTR unsigned char  size(1) Largest target is 16
		 -> DATA_LCD(BANK0[16]), 

    f$.$source	PTR const unsigned char  size(2) Largest target is 0

    fputc@fp	PTR struct _IO_FILE size(1) Largest target is 11
		 -> sprintf@f(COMRAM[11]), 

    fputc@fp$.$buffer	PTR unsigned char  size(1) Largest target is 16
		 -> DATA_LCD(BANK0[16]), 

    fputc@fp$.$source	PTR const unsigned char  size(2) Largest target is 0

    S1395$buffer	PTR unsigned char  size(1) Largest target is 16
		 -> DATA_LCD(BANK0[16]), 

    S1395$source	PTR const unsigned char  size(2) Largest target is 0

    sprintf@ap	PTR void [1] size(1) Largest target is 2
		 -> ?_sprintf(COMRAM[2]), 

    sprintf@fmt	PTR const unsigned char  size(1) Largest target is 14
		 -> STR_1(CODE[13]), STR_2(CODE[14]), 

    sprintf@s	PTR unsigned char  size(1) Largest target is 16
		 -> DATA_LCD(BANK0[16]), 

    vfpfcnvrt@ap	PTR PTR void  size(1) Largest target is 1
		 -> sprintf@ap(COMRAM[1]), 

    vfpfcnvrt@fmt	PTR PTR unsigned char  size(1) Largest target is 1
		 -> vfprintf@cfmt(COMRAM[1]), 

    vfpfcnvrt@fp	PTR struct _IO_FILE size(1) Largest target is 11
		 -> sprintf@f(COMRAM[11]), 

    vfprintf@ap	PTR PTR void  size(1) Largest target is 1
		 -> sprintf@ap(COMRAM[1]), 

    vfprintf@cfmt	PTR unsigned char  size(1) Largest target is 14
		 -> STR_1(CODE[13]), STR_2(CODE[14]), 

    vfprintf@fmt	PTR const unsigned char  size(1) Largest target is 14
		 -> STR_1(CODE[13]), STR_2(CODE[14]), 

    vfprintf@fp	PTR struct _IO_FILE size(1) Largest target is 11
		 -> sprintf@f(COMRAM[11]), 

    writeString_LCD@dato_LCD	PTR const unsigned char  size(1) Largest target is 16
		 -> DATA_LCD(BANK0[16]), 


Critical Paths under _main in COMRAM

    _writeString_LCD->_writeChar_LCD
    _sprintf->_vfprintf
    _vfprintf->_vfpfcnvrt
    _vfpfcnvrt->_fputc
    _mapping->___fldiv
    ___fltol->___fladd
    ___flsub->___fladd
    ___fladd->___flmul
    ___flmul->___xxtofl
    ___fldiv->___flsub
    _init_LCD->_set_Cursor_LCD

Critical Paths under _INT_TMR0 in COMRAM

    None.

Critical Paths under _main in BANK0

    _main->_mapping

Critical Paths under _INT_TMR0 in BANK0

    None.

Critical Paths under _main in BANK1

    None.

Critical Paths under _INT_TMR0 in BANK1

    None.

Critical Paths under _main in BANK2

    None.

Critical Paths under _INT_TMR0 in BANK2

    None.

Critical Paths under _main in BANK3

    None.

Critical Paths under _INT_TMR0 in BANK3

    None.

Critical Paths under _main in BANK4

    None.

Critical Paths under _INT_TMR0 in BANK4

    None.

Critical Paths under _main in BANK5

    None.

Critical Paths under _INT_TMR0 in BANK5

    None.

Critical Paths under _main in BANK6

    None.

Critical Paths under _INT_TMR0 in BANK6

    None.

Critical Paths under _main in BANK7

    None.

Critical Paths under _INT_TMR0 in BANK7

    None.

Call Graph Tables:

 ---------------------------------------------------------------------------------
 (Depth) Function   	        Calls       Base Space   Used Autos Params    Refs
 ---------------------------------------------------------------------------------
 (0) _main                                                 2     2      0    8659
                                             88 COMRAM     2     2      0
                           _PWM_Init
                     _PWM_Init_Ports
                    _SPI_Init_Master
                             _SPI_Tx
                          _clear_LCD
                           _init_ADC
                           _init_LCD
                            _mapping
                           _read_ADC
                     _set_Cursor_LCD
                            _sprintf
                    _writeString_LCD
 ---------------------------------------------------------------------------------
 (1) _writeString_LCD                                      3     2      1     121
                                              1 COMRAM     3     2      1
                      _writeChar_LCD
 ---------------------------------------------------------------------------------
 (2) _writeChar_LCD                                        1     1      0      29
                                              0 COMRAM     1     1      0
 ---------------------------------------------------------------------------------
 (1) _sprintf                                             16    14      2     686
                                             15 COMRAM    14    12      2
                           _vfprintf
 ---------------------------------------------------------------------------------
 (2) _vfprintf                                             4     1      3     485
                                             11 COMRAM     4     1      3
                          _vfpfcnvrt
 ---------------------------------------------------------------------------------
 (3) _vfpfcnvrt                                            7     4      3     363
                                              8 COMRAM     3     0      3
                              _fputc
 ---------------------------------------------------------------------------------
 (4) _fputc                                                8     5      3     228
                                              0 COMRAM     8     5      3
                              _putch
 ---------------------------------------------------------------------------------
 (5) _putch                                                1     1      0       0
 ---------------------------------------------------------------------------------
 (1) _read_ADC                                             4     2      2      58
                                              0 COMRAM     4     2      2
 ---------------------------------------------------------------------------------
 (1) _mapping                                             28    10     18    7443
                                              0 BANK0     28    10     18
                            ___fladd
                            ___fldiv
                            ___flmul
                            ___flsub
                            ___fltol
                           ___xxtofl
 ---------------------------------------------------------------------------------
 (2) ___xxtofl                                            14    10      4     337
                                              0 COMRAM    14    10      4
 ---------------------------------------------------------------------------------
 (2) ___fltol                                             10     6      4     230
                                             55 COMRAM    10     6      4
                            ___fladd (ARG)
                            ___flmul (ARG)
                           ___xxtofl (ARG)
 ---------------------------------------------------------------------------------
 (2) ___flsub                                              8     0      8    2039
                                             55 COMRAM     8     0      8
                            ___fladd
                            ___flmul (ARG)
 ---------------------------------------------------------------------------------
 (3) ___fladd                                             16     8      8    1988
                                             39 COMRAM    16     8      8
                            ___flmul (ARG)
                           ___xxtofl (ARG)
 ---------------------------------------------------------------------------------
 (2) ___flmul                                             25    17      8    1470
                                             14 COMRAM    25    17      8
                           ___xxtofl (ARG)
 ---------------------------------------------------------------------------------
 (2) ___fldiv                                             25    17      8    1123
                                             63 COMRAM    25    17      8
                            ___flsub (ARG)
 ---------------------------------------------------------------------------------
 (1) _init_LCD                                             2     2      0      76
                                              3 COMRAM     2     2      0
                          _clear_LCD
                     _set_Cursor_LCD
 ---------------------------------------------------------------------------------
 (1) _set_Cursor_LCD                                       3     2      1      76
                                              0 COMRAM     3     2      1
 ---------------------------------------------------------------------------------
 (2) _clear_LCD                                            1     1      0       0
                                              0 COMRAM     1     1      0
 ---------------------------------------------------------------------------------
 (1) _init_ADC                                             1     1      0      29
                                              0 COMRAM     1     1      0
 ---------------------------------------------------------------------------------
 (1) _SPI_Tx                                               1     1      0      29
                                              0 COMRAM     1     1      0
 ---------------------------------------------------------------------------------
 (1) _SPI_Init_Master                                      3     1      2     141
                                              0 COMRAM     3     1      2
 ---------------------------------------------------------------------------------
 (1) _PWM_Init_Ports                                       0     0      0       0
 ---------------------------------------------------------------------------------
 (1) _PWM_Init                                             0     0      0       0
 ---------------------------------------------------------------------------------
 Estimated maximum stack depth 5
 ---------------------------------------------------------------------------------
 (Depth) Function   	        Calls       Base Space   Used Autos Params    Refs
 ---------------------------------------------------------------------------------
 (6) _INT_TMR0                                             0     0      0       0
 ---------------------------------------------------------------------------------
 Estimated maximum stack depth 6
 ---------------------------------------------------------------------------------

 Call Graph Graphs:

 _main (ROOT)
   _PWM_Init
   _PWM_Init_Ports
   _SPI_Init_Master
   _SPI_Tx
   _clear_LCD
   _init_ADC
   _init_LCD
     _clear_LCD
     _set_Cursor_LCD
   _mapping
     ___fladd
       ___flmul (ARG)
         ___xxtofl (ARG)
       ___xxtofl (ARG)
     ___fldiv
       ___flsub (ARG)
         ___fladd
         ___flmul (ARG)
     ___flmul
     ___flsub
     ___fltol
       ___fladd (ARG)
       ___flmul (ARG)
       ___xxtofl (ARG)
     ___xxtofl
   _read_ADC
   _set_Cursor_LCD
   _sprintf
     _vfprintf
       _vfpfcnvrt
         _fputc
           _putch
   _writeString_LCD
     _writeChar_LCD

 _INT_TMR0 (ROOT)

Address spaces:
Name               Size   Autos  Total    Usage
BIGRAM            2047      0       0      0.0%
BITBANK7           256      0       0      0.0%
BANK7              256      0       0      0.0%
BITBANK6           256      0       0      0.0%
BANK6              256      0       0      0.0%
BITBANK5           256      0       0      0.0%
BANK5              256      0       0      0.0%
BITBANK4           256      0       0      0.0%
BANK4              256      0       0      0.0%
BITBANK3           256      0       0      0.0%
BANK3              256      0       0      0.0%
BITBANK2           256      0       0      0.0%
BANK2              256      0       0      0.0%
BITBANK1           256      0       0      0.0%
BANK1              256      0       0      0.0%
BITBANK0           160      0       0      0.0%
BANK0              160     28     125     78.1%
BITCOMRAM           94      0       0      0.0%
COMRAM              94     90      94    100.0%
BITBIGSFRh          61      0       0      0.0%
BITBIGSFRlh         56      0       0      0.0%
BITBIGSFRll         41      0       0      0.0%
STACK                0      0       0      0.0%
DATA                 0      0     219      0.0%


Microchip Technology PIC18 Macro Assembler V2.50 build 20240725155939 
Symbol Table                                                                                   Wed Jan 08 20:14:05 2025

           ___fldiv@aexp 0058             ___fldiv@bexp 0057                        _x 00AA  
                      _y 00A6                        _z 005D             ___fldiv@sign 0050  
            _SSPSTATbits 0FC7                       l20 1F5A                       l23 1F6E  
                     l17 1C70                       l37 1CE8                       l29 1EC6  
                    l202 1F8A                      l130 1BF8                      l106 19BE  
                    l124 1BEC                      l143 1F84                      l162 1DDA  
                    l163 1E0A                      l165 1DF2                      l159 1F7C  
                    l167 1E00                      l505 1AC4                      l199 1F3E  
                    l801 1332                      l802 1350                      l803 13A8  
                    l804 1396                      l830 0FAC                      l822 0D98  
                    l750 0BAE                      l831 1004                      l832 0FF2  
                    l736 0A06                      l753 0B20                      l745 0CD2  
                    l737 09F4                      l826 10F8                      l762 0BEE  
                    l738 09BA                      l763 0BDC                      l915 1E8E  
                    l829 0F8E                      l909 1D54                      l790 1488  
                    l870 17A0                      l839 10BA                      l863 1708  
                    l927 1B6E                      l792 12EC                      l769 0C96  
                    l778 1E50                      l866 1864                      l938 1F8C  
                    l795 12B0                      l877 17FC                      l886 1EFA  
                    wreg 0FE8             ___flmul@aexp 0020             ___flmul@bexp 0021  
           ___flmul@sign 001B             ___flmul@temp 0026             ___flmul@prod 0022  
           ___fltol@exp1 0041                     l2000 0C52                     l2010 0CA4  
                   l2002 0C54                     l2100 1126                     l2020 0CC2  
                   l2012 0CAA                     l2004 0C64                     l2110 115E  
                   l2102 1136                     l2014 0CAC                     l2006 0C74  
                   l2030 1D22                     l2200 13FC                     l2120 118A  
                   l2112 1164                     l2104 1146                     l2016 0CB2  
                   l2008 0C94                     l2032 1D26                     l2024 1CEA  
                   l2050 1F58                     l2042 1F40                     l2210 1462  
                   l2202 1400                     l2130 11C2                     l2122 119A  
                   l2114 116A                     l2106 1148                     l2018 0CC0  
                   l2026 1D0C                     l2044 1F42                     l2060 1C92  
                   l2052 1C74                     l2220 147E                     l2212 1464  
                   l2204 141A                     l2132 11D8                     l2124 11AA  
                   l2116 1178                     l2108 114E                     l2300 0ECC  
                   l2028 1D14                     l2036 1D32                     l2046 1F46  
                   l2070 1CB6                     l2062 1C98                     l2054 1C7A  
                   l2214 1468                     l2206 1430                     l2150 122C  
                   l2134 11E8                     l2142 1208                     l2126 11AC  
                   l2118 117A                     l2310 0F74                     l2302 0EE8  
                   l2230 0CE0                     l2048 1F48                     l2072 1CBA  
                   l2064 1C9E                     l2056 1C80                     l2080 1CD2  
                   l2216 1476                     l2208 144A                     l2160 127C  
                   l2152 1246                     l2144 1218                     l2136 11F0  
                   l2128 11B2                     l2320 0FEA                     l2312 0F7E  
                   l2304 0F12                     l2240 0D20                     l2232 0CEE  
                   l2400 1AA4                     l2074 1CBC                     l2066 1CA0  
                   l2058 1C82                     l2218 147C                     l2170 12D8  
                   l2162 128C                     l2154 1256                     l2146 1218  
                   l2138 11F4                     l2330 1058                     l2314 0F8C  
                   l2306 0F48                     l2250 0D50                     l2242 0D26  
                   l2234 0CF0                     l2402 1AB4                     l2410 16D2  
                   l2090 1F6C                     l2082 1F5E                     l2500 1F76  
                   l2076 1CCC                     l2068 1CB0                     l2180 1318  
                   l2172 12DA                     l2164 12A0                     l2156 1266  
                   l2092 10FA                     l2340 10B4                     l2324 1014  
                   l2332 105C                     l2316 0F9E                     l2308 0F56  
                   l2260 0D88                     l2252 0D52                     l2244 0D36  
                   l2236 0D00                     l2228 0CD4                     l2420 174A  
                   l2412 1718                     l2084 1F60                     l2510 1F30  
                   l2502 1F78                     l2190 138E                     l2182 1322  
                   l2174 12EA                     l2166 12AE                     l2158 1276  
                   l2094 1106                     l2342 10BE                     l2350 10E4  
                   l2334 1076                     l2326 1020                     l2318 0FBC  
                   l2270 0DD8                     l2262 0DA8                     l2254 0D62  
                   l2246 0D3C                     l2238 0D10                     l2430 17D2  
                   l2422 1756                     l2414 172E                     l2406 16B4  
                   l2086 1F64                     l2512 1F32                     l2504 1F1E  
                   l2184 1330                     l2176 12FC                     l2168 12BA  
                   l2096 1114                     l2352 10E8                     l2344 10CE  
                   l2336 108A                     l2328 102E                     l2280 0E28  
                   l2272 0DE2                     l2264 0DB8                     l2256 0D72  
                   l2248 0D42                     l2440 1810                     l2432 17DE  
                   l2424 1788                     l2408 16C4                     l2520 1ED0  
                   l2088 1F66                     l2600 14B8                     l2514 1F34  
                   l2506 1F2A                     l2530 1B72                     l2194 13B8  
                   l2178 1312                     l2186 1342                     l2098 1116  
                   l2346 10DC                     l2338 10A4                     l2290 0E6A  
                   l2282 0E34                     l2274 0DF8                     l2258 0D82  
                   l2370 1A14                     l2362 19C0                     l2442 1834  
                   l2434 17EC                     l2426 178A                     l2418 1742  
                   l2522 1ED8                     l2610 14F4                     l2602 14C0  
                   l2508 1F2E                     l2516 1F86                     l2540 1B7E  
                   l2532 1B76                     l2196 13C4                     l2188 1360  
                   l2348 10DE                     l2292 0E7A                     l2284 0E42  
                   l2276 0E04                     l2268 0DCC                     l1900 094A  
                   l2356 1E0C                     l2372 1A16                     l2364 19D6  
                   l2444 1844                     l2436 180A                     l2428 1796  
                   l1820 1AE6                     l2452 1E52                     l2524 1EE0  
                   l2620 153A                     l2612 14F8                     l2604 14CC  
                   l2550 1BBC                     l2542 1B88                     l2534 1B78  
                   l2470 1C24                     l2462 1BFA                     l2198 13D2  
                   l2294 0E94                     l2286 0E4E                     l2278 0E1C  
                   l1910 0986                     l1902 094E                     l1830 081E  
                   l2358 1E1C                     l2374 1A26                     l2446 1852  
                   l2438 180C                     l1822 1AF0                     l2454 1E5A  
                   l2526 1EF0                     l2518 1EC8                     l2630 1650  
                   l2622 1590                     l2614 1506                     l2606 14D6  
                   l2552 1BCE                     l2544 1B9A                     l2536 1B7A  
                   l2480 1C48                     l2472 1C26                     l2464 1C08  
                   l2296 0EA4                     l2288 0E5E                     l1920 09D8  
                   l1912 09A2                     l1904 0952                     l1840 085A  
                   l1832 082A                     l2384 1A50                     l2376 1A2A  
                   l2368 19EA                     l2448 1854                     l2560 1DCE  
                   l1824 1B0C                     l1816 1AC6                     l2456 1E6A  
                   l2640 1698                     l2632 1670                     l2624 1602  
                   l2616 151E                     l2608 14DE                     l2554 1BD6  
                   l2546 1BA2                     l2538 1B7C                     l2482 1C4C  
                   l2474 1C2A                     l2466 1C0C                     l2298 0EC0  
                   l1930 0A24                     l1922 09E6                     l1914 09B2  
                   l1906 0956                     l1850 0888                     l1842 086A  
                   l1834 0838                     l2394 1A78                     l2386 1A5A  
                   l2378 1A38                     l2570 1DF0                     l1826 1B3E  
                   l1818 1AD6                     l2458 1E86                     l2490 1E90  
                   l2642 169A                     l2634 1680                     l2626 1622  
                   l2618 152C                     l2556 1BE8                     l2548 1BB4  
                   l2484 1C4E                     l2476 1C42                     l2468 1C0E  
                   l1940 0A64                     l1924 09E8                     l1916 09C8  
                   l1908 095A                     l1860 08B2                     l1852 089A  
                   l1844 086C                     l1836 083A                     l2396 1A84  
                   l2388 1A64                     l2580 19B6                     l2572 1866  
                   l2492 1E9C                     l2636 1682                     l2628 1632  
                   l2486 1C64                     l2478 1C44                     l1950 0A8E  
                   l1942 0A70                     l1934 0A38                     l1926 09F2  
                   l1918 09D4                     l1862 08C2                     l1870 08EA  
                   l1854 089C                     l1838 084A                     l1846 0872  
                   l2398 1A94                     l2574 1866                     l2566 1DDC  
                   l2558 1DBE                     l2494 1EAA                     l2638 1688  
                   l2590 1494                     l2584 1F80                     l2488 1C66  
                   l1960 0B00                     l1944 0A74                     l1936 0A48  
                   l1928 0A14                     l1952 0A94                     l1880 0922  
                   l1872 08FA                     l1864 08D2                     l1856 08A2  
                   l1848 0882                     l2576 18E2                     l2568 1DEE  
                   l2496 1EAE                     l2592 149C                     l2498 1F72  
                   l1970 0B5A                     l1954 0ABA                     l1962 0B10  
                   l1946 0A82                     l1938 0A56                     l1890 0936  
                   l1882 0926                     l1874 090C                     l1866 08E2  
                   l1858 08B0                     l2578 193A                     l2594 14A0  
                   l2586 148A                     l1980 0B8A                     l1972 0B64  
                   l1964 0B36                     l1956 0AEE                     l1948 0A84  
                   l1892 093A                     l1884 092A                     l1876 091A  
                   l1868 08E4                     l2596 14A2                     l2588 148E  
                   l1990 0BD4                     l1982 0B8E                     l1974 0B72  
                   l1966 0B46                     l1958 0AF0                     l1894 093E  
                   l1886 092E                     l1878 091E                     l2598 14AE  
                   l1984 0B9E                     l1976 0B74                     l1896 0942  
                   l1888 0932                     l1994 0BFE                     l1978 0B82  
                   l1986 0BA0                     l1898 0946                     l1996 0C0A  
                   l1988 0BBE                     l1998 0C18                     STR_1 080F  
                   STR_2 0801                     u2000 0F8C                     u2001 0F88  
                   u2010 0FAC                     u2011 0FA8                     u2020 0FBC  
                   u1300 085A                     u2100 19D6                     u2021 0FB8  
                   u1301 0856                     u2101 19D2                     u2030 0FEA  
                   u1310 089A                     u2110 1A0A                     u2031 0FE6  
                   u1311 0896                     u2040 1000                     u1400 09C8  
                   u1320 08B0                     u2120 1A38                     u2200 1784  
                   u1240 1AD6                     u2041 0FFC                     u1401 09C4  
                   u1321 08AC                     u2121 1A34                     u2201 1780  
                   u1241 1AD2                     u2050 1014                     u1410 09E6  
                   u1330 08C2                     u2130 1A4C                     u2210 17CE  
                   u1250 1AE6                     u2051 1010                     u1411 09E2  
                   u1331 08BE                     u2131 1A48                     u2115 1A00  
                   u2211 17CA                     u1251 1AE2                     u2300 1BB4  
                   u2060 102E                     u1500 0B36                     u1420 0A06  
                   u1340 08D2                     u2140 1A74                     u2220 17EC  
                   u1260 1B0C                     u2301 1BB0                     u2061 102A  
                   u1501 0B32                     u1421 0A02                     u1341 08CE  
                   u2141 1A70                     u2221 17E8                     u1261 1B08  
                   u2310 1BCE                     u2070 1076                     u1510 0B46  
                   u1430 0A14                     u1350 090C                     u2150 1A94  
                   u2230 17FC                     u1270 1B3E                     u2311 1BCA  
                   u2071 1072                     u1511 0B42                     u1431 0A10  
                   u1351 0908                     u2151 1A90                     u2231 17F8  
                   u1271 1B3A                     u2320 1BE8                     u2080 10A4  
                   u1600 0C18                     u1520 0B72                     u1440 0A24  
                   u1360 091A                     u1280 0838                     u2160 1AA4  
                   u2240 180A                     _LATD 0F8C                     u2321 1BE4  
                   u2081 10A0                     u1601 0C14                     u1521 0B6E  
                   u1441 0A20                     u1361 0916                     u1281 0834  
                   u2161 1AA0                     u2241 1806                     u2090 10DC  
                   u1610 0C52                     u1530 0B82                     u1450 0A56  
                   u1370 0986                     u1290 084A                     u2250 1844  
                   u2170 16C4                     u2091 10D8                     u1611 0C4E  
                   u1531 0B7E                     u1451 0A52                     u1371 0982  
                   u1291 0846                     u2251 1840                     u2171 16C0  
                   u1700 1136                     u1620 0C64                     u1540 0B9E  
                   u1460 0A64                     u1380 099E                     u2260 1852  
                   u2180 16D2                     u2340 1DCE                     u1701 1132  
                   u1621 0C60                     u1541 0B9A                     u1461 0A60  
                   u1381 0998                     u2261 184E                     u2181 16CE  
                   u2341 1DCA                     u1710 1178                     u1630 0C74  
                   u1550 0BAE                     u1470 0A82                     u1390 09A0  
                   u2190 172E                     u2350 1E00                     u2270 1E86  
                   u2335 1BF4                     u1711 1174                     u1631 0C70  
                   u1551 0BAA                     u1471 0A7E                     u2191 172A  
                   u2351 1DFC                     u2271 1E82                     u2336 1BF6  
                   u1800 1312                     u1720 118A                     u1640 0C94  
                   u1560 0BBE                     u1480 0ABA                     u2280 1EC6  
                   u2360 1602                     u1801 130E                     u1721 1186  
                   u1641 0C90                     u1561 0BBA                     u1481 0AB6  
                   u2281 1EC2                     u2361 15FE                     u2290 1B9A  
                   u1810 1330                     u1730 119A                     u1650 0CA4  
                   u1570 0BD4                     u1490 0B00                     u2370 161E  
                   u2291 1B96                     u2507 1C58                     u1811 132C  
                   u1731 1196                     u1651 0CA0                     u1571 0BD0  
                   u1491 0AFC                     u2371 161A                     u1900 1476  
                   u1820 1350                     u1740 11D8                     u1660 0CC0  
                   u1580 0BEA                     u2380 1650                     u2517 1C88  
                   u1901 1472                     u1821 134C                     u1741 11D4  
                   u1661 0CBC                     u1581 0BE6                     u2381 164C  
                   u2437 14E8                     u1830 1360                     u1750 1218  
                   u1910 0CEE                     u1590 0BFE                     u1670 1D0C  
                   u2390 166C                     u2527 1CA6                     u1831 135C  
                   u1751 1214                     u1911 0CEA                     u1591 0BFA  
                   u1671 1D08                     u2391 1668                     u2447 1510  
                   u1840 138E                     u1760 128C                     u1680 1114  
                   u1920 0D00                     u2537 1CC2                     u1841 138A  
                   u1761 1288                     u1681 1110                     u1921 0CFC  
                   u2457 168E                     u1850 13A4                     u1770 12AE  
                   u1690 1126                     u1930 0D10                     u2547 1F4E  
                   u1851 13A0                     u1771 12AA                     u1691 1122  
                   u1931 0D0C                     u2467 16A0                     u1860 13B8  
                   u1780 12D8                     u1940 0D50                     u1861 13B4  
                   u1781 12D4                     u1941 0D4C                     u2477 1F68  
                   u1870 13D2                     u1790 12FC                     u1950 0D62  
                   u2487 1C18                     u1871 13CE                     u1791 12F8  
                   u1951 0D5E                     u1880 141A                     u1960 0D72  
                   u2497 1C36                     u1881 1416                     u1961 0D6E  
                   u1890 144A                     u1970 0DA8                     u1891 1446  
                   u1971 0DA4                     u1980 0DB8                     u1981 0DB4  
                   u1990 0F32                     u1995 0F28                     _TMR0 0FD6  
                   _dof1 00AC                     _dof2 00A8                     _data 00AE  
                   _dbuf 0060                     _main 148A                     _prec 00A4  
                   fsr1h 0FE2                     fsr2h 0FDA                     indf2 0FDF  
                   fsr1l 0FE1                     fsr2l 0FD9                     btemp 005F  
                   prodh 0FF4                     prodl 0FF3                     start 000E  
        ___fldiv@new_exp 0051             ___param_bank 0000            ___fltol@sign1 0040  
        __end_of___fladd 0CD4                    ?_main 0001          __end_of___fldiv 148A  
                  _ADRES 0FC3          __end_of___flmul 10FA          __end_of___flsub 1E52  
        __end_of___fltol 1AC6                    _T0CON 0FD5         __end_of_INT_TMR0 1DBC  
                  i2l194 1DAC                    i2l196 1DB8             vfpfcnvrt@fmt 000A  
                  _TRISD 0F95  __end_of_SPI_Init_Master 1BFA    writeChar_LCD@dato_LCD 0001  
                  _flags 00B0          __end_of_mapping 19C0                    _fputc 1AC6  
    init_ADC@Puertos_ADC 0001                    _width 00A2                    _putch 1F8C  
       __end_of_PWM_Init 1F40                    tablat 0FF5                    ttemp5 0060  
                  ttemp6 0063                    ttemp7 0067                    status 0FD8  
                  wtemp8 0060          __end_of_sprintf 1EFC          __initialization 1EFC  
           __end_of_main 16B2                   ??_main 0059            __activetblptr 0002  
                 _ADCON0 0FC2                   _ADCON1 0FC1                   _ADCON2 0FC0  
                 ?_fputc 0001                   ?_putch 0001                   i2l2650 1D8E  
                 i2l2652 1DA6                   i2l2644 1D58                   i2l2654 1DAE  
                 i2l2646 1D66                   i2l2656 1DB6                   i2l2648 1D86  
                 _SSPBUF 0FC9                   _SPI_Tx 1F7E         __end_of___xxtofl 1866  
            mapping@read 00D1           _PWM_Init_Ports 1F86             vfprintf@cfmt 000F  
              ??___fladd 0030                ??___fldiv 0048                ??___flmul 0017  
              ??___flsub 0040                ??___fltol 003C         __end_of_init_ADC 1F7E  
       __end_of_init_LCD 1C72         __end_of_read_ADC 1E0C           _set_Cursor_LCD 1C72  
                 clear_0 1F02                   isa$std 0001                   fputc@c 0001  
              ??_mapping 0059             __mediumconst 0000                   tblptrh 0FF7  
                 tblptrl 0FF6                   tblptru 0FF8                   putch@c 0001  
       ?_SPI_Init_Master 0001         __end_of_vfprintf 1E90                ??_sprintf 0012  
           ___xxtofl@arg 000B             ___xxtofl@exp 000A             ___xxtofl@val 0001  
             __accesstop 0060  __end_of__initialization 1F10   __end_of_PWM_Init_Ports 1F8C  
          ___rparam_used 0001               ___fltol@f1 0038                ?_INT_TMR0 0001  
         __pcstackCOMRAM 0001         writeString_LCD@i 0003   __end_of_set_Cursor_LCD 1CEA  
          __end_of_fputc 1B70            __end_of_putch 1F8E        ??_writeString_LCD 0003  
              ?_PWM_Init 0001                  ??_fputc 0004                  ??_putch 0001  
             __pbssBANK0 0060                  ?_SPI_Tx 0001            _writeChar_LCD 1F5C  
        ?_PWM_Init_Ports 0001               ??_INT_TMR0 0001          ?_set_Cursor_LCD 0001  
             ??_PWM_Init 0001                ?___xxtofl 0001                ?_init_ADC 0001  
              ?_init_LCD 0001                ?_read_ADC 0001        __end_of_clear_LCD 1F5C  
         ?_writeChar_LCD 0001                  __Hparam 0000                  __Lparam 0000  
                ___fladd 081E                  ___fldiv 10FA                  ___flmul 0CD4  
                ___flsub 1E0C                  ___fltol 19C0       SPI_Init_Master@smp 0002  
              ?_vfprintf 000C             __psmallconst 0800                  __pcinit 1EFC  
                __ramtop 0800                  __ptext0 148A                  __ptext1 1E90  
                __ptext2 1F5C                  __ptext3 1EC8                  __ptext4 1E52  
                __ptext5 1CEA                  __ptext6 1AC6                  __ptext7 1F8C  
                __ptext8 1DBC                  __ptext9 1866                _T0CONbits 0FD5  
                _mapping 1866               ??___xxtofl 0005                  _sprintf 1EC8  
         __pintcode_body 1D56     end_of_initialization 1F10               ??_init_ADC 0001  
             ??_init_LCD 0004               ??_read_ADC 0003                  fputc@fp 0003  
          __Lmediumconst 0000                  int_func 1D56        __end_of_vfpfcnvrt 1D56  
                postdec2 0FDD                  postinc0 0FEE                  postinc1 0FE6  
                postinc2 0FDE               ??_vfprintf 000F              ___fladd@grs 0037  
          ___xxtofl@sign 0009                _TRISAbits 0F92                _TRISBbits 0F93  
              _TRISCbits 0F94              ___fldiv@grs 0053              ___fldiv@rem 004C  
        ??_writeChar_LCD 0001              ___flmul@grs 001C           __end_of_SPI_Tx 1F86  
        _writeString_LCD 1E90           mapping@max_out 00CD           mapping@min_out 00C9  
            vfpfcnvrt@ap 000B              vfpfcnvrt@fp 0009             _control_data 0094  
    start_initialization 1EFC         ??_PWM_Init_Ports 0001                 ??_SPI_Tx 0001  
       ??_set_Cursor_LCD 0002              vfprintf@fmt 000D                ___fladd@a 002C  
              ___fladd@b 0028                ___fldiv@a 0044                ___fldiv@b 0040  
              ___flmul@a 0013                ___flmul@b 000F              __pbssCOMRAM 005B  
              ___flsub@a 003C                ___flsub@b 0038            __pcstackBANK0 00C1  
   SPI_Init_Master@reloj 0003            read_ADC@canal 0004  __end_of_writeString_LCD 1EC8  
              _clear_LCD 1F40                __pintcode 0008                 ?___fladd 0028  
               ?___fldiv 0040                 ?___flmul 000F                 ?___flsub 0038  
               ?___fltol 0038              __smallconst 0800                 ?_mapping 00C1  
               _DATA_LCD 00B1                 ?_sprintf 0010                 _LATAbits 0F89  
               _LATBbits 0F8A               ?_clear_LCD 0001                 _INT_TMR0 0008  
               i2u240_40 1D66                 i2u240_41 1D62                 i2u241_40 1D86  
               i2u241_41 1D82                 i2u242_40 1DA6                 i2u242_41 1DA2  
               _RCONbits 0FD0        ??_SPI_Init_Master 0003                _vfpfcnvrt 1CEA  
             _ADCON0bits 0FC2                 _PWM_Init 1F1E                _pwm_value 0080  
          mapping@max_in 00C5            mapping@min_in 00C1              _INTCON2bits 0FF1  
       ?_writeString_LCD 0002               SPI_Tx@dato 0001  writeString_LCD@dato_LCD 0002  
               __Hrparam 0000               vfprintf@ap 000E                 __Lrparam 0000  
             vfprintf@fp 000C               ?_vfpfcnvrt 0009      SPI_Init_Master@modo 0001  
             sprintf@fmt 0011                 ___xxtofl 16B2                 __ptext10 16B2  
               __ptext11 19C0                 __ptext20 1F7E                 __ptext12 1E0C  
               __ptext21 1B70                 __ptext13 081E                 __ptext22 1F86  
               __ptext14 0CD4                 __ptext23 1F1E                 __ptext15 10FA  
               __ptext16 1BFA                 __ptext17 1C72                 __ptext18 1F40  
               __ptext19 1F70                 _contador 005B                 _init_ADC 1F70  
               _init_LCD 1BFA                 _read_ADC 1DBC    __end_of_writeChar_LCD 1F70  
            ??_clear_LCD 0001                 isa$xinst 0000                 int$flags 005F  
               _vfprintf 1E52               _INTCONbits 0FF2                 mapping@b 00D3  
               mapping@m 00D9                 mapping@y 00D7                 intlevel2 0000  
              sprintf@ap 0012          set_Cursor_LCD@x 0003          set_Cursor_LCD@y 0001  
            ??_vfpfcnvrt 000C                 sprintf@f 0013                 sprintf@s 0010  
            _SSPCON1bits 0FC6            ___fladd@signs 0034             ___fladd@aexp 0035  
           ___fladd@bexp 0036          _SPI_Init_Master 1B70  
